IO_0 EQU $00
IO_1 EQU $01
IO_2 EQU $02
IO_3 EQU $03
IO_4 EQU $04
IO_AUDIO_STATUS EQU $07
IO_AUDIO_LATCHES EQU $1c
IO_WATCHDOG_RESET EQU $e0
IO_UNKNOWN_WRITTEN_AT_INITIALIZATION EQU $e8
IO_CTC0 EQU $f0
IO_CTC1 EQU $f1
IO_CTC3 EQU $f3

COPYRIGHT_1982_BALLY_MIDWAY_MFG_CO_S EQU $006b
COLOR_PALETTE_FOR_6_10_BYTES_TO_01BA? EQU $01ab
SERVICE_INTERRUPT_ROUTINE EQU $01cb
TANK_ROTATE_TURRET? EQU $0289
GET_INPUT_FROM_JOYSTICK_TRIGGER_+? EQU $02e3
STRING_IN_DE_TO_HL EQU $0401
CHECK_DATA_C4F0_TO_C657? EQU $041c
DEFAULT_HIGH_SCORE_TABLE EQU $04b0
BA_S EQU $04b3
GG_S EQU $04b6
EV_S EQU $04b9
AG_S EQU $04bc
JM_S EQU $04bf
TL_S EQU $04c2
SB_S EQU $04c5
MJ_S EQU $04c8
JJ_S EQU $04cb
CREDITS_S EQU $0513
OUTPUT_TO_SOUND_LATCHES EQU $0557
ROTATE_MCP_BLOCK_COLORS EQU $05c3
MCP_BLOCKS_COLOR_POSITIONS_LEFT_TO_RIGHT EQU $05ec
PRINT_OUT_MESSAGES_IN_QUEUES EQU $06ca
PRINT_OUT_MESSAGES_IN_QUEUE_2 EQU $06f5
TANK_UPDATE_COLOR_CYCLING EQU $074f
OUTPUT_IO_TOWER_TIMER?/TELETYPE_PRINTING_TO_THE_SCREEN_UNTIL_NULL_BYTE? EQU $0792
UPDATE_GAME_SELECT_COUNTDOWN_TIMER_FROM_DE EQU $0825
ATTRACT_MODE_LOOP EQU $0900
DATA_TO_0B57_USED_AT_0AFE? EQU $0b54
DRAW_ATTRACT_MCP_CONE EQU $0d7c
DISPLAY_MCP_CONE_WITH_COPYRIGHTS_AND_NEXT_INSTRUCTIONS EQU $0af1
COPYRIGHT_MCMLXXXI_S EQU $0b58
WALT_DISNEY_PRODUCTIONS_S EQU $0b6b
COPYRIGHT_MCMLXXXII_S EQU $0b87
BALLY_MIDWAY_MFG_CO_S EQU $0b9b
READ_AND_PROCESS_INPUT_PORTS EQU $0d52
ALL_RIGHTS_RESERVED_S EQU $0baf
READ_C45B_AND_JP_TO_1_OF_5_LOCATIONS EQU $0d38
SHOULD_I_UPDATE_CONE_COLOR? EQU $0e32
MCP_ATTRACT_COLORS EQU $0e55
DATA_TO_101A_USED_AT_0F86? EQU $1001
PLEASE_S EQU $101b
ENTER_S EQU $1022
YOUR_S EQU $1028
INITIALS_S EQU $102d
ERASE_S EQU $1036
END_S EQU $103c
ERASE2_S EQU $10ed
END2_S EQU $10f5
YOUR_SCORE_S EQU $120c
RANKING_IS_S EQU $1217
NOT_IN_THE_TOP_S EQU $1222
100_SCORES_S EQU $1231
DATA_FOR_???_TO_133E EQU $132d
DATA_FOR_???_TO_14FF EQU $13f7
PICK_WHICH_INSTRUCTIONS_TO_PRINT EQU $1500
SUBROUTINE_THAT_DOES_WHAT? EQU $1538
DISPLAY_RANKINGS_SCREEN EQU $1558
RANKINGS_S EQU $1653
DISPLAY_POINT_VALUES_SCREEN EQU $165c
POINT_VALUES_S EQU $16ab
DATA_FOR_???_TO_16D6 EQU $16b8
TANKS______500_S EQU $16e7
GRID_BUGS___50_S EQU $16f6
CYCLES_____500_S EQU $1705
MCP_BLOCKS__25_S EQU $1714
BIT_______5000_S EQU $1723
PUT_STRINGS_IN_MSG_Q_DEST=IX+0_SRC=IX+2_END_WHEN_SRC=0000 EQU $1732
DISPLAY_MAP_OF_GAME_GRID_SCREENS EQU $1755
MAP_OF_GAME_GRID_S EQU $17ba
PLAYER____DOT_S EQU $17cb
JOYSTICK__MOVES_DOT_S EQU $17d9
TRIGGER___NOT_USED_S EQU $17ed
KNOB______NOT_USED_S EQU $1800
TRON_CONSISTS_OF_4_GAMES_S EQU $1813
EACH_COLORED_AREA_S EQU $182c
REPRESENTS_A_GAME_S EQU $183e
SELECT_AN_AREA_BY_MOVING_S EQU $1850
TO_THE_OUTSIDE_EDGE_OF_THE_S EQU $1869
CIRCLE_BEFORE_THE_TIMER_S EQU $1884
INSIDE_THE_CENTER_OF_THE_S EQU $189c
CIRCLE_EXPIRES_S EQU $18b5
UPON_SUCCESSFUL_COMPLETION_S EQU $18c4
OF_A_GAME_IN_AN_AREA_THE_S EQU $18df
AREA_CAN_NOT_BE_REENTERED_S EQU $18f8
UNTIL_ALL_AREAS_HAVE_BEEN_S EQU $1912
CONQUERED_S EQU $192c
DISPLAY_TANK_GAME_SCREEN EQU $1936
DATA_3? EQU $193d
TANK_GAME_S EQU $1971
PLAYER____RED_TANK_S EQU $197b
JOYSTICK__MOVES_TANK_S EQU $198e
TRIGGER___FIRES_DISK3_S EQU $19a3
KNOB______AIMS_DISK_S EQU $19b8
DESTROY_ALL_ENEMY_TANKS_S EQU $19cc
EACH_ENEMY_MUST_BE_S EQU $19e4
HIT_3_TIMES_TO_BE_S EQU $19f7
DESTROYED_S EQU $1a09
1ST_HIT___100_POINTS_S EQU $1a13
2ND_HIT___300_POINTS_S EQU $1a28
3RD_HIT___500_POINTS_S EQU $1a3d
DISPLAY_CYCLE_GAME_SCREEN EQU $1a52
CYCLE_GAME_S EQU $1a89
PLAYER____BLUE_CYCLE_S EQU $1a94
JOYSTICK__MOVES_CYCLE_S EQU $1aa9
TRIGGER___SPEED_CONTROL_S EQU $1abf
KNOB______NOT_USED2_S EQU $1ad7
TOUCHING_A_WALL_OR_LIGHT_S EQU $1aea
TRACE_DESTROYS_A_CYCLE_S EQU $1b03
MAKE_LIGHT_PATHS_S EQU $1b1a
WHICH_FORCE_THE_YELLOW_S EQU $1b2b
CYCLES_INTO_THE_WALLS_AND_S EQU $1b42
LIGHT_TRACES_S EQU $1b5c
DISPLAY_IO_TOWER_GAME_SCREENS EQU $1b69
IO_TOWER_GAME_S EQU $1bc2
PLAYER___TRON_S EQU $1bd0
JOYSTICK__MOVES_TRON_S EQU $1bde
TRIGGER___FIRES_DISK_S EQU $1bf3
KNOB______AIMS_DISK2_S EQU $1c08
ENTER_THE_IO_TOWER_S EQU $1c1c
BEFORE_THE_TIMER_S EQU $1c2f
EXPIRES_S EQU $1c40
TOUCHING_A_GRID_BUG_S EQU $1c48
RESULTS_IN_TRON_S EQU $1c5c
DEREZ_S EQU $1c6c
THE_TIMER_VALUE_IS_S EQU $1c72
AWARDED_AS_A_BONUS_S EQU $1c85
WHEN_THE_PLAYER_S EQU $1c98
ENTERS_THE_TOWER_S EQU $1ca8
DISPLAY_MCP_GAME_SCREENS EQU $1cb9
MCP_GAME_S EQU $1d0e
PLAYER____TRON_S EQU $1d17
JOYSTICK__MOVES_TRON2_S EQU $1d26
TRIGGER___FIRES_DISK2_S EQU $1d3b
KNOB______AIMS_DISK3_S EQU $1d50
ENTER_THE_MASTER_CONTROL_S EQU $1d64
PROGRAM_CONE_WITHOUT_S EQU $1d7d
TOUCHING_A_BLOCK_S EQU $1d92
REMOVE_BLOCKS_BY_STRIKING_S EQU $1da3
WITH_THE_DISK_S EQU $1dbd
1000_BONUS_FOR_ENTERING_S EQU $1dcb
THE_CONE_S EQU $1de3
1000_BONUS_FOR_DESTROYING_S EQU $1dec
ALL_BLOCKS_S EQU $1e06
GS_DO_? EQU $1f00
GS_NO_DIRECTION_CHOSEN_YET EQU $1f0f
GS_DIRECTION_CHOSEN EQU $1f4d
GS_TIMER_EXPIRED_AUTO_SELECT_GAME_DURL EQU $1f1f
START_GAME EQU $1f97
DRAW_GAME_SELECT_SCREEN? EQU $1fd1
VECTOR_OF_DIFFICULTY_TO_HARDNESS_MAPS_(STARTS_AT_20A7) EQU $20a5
INITIALIZE_LEVEL? EQU $2115
DRAW_SPRITES_FOR_GAME_SELECTION_SCREEN EQU $2207
BACKGROUND_PICK_A_GAME EQU $234a
GS_COLOR_PALETTE EQU $2aca
DATA_TO_2C4C?_USED_STARTING_AT_6F68 EQU $2c48
1000_BONUS_ALL_BLOCKS_HIT_S EQU $2c4d
1000_FOR_ENTERING_CONE_S EQU $2c67
MCP_INSTRUCTIONS EQU $2c7e
DATA_FOR_???_TO_2CF7 EQU $2cee
TRY_TO_ENTER_S EQU $2cf8
THE_MCP_CONE_S EQU $2d05
PLAY_MCP EQU $2d12
MCP_ROTATE_RIGHT EQU $31b0
MCP_ROTATE_LEFT EQU $31c8
MCP_PROCESS_DISK_POSITION(S)? EQU $3025
MCP_DISK_END_FLIGHT EQU $317e
MCP_DRAW_CONE EQU $3308
MCP_DRAW_WALLS EQU $3331
MCP_HIDE_SPRITES_33_AND_34 EQU $3363
MCP_DRAW_BLOCKS EQU $337b
MCP_HIDE_SPRITE_GOING_OFF_BOTTOM_OF_SCREEN EQU $33af
DATA_FOR_???_TO_3485 EQU $3481
MCP_PROCESS_HIT_BLOCK EQU $352a
MCP_BLOCK_HIT_AUDIO EQU $354f
MCP_BLOCK_DATA_TO_PROCESS_HIT EQU $3554
MCP_BLOCKS_DATA_TO_35B2 EQU $3559
MCP_CONE_RELATIVEX_RELATIVEY_SPRITE_NUMBER_TO_35D9 EQU $35b3
_???_ EQU $35da
MCP_COLOR_PALETTE_ALL_ZEROS EQU $3926
DATA_FOR_MCP_SETUP_TO_398D EQU $3966
PLAY_TANKS EQU $3a00
TANKS_INSTRUCTIONS EQU $3cdf
DESTROY_ALL_S EQU $3d35
ENEMY_TANKS_S EQU $3d41
TANK_JOYSTICK_INPUT_TABLE? EQU $3d4d
TANK_PROCESS_CONTROLS_INPUT EQU $3db5
TANKS_DATA_FOR_x_STARTS_AT_4066 EQU $4063
TANK_UPDATE_POSITION_AND_PIC_OF_TANK_FROM_C000_TO_C002 EQU $40d0
TANK_UPDATE_POSITION EQU $40ea
TANK_WARP EQU $40fc
TANK_DATA_FOR_? EQU $4145
TANK_PROCESS_ENEMY_TANKS_ON_STARTUP_SOMEHOW?_USES_IX EQU $4414
DATA_USED_FOR_???_TO_45FE EQU $45ed
TANKS_DATA_FOR_x_STARTS_AT_46FF EQU $46fb
TANK_POSITION_THE_ONE_AT_IX EQU $47e2
COPY_X_00_Y_FROM_SPRITE_RAM_AT_IY_TO_HL_PLUS_MORE? EQU $47a7
DATA_TO_49C7_USED_AT_49C8 EQU $4884
TANK_TURRET_DRAW EQU $49c8
TANK_BULLET?_DRAW_USES_IY EQU $4b70
TANK_DATA_FOR?_USED_AT_4BBB EQU $4b8d
TANK_SET_BULLET_X_AND_?_OFFSCREEN_CALL_UPDATE_POSITION? EQU $4bfd
TANK_DATA_FOR?_STARTS_AT_4CFF EQU $4cfb
TANK_PROCESS_?_USING_DATA_4CFF_AND_THE_DATA_VECTORS_IN_THERE EQU $4d77
TANK_SET_UP_DATA EQU $4f7e
PLAY_LC EQU $5000
LC_INSTRUCTIONS EQU $5103
LC_INSTRUCTION_STRINGS_SOURCE_AND_DESTINATION_DATA EQU $5151
AVOID_HITTING_S EQU $5167
LIGHT_TRACES2_S EQU $5175
AND_WALLS_S EQU $5182
USE_TRIGGER_FOR_S EQU $518c
SPEED_CONTROL_S EQU $519c
LC_SET_UP_USER_AND_ENEMIES_C1E0_TO_C230? EQU $523b
DATA_USED_FOR_???_TO_5550 EQU $554c
LC_ERASE_TRAIL_OF_DESTROYED_LC EQU $5551
LC_DEPENDING_ON_USER_SPRITE_COPY_AND_INC/DEC_BETWEEN_C1F5_AND_C1FD EQU $558d
LC_SET_UP_BOUNDARIES_IN_RAM_DATA_STRUCTURE_FROM_C000_TO_C1DF EQU $56f4
LC_DATA_FOR_TRIGGER_PULLED_AND_UP_DOWN_VS_LEFT_RIGHT EQU $57ef
LC_INC_C20E_IF_08_SET_TO_00 EQU $598a
LC_(HL-F800)/2_RETURN_HOW_MANY_0x20s_IN_A EQU $5995
LC_DRAW_A_TRAIL? EQU $59e5
LC_DRAW_D_INTO_LC_RAM_DATA_STRUCTURE EQU $5a1a
LC_MULTIPLE_CYCLES_DO_SOMETHING? EQU $5ac9
LC_DATA_STRUCTURE_TO_SETUP_LIGHT_CYCLES EQU $5c1b
PLAY_IO_TOWER EQU $5d00
IO_TOWER_INSTRUCTIONS EQU $5e36
IO_TOWER_STRING_DESTINATION_AND_SOURCE_LOCATIONS_00 EQU $5e7e
ENTER_FLASHING_S EQU $5e8c
CIRCLE_BEFORE_S EQU $5e9b
TIMER_EXPIRES_S EQU $5ea9
IO_TOWER_COLOR_PALETTE EQU $5eb7
CONVERT_IO_TOWER_TIMER_TO_PRINTABLE_AND_? EQU $5f23
HANDLE_JOYSTICK_INPUT?_TO_601F EQU $5f73
INITIALIZE_TRON_SPRITE_FOR_MCP_AND_IO_TOWER EQU $6065
MOVE_SPIDERS? EQU $6127
IO_OR_MCP?_SET_TRON_INITIAL_POSITION_AND_ROTATION EQU $621d
DATA_USED_FOR_???_TO_62F1 EQU $62ed
DATA_USED_FOR_???_TO_66D1 EQU $66ae
DATA_USED_FOR_???_TO_6776 EQU $6772
DATA_TO_?_USED_AT_5D19 EQU $68c6
JOYSTICK_INPUT_TABLE EQU $6b39
DATA_FOR_SETTING_UP_TRON_SPRITES? EQU $6b79
ADD_A_TO_HL_WITH_CARRY EQU $6f00
PSEUDO_RANDOM_VALUE_IN_A_AND_C47A EQU $6f05
RESET_WATCHDOG_UNTIL_C400_IS_ONE EQU $6f17
COPY_10_FROM_HL_TO_FFC0 EQU $6f2d
COPY_20_FROM_HL_TO_FF80 EQU $6f35
PROCESS_HIT_ON_TANK_SPIDER_MCP_BLOCK_OR_LC EQU $6f52
PUT_C_ON_STACK_TO_SEND_TO_AUDIO EQU $6fb8
CLEAR_BACKGROUND EQU $6fc7
SET_C40D_TO_FDD0_AND_ADD_A_MESSAGE_TO_Q EQU $6fee
INCREASE_C40D_BY_4_AND_ADD_A_MESSAGE_TO_Q EQU $6ff4
ADD_A_MESSAGE_TO_Q EQU $6fff
ZERO_RAM_C000-C418 EQU $7020
ZERO_RAM_C000-C450 EQU $7026
ZERO_RAM_C000-C479 EQU $7029
BACKGROUND_RAM_FILL_FROM_HL_0780_BYTES_TO_F800 EQU $7035
INITIALIZE_SPRITES EQU $7049
ADD_MESSAGE_TO_Q EQU $705d
ADD_MESSAGE_TO_Q2 EQU $707e
PROCESS_GAME_SELECT_COUNTDOWN_TIMER EQU $709f
PUT_GAME_SELECT_COUNTDOWN_DIGIT_MESSAGE_IN_Q2 EQU $70ac
GAME_SELECT_COUNTDOWN_DIGITS EQU $70cd
ADJUST_SPRITE_X_IF_FLIPPED_SCREEN EQU $7159
ADJUST_SPRITE_Y_IF_FLIPPED_SCREEN EQU $7165
BACKGROUND_TANK_GAME EQU $7200
TANK_COLOR_PALETTE EQU $7980
COLOR_PALETTE_FOR_2? EQU $79a0
IO_COLOR_PALETTE EQU $79c0
BACKGROUND_IO_TOWER_GAME EQU $7a00
BACKGROUND_IO_TOWER_AFTER_ENTERING_BEAM EQU $8180
BACKGROUND_LC EQU $8900
LC_COLOR_PALETTE EQU $9080
COLOR_PALETTE_FOR_5? EQU $90c0
BACKGROUND_TRAINING_FOR_LC EQU $9100
DATA_TO_?_USED_AT_6954 EQU $9884
GET_TRIGGER_INPUT_FOR_SERVICE_MENU EQU $998c
?_DATA_USED_FOR_?1 EQU $9bd8
SOUND_TEST_STRINGS_VECTORSET_DESTINATION_AND_SOURCE_30X EQU $9c14
?_DATA_USED_FOR_?0 EQU $9a11
TEST_STRINGS_VECTORSET_DESTINATION_AND_SOURCE_12X EQU $9a2e
SELECT_DESIRED_TEST_S EQU $9a60
1_SELF_DIAGNOSTICS_S EQU $9a74
2_SOUNDS_S EQU $9a87
3_PLAYER_INPUT_S EQU $9a90
4_BOOKKEEPING_S EQU $9a9f
5_MACHINE_SETUP_S EQU $9aad
6_CHANNEL_TEST_S EQU $9abd
7_PRESET_S EQU $9acc
8_GRID_DISPLAY_S EQU $9ad5
POSITION_CURSOR_BY_USING_S EQU $9ae4
JOYSTICK_UP_AND_DOWN_S EQU $9afd
HIT_FIRE_BUTTON_FOR_TEST_S EQU $9b12
SELECT_A_SOUND_S EQU $9c8e
1__ALL_SOUNDS_S EQU $9c9d
2__EXIT_S EQU $9cab
3__THROW_DISK_S EQU $9cb3
4__HI_GEAR_HORZ_S EQU $9cc1
5__LOW_GEAR_HORZ_S EQU $9cd1
6__HI_GEAR_VERT_S EQU $9ce2
7__LOW_GEAR_VERT_S EQU $9cf2
8__MISSILE_FIRE_S EQU $9d03
9__BONUS_BASE_S EQU $9d13
10__TILT_S EQU $9d21
11__ALL_MCP_BLOCKS_HIT_S EQU $9d2a
12__IO_TOWER_MUSIC_S EQU $9d41
13__COIN_S EQU $9d54
14__SUCCESS_MUSIC_S EQU $9d5d
15__FAIL_MUSIC_S EQU $9d6f
16__ATTACK_SOUND_S EQU $9d7e
17__TANK_HORZ_S EQU $9d8f
18__TANK_VERT_S EQU $9d9d
19__TANK_FIRE_S EQU $9dab
20__TANK_BLIP_S EQU $9db9
21__DEREZ_S EQU $9dc7
22__MCP_BLIP_S EQU $9dd1
23__RELOCATE_S EQU $9dde
24__TTY_CLATTER_S EQU $9deb
25__TOWER_BEAM_S EQU $9dfb
26__TIMER_WARNING_S EQU $9e0a
SELECT_A_REPORT_OR_EXIT_S EQU $9f28
CHUTE__1_COINS_S EQU $9f40
CHUTE__2_COINS_S EQU $9f4f
LONGEST_GAME_S EQU $9f5e
SHORTEST_GAME_S EQU $9f6b
HIGHEST_SCORE_S EQU $9f79
LOWEST_SCORE_S EQU $9f87
BUY_IN_S EQU $9f94
TIME_REPORT_S EQU $9f9b
SCORE_REPORT_S EQU $9fa7
EXIT_S EQU $9fb4
TIME_REPORT2_S EQU $a152
0_TO_30_SEC_S EQU $a15e
30_TO_60_SEC_S EQU $a16a
60_TO_90_SEC_S EQU $a177
90_TO_120_SEC_S EQU $a184
120_TO_150_SEC_S EQU $a192
150_TO_180_SEC_S EQU $a1a1
3_TO_4_MIN_S EQU $a1b0
4_TO_5_MIN_S EQU $a1bb
5_TO_6_MIN_S EQU $a1c6
OVER_6_MIN_S EQU $a1d1
HIT_FIRE_BUTTON_TO_EXIT_S EQU $a1dc
SCORE_REPORT2_S EQU $a28b
0_TO_5000_PTS_S EQU $a298
5000_TO_10000_PTS_S EQU $a2a6
10000_TO_20000_PTS_S EQU $a2b8
20000_TO_30000_PTS_S EQU $a2cb
30000_TO_40000_PTS_S EQU $a2de
40000_TO_50000_PTS_S EQU $a2f1
50000_TO_75000_PTS_S EQU $a304
75000_TO_100000_PTS_S EQU $a317
100000_TO_150000_PTS_S EQU $a32b
OVER_150000_PTS_S EQU $a340
CHANNEL_TEST_S EQU $a3e3
CHANNEL_1_S EQU $a3f0
CHANNEL_2_S EQU $a3fa
CHANNEL_3_S EQU $a404
CHANNEL_4_S EQU $a40e
CHANNEL_5_S EQU $a418
CHANNEL_6_S EQU $a422
PLAYER_INPUTS_S EQU $a462
ACTIVATE_ALL_PLAYER_INPUT_S EQU $a470
SWITCHES_AND_DEVICES_S EQU $a48a
HIT_TILT_TO_EXIT_S EQU $a49f
COIN_CHUTE_1_S EQU $a5f9
COIN_CHUTE_2_S EQU $a608
SERVICE_BUTTON_S EQU $a617
1_PLAYER_S EQU $a628
2_PLAYER_S EQU $a633
PL1_FIRE_S EQU $a63e
PL1_RIGHT_S EQU $a649
PL1_LEFT_S EQU $a655
PL1_UP_S EQU $a660
PL1_DOWN_S EQU $a669
BUY_IN_ALLOWED_S EQU $a674
NO_BUY_IN_S EQU $a683
ROTATE_VALUE_PL_1_S EQU $a694
ROTATE_VALUE_PL_2_S EQU $a6a8
EMPTY_S EQU $a6ba
MINI_UPRIGHT_S EQU $a6cd
COCKTAIL_S EQU $a6da
2_COIN_METERS_S EQU $a6e9
1_COIN_METER_S EQU $a6f7
PL2_FIRE_S EQU $a707
PL2_RIGHT_S EQU $a712
PL2_LEFT_S EQU $a71e
PL2_UP_S EQU $a729
PL2_DOWN_S EQU $a732
SETUP_OPTIONS_S EQU $a8bd
COIN_CHUTE_12_S EQU $a8cb
COINS_FOR_S EQU $a8d8
CREDITS2_S EQU $a8e2
COIN_CHUTE_22_S EQU $a8ea
CREDITS_FOR_S EQU $a8f7
BASES_S EQU $a903
1ST_EXTRA_BASE_AT_S EQU $a909
000_POINTS_S EQU $a91b
EXIT2_S EQU $a926
USE_JOYSTICK_UP_AND_S EQU $a92b
DOWN_TO_POSITION_CURSOR_S EQU $a93f
USE_1_AND_2_PLAYER_S EQU $a957
BUTTONS_TO_ALTER_S EQU $a96a
OPTIONS_S EQU $a97b
DIFFICULTY_LEVEL_S EQU $a983
HIT_FIRE_BUTTON_S EQU $aab2
TO_CONTINUE_S EQU $aac2
HIT_FIRE_BUTTON2_S EQU $aace
TO_EXIT_S EQU $aade
DATA_USED_TO_DISPLAY_RAM_ERROR(S) EQU $ab1d
RAM_ERROR_S EQU $ab27
B2_S EQU $ab31
F6_S EQU $ab35
Print ROM error(s) EQU $aca2
DATA_USED_TO_TEST_RAM EQU $ac70
DATA_USED_TO_TEST_ROM EQU $ad15
DATA_USED_TO_DISPLAY_ROM_ERROR(S) EQU $ad3c
ROM_ERROR_S EQU $ad4e
D2_S EQU $ad58
D3_S EQU $ad5c
D4_S EQU $ad60
D5_S EQU $ad64
D6_S EQU $ad68
D7_S EQU $ad6c
PRINT_A_NULL_TERMINATED_ASCII_STRING_FROM_BC_TO_HL EQU $ad70
INTERFACE_ERROR_S EQU $ae2e
BOARD_TIMEOUT_S EQU $ae3e
SOUND_BOARD_S EQU $ae4c
A7_S EQU $ae68
A8_S EQU $ae6c
A9_S EQU $ae70
A10_S EQU $ae74
A6_S EQU $ae79
DRAW_WHITE_AND_BLACK_CROSSHATCH_PATTERN EQU $ae7c
DATA_TO_DRAW_WHITE_AND_BLACK_CROSSHATCH_PATTERN EQU $ae95
1ST_S EQU $b000
2ND_S EQU $b004
PLAYER_1_UP_S EQU $b008
PLAYER_2_UP_S EQU $b014
PLAYER_1_S EQU $b020
EMPTY2_S EQU $b029
HISCORE_S EQU $b02d
TO_START_GAME_S EQU $b035
TO_CONTINUE_GAME_S EQU $b043
PUSH_1_PLAYER_S EQU $b054
OR_DEPOSIT_S EQU $b062
INSERT_1_COIN_S EQU $b06d
MORE_COINS_FOR_S EQU $b07b
MORE_COINS_S EQU $b08a
CREDITS_PER_PLAYER_S EQU $b095
OR_PUSH_S EQU $b0a9
2_PLAYERS_S EQU $b0b1
GAME_OVER_S EQU $b0bb
EMPTY3_S EQU $b0c5
BONUS_BASES_AWARDED_S EQU $b0cf
AT_10000_POINTS_S EQU $b0e3
PRESS_FIRE_BUTTON_S EQU $b0f3
FOR_DIRECTIONS_S EQU $b105
PLAYER_12_S EQU $b114
PLAYER_2_S EQU $b11d
VECTOR_OF_USER_LEVEL_STRINGS EQU $b126
RPG_S EQU $b13e
COBOL_S EQU $b142
BASIC_S EQU $b148
FORTRAN_S EQU $b14e
SNOBOL_S EQU $b156
PL1_S EQU $b15d
PASCAL_S EQU $b161
ALGOL_S EQU $b168
ASSEMBLY_S EQU $b16e
OS_S EQU $b177
JCL_S EQU $b17a
USER_S EQU $b17e
CPU_RAM_OR_GS_DISK_X_TANK_X_OR_MCP_TRON_LEGS-LC_TRAILS_TO_C1DF EQU $c000
TANK_PIC_OR_MCP_ROWS_OF_BLOCKS EQU $c001
TANK_Y_OR_GS_DISK_Y EQU $c002
MCP_TRON_X_TANKS_DATA_VECTOR_x_1 EQU $c007
MCP_TRON_Y_TANKS_DATA_VECTOR_x_2 EQU $c009
IO_TOWER_TIMER_VALUE_REVERSED_TO_C010 EQU $c00d
INFINITE_TIME_CHEAT EQU $c00e
TANKS_DISKS?/BULLETS?_IN_RAM_STARTS_AT_C020 EQU $c010
MCP_DISK_1_DATA/IO_TOWER_TIMER_DIGITS_TO_C019 EQU $c012
MCP_DISK_2_DATA EQU $c01c
MCP_DISK_3_DATA EQU $c026
MCP_DISK_4_DATA EQU $c030
IO_TOWER_INCREMENTS_19_TO_1E_FOR_EACH_DISK_THROWN EQU $c022
IO_TOWER_TRIGGER_DEBOUNCE? EQU $c023
IO_TOWER_ALWAYS_80? EQU $c024
IO_TRON_X EQU $c026
IO_TRON_Y EQU $c028
JOYSTICK_INPUT_ARRAY_TO_C02C EQU $c029
MCP_DATA_TO_C0D9? EQU $c03a
INFO_FOR_TANK_GAME_SEE_3ABF_TO_C05A_FOR_A_SINGLE_TANK EQU $c051
MCP_POSITION_OF_BLOCKS_0_TO_F EQU $c062
MCP_TOWER_Y EQU $c0dc
MCP_TOWER_X EQU $c0dd
MCP_BLOCKS_REMAINING_COUNT EQU $c0e3
MCP_ROTATION_SPEED_LOWER_IS_FASTER EQU $c0e5
MCP_BLOCKS_PER_ROW EQU $c0e6
MCP_Y_SPEED_LOWER_IS_SLOWER EQU $c0e7
MCP_DIRECTION_0_IS_RIGHT EQU $c0e9
TANKS_ENEMY_BULLETS_IN_RAM_AT_C111? EQU $c108
TANKS_NUMBER_OF_ENEMIES EQU $c14a
TANKS_NUMBER_OF_ENEMY_BULLETS? EQU $c159
TANKS_SHOT_SPEED EQU $c15b
TANK_IF_HARDNESS>0X0B_SEE_COMMENT_AT_3A79 EQU $c15f
LC_USER_TRAIL_POSITION_VECTOR EQU $c1e0
LC_ENEMY_1_TRAIL_POSITION_VECTOR EQU $c1e2
LC_ENEMY_2_TRAIL_POSITION_VECTOR EQU $c1e4
LC_ENEMY_3_TRAIL_POSITION_VECTOR EQU $c1e6
LC_WHICH_LC_TO_DESTROY EQU $c1e9
LC_ENEMY_1_SPRITE EQU $c1ea
LC_ENEMY_2_SPRITE EQU $c1eb
LC_ENEMY_3_SPRITE EQU $c1ec
LC_USER_SPRITE EQU $c1ed
LC_ENEMY_1_?1 EQU $c1f7
LC_ENEMY_2_?1 EQU $c1f8
LC_ENEMY_3_?1 EQU $c1f9
LC_ENEMY_1_?2 EQU $c1fa
LC_ENEMY_2_?2 EQU $c1fb
LC_ENEMY_3_?2 EQU $c1fc
LC_USER_?1 EQU $c1fd
LC_USER_?2 EQU $c1fe
LC_ENEMY_1_X EQU $c200
LC_ENEMY_2_X EQU $c201
LC_ENEMY_3_X EQU $c202
LC_USER_X EQU $c203
LC_ENEMY_1_Y EQU $c204
LC_ENEMY_2_Y EQU $c205
LC_ENEMY_3_Y EQU $c206
LC_USER_Y EQU $c207
LC_TRIGGER_PULLED_AND_UP_DOWN_VS_LEFT_RIGHT EQU $c209
LC_ENEMY_NUMBER_2_BYTES EQU $c20b
LC_TRIGGER_STATE_0_IS_PULLED EQU $c20d
LC_ENEMIES_STILL_ALIVE_BITS_0_1_2 EQU $c210
LC_SETUP2? EQU $c223
LC_SETUP3? EQU $c224
LC_SETUP4? EQU $c225
LC_SETUP5? EQU $c226
LC_SETUP6? EQU $c227
COUNTDOWN_TIMER_SECONDS EQU $c402
COUNTDOWN_TIMER_FRAMES EQU $c403
TANK_SPINNER_LAST_INPUT EQU $c404
MCP_TRON_ARM_OR_TANK_TURRET_ROTATION EQU $c405
ATTRACT_MCP_ROTATE_COLORS_IF_NON_ZERO EQU $c40f
MCP_BLOCKS_COLORS_STARTPOINT_VECTOR_INTO_0E55 EQU $c410
MCP_DISK_NUMBER_BEING_PROCESSED EQU $c406
MCP_SPRITE_BLOCK_HIT_BY_DISK EQU $c409
MCP_RAM_DATA_OF_BLOCK_HIT_BY_DISK EQU $c40b
HARDNESS_(OR_USER_LEVEL/CURRENT_PLAYER_DATA?) EQU $c419
PLAYING_HOW_LONG_NOW_TO_C41C EQU $c41a
CURRENT_PLAYER_DATA_BYTE_02 EQU $c41b
CURRENT_PLAYER_DATA_BYTE_03 EQU $c41c
REMAINING_DISKS_AT_A_TIME EQU $c41d
MAX_DISKS_AT_A_TIME EQU $c41e
LIVES_REMAINING EQU $c41f
CURRENT_PLAYER_DATA_BYTE_07 EQU $c420
CURRENT_PLAYER_DATA_BYTE_08 EQU $c421
USER_LEVEL EQU $c422
COMPLETED_GAMES_XXXXDURL EQU $c423
DIRECTION_CHOSEN_8D4U2R1L EQU $c424
ATTEMPTED_GAMES_XXXXDURL EQU $c425
VECTOR_OF_GAMES_TO_C42D EQU $c426
NUMBER_OF_ROUNDS_WHEN_WRAPS_AROUND_DISKS_MAY_GO_TO_1??? EQU $c42e
OTHER_PLAYER_DATA EQU $c42f
GS_DIRECTION:1=DOWN,2=?,3=?,5=?,OTHER=? EQU $c45b
PLAYER_NUMBER EQU $c45f
WHICH_INSTRUCTIONS_TO_DISPLAY?_VECTOR_LIST_AT_1527? EQU $c461
NUMBER_OF_SCREEN_MESSAGES_FROM_C4D6 EQU $c466
NUMBER_OF_SCREEN_MESSAGES_2_FROM_C4BE EQU $c467
ONLY_GET_UPDATED_WHEN_INTERRUPTS_ARE_DISABLED1! EQU $c469
ONLY_GET_UPDATED_WHEN_INTERRUPTS_ARE_DISABLED2! EQU $c46b
LEFT_COIN EQU $c473
RIGHT_COIN EQU $c474
PSEUDO_RANDOM_VALUE_LAST_GENERATED EQU $c47a
IN_ATTRACT_MODE? EQU $c47b
NEXT_SLOT_IN_SCREEN_MESSAGE_QUEUE_2 EQU $c47c
ONLY_GET_UPDATED_WHEN_INTERRUPTS_ARE_DISABLED3! EQU $c48e
SCREEN_DESTINATION? EQU $c4b8
SOURCE? EQU $c4ba
SCREEN_MESSAGE_QUEUE_2_TO_C4D5 EQU $c4be
SCREEN_MESSAGE_QUEUE_TO_CD60? EQU $c4d6
SCREEN_MESSAGE_QUEUE EQU $c4d8
?_AND_HIGH_SCORE_INITIALS_AND_?_TO_C549 EQU $c4f0
DIFFICULTY_LEVEL EQU $c4f6
HIGH_SCORES_DIGITS EQU $c4f7
CREDITS EQU $c501
HIGH_SCORES_INITIALS_AND_LEVEL EQU $c504
HIGH_SCORES_DIGITS_3BYTES_BCD EQU $c52c
FLIP_SCREEN_IF_VALUE_IS_01 EQU $c687
NVRAM EQU $c000
SPRITE_RAM EQU $f000
TANK_BODY_OR_LC_OR_IO_OR_MCP_TRON_AND_DISK_TORSO_LEGS_LEFT_DISK_RIGHT EQU $f004
TANK_TURRET_OR_LC_ENEMIES EQU $f008
TANK_DISKS_F00C_TO_F01B(SPRITES_3_TO_6) EQU $f00c
IO_OR_MCP_OR_TANK_DISKS_1_TO_4 EQU $f018
IO_OR_MCP_OR_TANK_DISKS_2 EQU $f01c
IO_OR_MCP_OR_TANK_DISKS_3 EQU $f020
IO_OR_MCP_OR_TANK_DISKS_4 EQU $f024
MCP_BLOCKS_TOP_LEFT_MOVING_DOWN_AND_WRAP_TO_TOP_RIGHT_TO_F09F EQU $f028
TANK_ENEMIES EQU $f02c
IO_GRID_BUGS EQU $f030
TANK_ENEMY_BULLETS EQU $f044
TANK_HITS_ON_ENEMIES EQU $f060
MCP_TOWER_TO_F133 EQU $f0a0
BACKGROUND_VIDEO_RAM_TO_FF7F EQU $f800
COLOR_RAM_TO_FFFF EQU $ff80

ORG $0000

*** Dissasembly of the Tron 8/9 ROMs used by MAME (labelled as tron)
0000: C3 00 01       JP    $0100          ;Z80 starts executing code at 0x0000


*** Data used where for what?
0003: 34 19 85 0A 0E 

*** Vectors for CTC interrupt channels 0, 1, 2 (not used), and 3
0008: 22 02 
000a: 34 02 
000c: 10 00 
000e: CB 01 

0010: 18 FE 24 70 3B E4 D8 1B 87 C5 35 96 C7 E1 69 60 
0020: 45 0D 04 04 06 05 E1 79 46 01 1D A5 66 07 6F 41 
0030: 05 45 A7 39 2C C6 40 84 65 8F 35 EA 2C C1 B4 2D 
0040: F6 6E FF EA 78 FF 8D DE FE 61 CE AB DD 73 72 F3 
0050: BF 45 0B 27 F3 E8 BB 8C 30 FA 2B A9 60 B5 91 D9 
0060: AF 64 3F CB 79 AA 3E 07 D3 E8 76 

COPYRIGHT_1982_BALLY_MIDWAY_MFG_CO_S:
006b: COPYRIGHT 1982 BALLY MIDWAY MFG 
008b: CO


*** Data used where for what?
008d: 08 C4 0C 29 85 39 22 29 09 B1 58 80 07 22 E4 86 
009d: 0D C0 57 04 11 3B 25 D5 45 06 05 84 A9 FB 16 14 
00ad: 00 2C 57 29 01 18 55 50 40 44 18 80 50 CC 1D 62 
00bd: 3C C6 E8 76 36 FE FC CE A6 1D 6F DD FA 58 8F F3 
00cd: FD DE EB F2 BC 3B 8F FA F0 D7 BB F6 2A 85 EF FC 
00dd: F1 0E 9C 9E 23 6F EF C6 73 44 98 4E 6A 13 5A F8 
00ed: 3E 9B 0F E6 78 0F 8B F1 4F 9E 1B 75 FF 1F F2 DA 
00fd: 79 EA 6A 


*** Initialize arcade machine
0100: F3             DI                   ;Disable interrupts
                                          ;Wait for a little bit (50 loop iterations)
0101: 21 32 00       LD    HL,$0032
0104: 2B             DEC   HL
0105: 7C             LD    A,H
0106: B5             OR    A,L
0107: 20 FB          JR    NZ,$0104

0109: D3 E0          OUT   (IO_WATCHDOG_RESET),A
010b: AF             XOR   A,A
010c: D3 00          OUT   (IO_0),A

*** Write 20 bytes to an unknown location
010e: 3E 02          LD    A,#$02
0110: D3 E8          OUT   (IO_UNKNOWN_WRITTEN_AT_INITIALIZATION),A
0112: 06 09          LD    B,#$09
0114: AF             XOR   A,A
0115: D3 E8          OUT   (IO_UNKNOWN_WRITTEN_AT_INITIALIZATION),A
0117: 3C             INC   A
0118: D3 E8          OUT   (IO_UNKNOWN_WRITTEN_AT_INITIALIZATION),A
011a: 10 F8          DJNZ  $0114

011c: 3E 05          LD    A,#$05
011e: D3 E8          OUT   (IO_UNKNOWN_WRITTEN_AT_INITIALIZATION),A
0120: 31 FE C7       LD    SP,$C7FE       ;Set stack pointer
0123: CD 15 AF       CALL  $AF15
0126: CD E6 AA       CALL  $AAE6
0129: 28 04          JR    Z,$012F

012b: D3 E0          OUT   (IO_WATCHDOG_RESET),A
012d: 18 FC          JR    $012B

012f: CD 1C 04       CALL  CHECK_DATA_C4F0_TO_C657?
0132: ED 5E          IM    2              ;Set interrupt mode to 2 (external - from CTC)
0134: 21 7A C4       LD    HL,PSEUDO_RANDOM_VALUE_LAST_GENERATED
0137: CD 29 70       CALL  ZERO_RAM_C000-C479
013a: 3E 55          LD    A,#$55
013c: 32 7A C4       LD    (PSEUDO_RANDOM_VALUE_LAST_GENERATED),A
013f: 3E 01          LD    A,#$01
0141: 21 AB 01       LD    HL,COLOR_PALETTE_FOR_6_10_BYTES_TO_01BA?
0144: CD 2D 6F       CALL  COPY_10_FROM_HL_TO_FFC0
0147: 32 60 C4       LD    ($C460),A
014a: 3E 01          LD    A,#$01
014c: 32 77 C4       LD    ($C477),A
014f: 3E 02          LD    A,#$02
0151: 32 78 C4       LD    ($C478),A
0154: 3E 40          LD    A,#$40
0156: 32 79 C4       LD    ($C479),A
0159: 21 D8 C4       LD    HL,SCREEN_MESSAGE_QUEUE
015c: 22 D6 C4       LD    (SCREEN_MESSAGE_QUEUE_TO_CD60?),HL
015f: 21 90 C4       LD    HL,$C490
0162: 22 8E C4       LD    (ONLY_GET_UPDATED_WHEN_INTERRUPTS_ARE_DISABLED3!),HL
0165: 21 BE C4       LD    HL,SCREEN_MESSAGE_QUEUE_2_TO_C4D5
0168: 22 BC C4       LD    ($C4BC),HL

*** Initialize interrupt (vector) register to 0
016b: 3E 00          LD    A,#$00
016d: ED 47          LD    I,A

*** CTC bits:
*** 7 - Interrupt (1 enables)
*** 6 - Mode (0 timer/1 counter)
*** 5 - Prescaler (0 16/ 1 256)
*** 4 - CLK/TRG Edge Selection (0 falling/1 rising)
*** 3 - Control or Vector (0 vector/1 control)
*** 2 - Reset (0 continuous operation/1 software reset)
*** 1 - Time Constant (1 time constant follows)
*** 0 - Timer Trigger (0 when loaded/1 pulse starts timer)
*** Initialize CTC
*** Set interrupt vector to 0x08 (just the top 5 bits are used. Bit zero is always
*** 0 and bits 1 & 2 are set by the CTC based on channel that threw the interrupt)
016f: 3E 08          LD    A,#$08
0171: D3 F0          OUT   (IO_CTC0),A
0173: 3E C7          LD    A,#$C7         ;Set CTC channel 3: Disable interrupts, timer mode, prescaler 16, falling edge,
0175: D3 F3          OUT   (IO_CTC3),A    ;automatic trigger, time constant follows, software reset, control word
0177: 3E 01          LD    A,#$01
0179: D3 F3          OUT   (IO_CTC3),A    ;Set CTC channel 3 time constant: 0x01
017b: 3E A7          LD    A,#$A7         ;Set CTC channel 1: Disable interrupts, timer mode, prescaler 256, falling edge,
017d: D3 F1          OUT   (IO_CTC1),A    ;automatic trigger, time constant follows, software reset, control word
017f: 3E 4E          LD    A,#$4E
0181: D3 F1          OUT   (IO_CTC1),A    ;Set CTC channel 1 time constant: 0x4E
0183: 21 82 C4       LD    HL,$C482
0186: 22 80 C4       LD    ($C480),HL
0189: FB             EI    
018a: CD A3 AD       CALL  $ADA3
018d: CD 17 6F       CALL  RESET_WATCHDOG_UNTIL_C400_IS_ONE
0190: 0E 02          LD    C,#$02
0192: CD B8 6F       CALL  PUT_C_ON_STACK_TO_SEND_TO_AUDIO
0195: CD 17 6F       CALL  RESET_WATCHDOG_UNTIL_C400_IS_ONE
0198: CD 17 6F       CALL  RESET_WATCHDOG_UNTIL_C400_IS_ONE
019b: 0E 02          LD    C,#$02
019d: CD B8 6F       CALL  PUT_C_ON_STACK_TO_SEND_TO_AUDIO
01a0: 0E 01          LD    C,#$01
01a2: CD B8 6F       CALL  PUT_C_ON_STACK_TO_SEND_TO_AUDIO
01a5: CD 17 6F       CALL  RESET_WATCHDOG_UNTIL_C400_IS_ONE
01a8: C3 00 09       JP    ATTRACT_MODE_LOOP

COLOR_PALETTE_FOR_6_10_BYTES_TO_01BA?:
01ab: 00 00 00 00 00 00 00 38 01 86 00 00 00 00 00 00 


*** Data used where for what?
01bb: 00 00 00 00 00 00 00 00 00 00 00 00 00 00 00 38 


*** CTC channel 3 interrupt vector starts here
SERVICE_INTERRUPT_ROUTINE:
01cb: 08             EX    AF,AF'
01cc: D9             EXX   
01cd: DD E5          PUSH  IX
01cf: FD E5          PUSH  IY
01d1: AF             XOR   A,A
01d2: 32 62 C4       LD    ($C462),A
01d5: 3E 87          LD    A,#$87         ;Set CTC channel 0: Enable interrupts, timer mode, prescaler 16, falling edge,
01d7: D3 F0          OUT   (IO_CTC0),A    ;automatic trigger, time constant follows, software reset, control word
01d9: 3E BB          LD    A,#$BB
01db: D3 F0          OUT   (IO_CTC0),A    ;Set CTC channel 0 time constant: 0xBB
01dd: FB             EI    
01de: CD C3 05       CALL  ROTATE_MCP_BLOCK_COLORS
01e1: CD 4F 07       CALL  TANK_UPDATE_COLOR_CYCLING
01e4: CD 92 07       CALL  OUTPUT_IO_TOWER_TIMER?/TELETYPE_PRINTING_TO_THE_SCREEN_UNTIL_NULL_BYTE?
01e7: CD F8 05       CALL  $05F8
01ea: CD CA 06       CALL  PRINT_OUT_MESSAGES_IN_QUEUES
01ed: CD B0 07       CALL  $07B0
01f0: CD F6 04       CALL  $04F6
01f3: CD 1B 05       CALL  $051B

*** How long has this user been playing?  C41A = BCD minutes, C41B = BCD seconds,
*** C41C = countdown of 30 frames? (reset to 30 once count goes negative)
01f6: 21 1C C4       LD    HL,CURRENT_PLAYER_DATA_BYTE_03
01f9: 7E             LD    A,(HL)
01fa: D6 01          SUB   A,#$01
01fc: 77             LD    (HL),A
01fd: F2 12 02       JP    P,$0212

0200: 36 1E          LD    (HL),#$1E
0202: 2B             DEC   HL
0203: 7E             LD    A,(HL)
0204: C6 01          ADD   A,#$01
0206: 27             DAA   
0207: FE 60          CP    A,#$60
0209: 20 07          JR    NZ,$0212

020b: 36 00          LD    (HL),#$00
020d: 2B             DEC   HL
020e: 7E             LD    A,(HL)
020f: C6 01          ADD   A,#$01
0211: 27             DAA   
0212: 77             LD    (HL),A
0213: FD E1          POP   IY
0215: DD E1          POP   IX
0217: 3A 62 C4       LD    A,($C462)
021a: B7             OR    A,A
021b: 28 FA          JR    Z,$0217

021d: D9             EXX   
021e: 08             EX    AF,AF'
021f: FB             EI    
0220: ED 4D          RETI  


*** CTC channel 0 interrupt vector starts here
0222: F5             PUSH  AF
0223: 3A 00 C4       LD    A,($C400)
0226: 3C             INC   A
0227: 32 00 C4       LD    ($C400),A
022a: 3E 03          LD    A,#$03         ;Set CTC channel 0: Disable interrupts, timer mode, prescaler 16, falling edge
022c: D3 F0          OUT   (IO_CTC0),A    ;automatic trigger, no time constant, software reset, control word
022e: 32 62 C4       LD    ($C462),A
0231: F1             POP   AF
0232: ED 4D          RETI  


*** CTC channel 1 interrupt vector starts here
0234: F5             PUSH  AF
0235: E5             PUSH  HL
0236: C5             PUSH  BC
0237: CD E3 02       CALL  GET_INPUT_FROM_JOYSTICK_TRIGGER_+?
023a: CD 58 03       CALL  $0358
023d: CD D9 03       CALL  $03D9
0240: 3A 01 C5       LD    A,(CREDITS)
0243: FE 09          CP    A,#$09
0245: 38 05          JR    C,$024C

0247: 3E 09          LD    A,#$09
0249: 32 01 C5       LD    (CREDITS),A
024c: CD 89 02       CALL  TANK_ROTATE_TURRET?
024f: DB 00          IN    A,(IO_0)
0251: E6 20          AND   A,#$20
0253: 20 2E          JR    NZ,$0283

0255: 21 82 C4       LD    HL,$C482
0258: 36 02          LD    (HL),#$02
025a: 23             INC   HL
025b: 36 18          LD    (HL),#$18
025d: 23             INC   HL
025e: 22 80 C4       LD    ($C480),HL
0261: 3E 02          LD    A,#$02
0263: 32 6C C4       LD    ($C46C),A
0266: CD 1B 05       CALL  $051B
0269: 21 00 30       LD    HL,$3000
026c: 2B             DEC   HL
026d: 7C             LD    A,H
026e: B5             OR    A,L
026f: 20 FB          JR    NZ,$026C

0271: DB 00          IN    A,(IO_0)
0273: E6 20          AND   A,#$20
0275: 28 F2          JR    Z,$0269

0277: 3A 01 C5       LD    A,(CREDITS)
027a: B7             OR    A,A
027b: 28 04          JR    Z,$0281

027d: 3D             DEC   A
027e: 32 01 C5       LD    (CREDITS),A
0281: 18 FE          JR    $0281

0283: C1             POP   BC
0284: E1             POP   HL
0285: F1             POP   AF
0286: FB             EI    
0287: ED 4D          RETI  


*** Get spinner value.  Subtract from last. Store last spinner value to C404
*** And ???
*** Update spinner value: 0 is right, increases counter clockwise to 0x23
*** (#36 )
TANK_ROTATE_TURRET?:
0289: 3A 87 C6       LD    A,(FLIP_SCREEN_IF_VALUE_IS_01)
028c: B7             OR    A,A
028d: 0E 01          LD    C,#$01
028f: 28 02          JR    Z,$0293

0291: 0E 04          LD    C,#$04
0293: ED 78          IN    A,(C)
0295: E6 7F          AND   A,#$7F
0297: 47             LD    B,A
0298: 21 04 C4       LD    HL,TANK_SPINNER_LAST_INPUT
029b: 96             SUB   A,(HL)
029c: 70             LD    (HL),B
029d: FE C0          CP    A,#$C0
029f: F2 A6 02       JP    P,$02A6

02a2: C6 80          ADD   A,#$80
02a4: 18 07          JR    $02AD

02a6: FE 41          CP    A,#$41
02a8: FA AD 02       JP    M,$02AD

02ab: D6 80          SUB   A,#$80
02ad: 21 01 C4       LD    HL,$C401
02b0: 86             ADD   A,(HL)
02b1: 47             LD    B,A
02b2: B7             OR    A,A
02b3: 3A 05 C4       LD    A,(MCP_TRON_ARM_OR_TANK_TURRET_ROTATION)
02b6: 4F             LD    C,A
02b7: F2 CB 02       JP    P,$02CB

02ba: 78             LD    A,B
02bb: FE FC          CP    A,#$FC
02bd: F2 DD 02       JP    P,$02DD

02c0: C6 04          ADD   A,#$04
02c2: 47             LD    B,A
02c3: 0D             DEC   C
02c4: F2 BA 02       JP    P,$02BA

02c7: 0E 23          LD    C,#$23
02c9: 18 EF          JR    $02BA

02cb: 78             LD    A,B
02cc: FE 04          CP    A,#$04
02ce: 38 0D          JR    C,$02DD

02d0: D6 04          SUB   A,#$04
02d2: 47             LD    B,A
02d3: 0C             INC   C
02d4: 79             LD    A,C
02d5: FE 24          CP    A,#$24
02d7: 38 F2          JR    C,$02CB


*** Tank (only?) turret rotation overflow (0x24) so set to 0
02d9: 0E 00          LD    C,#$00
02db: 18 EE          JR    $02CB

02dd: 77             LD    (HL),A
02de: 79             LD    A,C
02df: 32 05 C4       LD    (MCP_TRON_ARM_OR_TANK_TURRET_ROTATION),A
02e2: C9             RET   

GET_INPUT_FROM_JOYSTICK_TRIGGER_+?:
02e3: 21 73 C4       LD    HL,LEFT_COIN
02e6: DB 00          IN    A,(IO_0)
02e8: E6 01          AND   A,#$01
02ea: BE             CP    A,(HL)
02eb: 28 03          JR    Z,$02F0

02ed: 77             LD    (HL),A
02ee: 18 38          JR    $0328

02f0: 21 77 C4       LD    HL,$C477
02f3: B7             OR    A,A
02f4: 20 03          JR    NZ,$02F9

02f6: 77             LD    (HL),A
02f7: 18 2F          JR    $0328

02f9: BE             CP    A,(HL)
02fa: 28 2C          JR    Z,$0328

02fc: 77             LD    (HL),A
02fd: DB 00          IN    A,(IO_0)
02ff: E6 80          AND   A,#$80
0301: 28 25          JR    Z,$0328

0303: 2A 80 C6       LD    HL,($C680)
0306: 23             INC   HL
0307: 22 80 C6       LD    ($C680),HL
030a: 21 6F C4       LD    HL,$C46F
030d: 34             INC   (HL)
030e: 21 63 C4       LD    HL,$C463
0311: 34             INC   (HL)
0312: 3A 02 C5       LD    A,($C502)
0315: 3C             INC   A
0316: 21 F0 C4       LD    HL,?_AND_HIGH_SCORE_INITIALS_AND_?_TO_C549
0319: BE             CP    A,(HL)
031a: 38 09          JR    C,$0325

031c: 21 01 C5       LD    HL,CREDITS
031f: 3A F1 C4       LD    A,($C4F1)
0322: 86             ADD   A,(HL)
0323: 77             LD    (HL),A
0324: AF             XOR   A,A
0325: 32 02 C5       LD    ($C502),A
0328: 3A 71 C4       LD    A,($C471)
032b: 3D             DEC   A
032c: FA 40 03       JP    M,$0340

032f: 32 71 C4       LD    ($C471),A
0332: FE 10          CP    A,#$10
0334: C0             RET   NZ

0335: 3A 76 C4       LD    A,($C476)
0338: CB 87          RES   0,A
033a: D3 00          OUT   (IO_0),A
033c: 32 76 C4       LD    ($C476),A
033f: C9             RET   

0340: 3A 6F C4       LD    A,($C46F)
0343: 3D             DEC   A
0344: F8             RET   M

0345: 32 6F C4       LD    ($C46F),A
0348: 3E 20          LD    A,#$20
034a: 32 71 C4       LD    ($C471),A
034d: 3A 76 C4       LD    A,($C476)
0350: CB C7          SET   0,A
0352: D3 00          OUT   (IO_0),A
0354: 32 76 C4       LD    ($C476),A
0357: C9             RET   

0358: 21 74 C4       LD    HL,RIGHT_COIN
035b: DB 00          IN    A,(IO_0)
035d: E6 02          AND   A,#$02
035f: BE             CP    A,(HL)
0360: 28 03          JR    Z,$0365

0362: 77             LD    (HL),A
0363: 18 44          JR    $03A9

0365: 21 78 C4       LD    HL,$C478
0368: B7             OR    A,A
0369: 20 03          JR    NZ,$036E

036b: 77             LD    (HL),A
036c: 18 3B          JR    $03A9

036e: BE             CP    A,(HL)
036f: 28 38          JR    Z,$03A9

0371: 77             LD    (HL),A
0372: DB 00          IN    A,(IO_0)
0374: E6 80          AND   A,#$80
0376: 28 31          JR    Z,$03A9

0378: 2A 82 C6       LD    HL,($C682)
037b: 23             INC   HL
037c: 22 82 C6       LD    ($C682),HL
037f: DB 03          IN    A,(IO_3)
0381: E6 01          AND   A,#$01
0383: 20 06          JR    NZ,$038B

0385: 21 70 C4       LD    HL,$C470
0388: 34             INC   (HL)
0389: 18 04          JR    $038F

038b: 21 6F C4       LD    HL,$C46F
038e: 34             INC   (HL)
038f: 21 63 C4       LD    HL,$C463
0392: 34             INC   (HL)
0393: 3A 03 C5       LD    A,($C503)
0396: 3C             INC   A
0397: 21 F2 C4       LD    HL,$C4F2
039a: BE             CP    A,(HL)
039b: 38 09          JR    C,$03A6

039d: 21 01 C5       LD    HL,CREDITS
03a0: 3A F3 C4       LD    A,($C4F3)
03a3: 86             ADD   A,(HL)
03a4: 77             LD    (HL),A
03a5: AF             XOR   A,A
03a6: 32 03 C5       LD    ($C503),A
03a9: 3A 72 C4       LD    A,($C472)
03ac: 3D             DEC   A
03ad: FA C1 03       JP    M,$03C1

03b0: 32 72 C4       LD    ($C472),A
03b3: FE 10          CP    A,#$10
03b5: C0             RET   NZ

03b6: 3A 76 C4       LD    A,($C476)
03b9: CB 8F          RES   1,A
03bb: D3 00          OUT   (IO_0),A
03bd: 32 76 C4       LD    ($C476),A
03c0: C9             RET   

03c1: 3A 70 C4       LD    A,($C470)
03c4: 3D             DEC   A
03c5: F8             RET   M

03c6: 32 70 C4       LD    ($C470),A
03c9: 3E 20          LD    A,#$20
03cb: 32 72 C4       LD    ($C472),A
03ce: 3A 76 C4       LD    A,($C476)
03d1: CB CF          SET   1,A
03d3: D3 00          OUT   (IO_0),A
03d5: 32 76 C4       LD    ($C476),A
03d8: C9             RET   

03d9: 21 75 C4       LD    HL,$C475
03dc: DB 00          IN    A,(IO_0)
03de: E6 40          AND   A,#$40
03e0: BE             CP    A,(HL)
03e1: 28 02          JR    Z,$03E5

03e3: 77             LD    (HL),A
03e4: C9             RET   

03e5: 21 79 C4       LD    HL,$C479
03e8: B7             OR    A,A
03e9: 20 03          JR    NZ,$03EE

03eb: 77             LD    (HL),A
03ec: 18 12          JR    $0400

03ee: BE             CP    A,(HL)
03ef: 28 0F          JR    Z,$0400

03f1: 77             LD    (HL),A
03f2: DB 00          IN    A,(IO_0)
03f4: E6 80          AND   A,#$80
03f6: 28 08          JR    Z,$0400

03f8: 21 63 C4       LD    HL,$C463
03fb: 34             INC   (HL)
03fc: 21 01 C5       LD    HL,CREDITS
03ff: 34             INC   (HL)
0400: C9             RET   


*** Copy null-terminated string in DE to HL
STRING_IN_DE_TO_HL:
0401: 01 BF FF       LD    BC,$FFBF
0404: 1A             LD    A,(DE)
0405: B7             OR    A,A
0406: C8             RET   Z

0407: FE 20          CP    A,#$20
0409: 20 09          JR    NZ,$0414


*** Handle a space character (0x20 or 32)
040b: 3E 5E          LD    A,#$5E
040d: 36 5E          LD    (HL),#$5E
040f: 23             INC   HL
0410: 36 51          LD    (HL),#$51
0412: 18 04          JR    $0418

0414: 77             LD    (HL),A
0415: 23             INC   HL
0416: 36 50          LD    (HL),#$50
0418: 13             INC   DE
0419: 09             ADD   HL,BC
041a: 18 E8          JR    $0404

CHECK_DATA_C4F0_TO_C657?:
041c: 21 F0 C4       LD    HL,?_AND_HIGH_SCORE_INITIALS_AND_?_TO_C549
041f: 06 07          LD    B,#$07
0421: 7E             LD    A,(HL)
0422: B7             OR    A,A
0423: 28 5F          JR    Z,$0484

0425: FE 0A          CP    A,#$0A
0427: 30 5B          JR    NC,$0484

0429: 23             INC   HL
042a: 10 F5          DJNZ  $0421

042c: 06 0A          LD    B,#$0A
042e: 7E             LD    A,(HL)
042f: FE 0A          CP    A,#$0A
0431: 30 51          JR    NC,$0484

0433: 23             INC   HL
0434: 10 F8          DJNZ  $042E

0436: 7E             LD    A,(HL)
0437: 23             INC   HL
0438: FE 0A          CP    A,#$0A
043a: 30 48          JR    NC,$0484

043c: 3A F0 C4       LD    A,(?_AND_HIGH_SCORE_INITIALS_AND_?_TO_C549)
043f: BE             CP    A,(HL)
0440: 38 42          JR    C,$0484

0442: 28 40          JR    Z,$0484

0444: 23             INC   HL
0445: 3A F2 C4       LD    A,($C4F2)
0448: BE             CP    A,(HL)
0449: 38 39          JR    C,$0484

044b: 28 37          JR    Z,$0484

044d: 23             INC   HL
044e: 06 1E          LD    B,#$1E
0450: 0E 03          LD    C,#$03
0452: 7E             LD    A,(HL)
0453: 0D             DEC   C
0454: 20 04          JR    NZ,$045A

0456: 0E 03          LD    C,#$03
0458: 18 0C          JR    $0466

045a: FE 20          CP    A,#$20
045c: 28 08          JR    Z,$0466

045e: FE 41          CP    A,#$41
0460: 38 22          JR    C,$0484

0462: FE 5B          CP    A,#$5B
0464: 30 1E          JR    NC,$0484

0466: 23             INC   HL
0467: 10 E9          DJNZ  $0452

0469: 01 36 01       LD    BC,$0136
046c: 21 22 C5       LD    HL,$C522
046f: 7E             LD    A,(HL)
0470: E6 F0          AND   A,#$F0
0472: FE A0          CP    A,#$A0
0474: 30 0E          JR    NC,$0484

0476: 7E             LD    A,(HL)
0477: E6 0F          AND   A,#$0F
0479: FE 0A          CP    A,#$0A
047b: 30 07          JR    NC,$0484

047d: 23             INC   HL
047e: 0B             DEC   BC
047f: 78             LD    A,B
0480: B1             OR    A,C
0481: 20 EC          JR    NZ,$046F

0483: C9             RET   

0484: 11 F0 C4       LD    DE,?_AND_HIGH_SCORE_INITIALS_AND_?_TO_C549
0487: 21 9C 04       LD    HL,$049C
048a: 01 5A 00       LD    BC,$005A
048d: ED B0          LDIR  
048f: AF             XOR   A,A
0490: 01 3D 01       LD    BC,$013D
0493: AF             XOR   A,A
0494: 12             LD    (DE),A
0495: 13             INC   DE
0496: 0B             DEC   BC
0497: 78             LD    A,B
0498: B1             OR    A,C
0499: 20 F8          JR    NZ,$0493

049b: C9             RET   


*** Data copied with initial high scores to c4f0
049c: 01 01 01 01 03 01 05 00 00 02 00 00 00 01 00 01 
04ac: 00 00 00 00 


*** Default high score initials table. 10x 3 bytes (FI,LI,level)
DEFAULT_HIGH_SCORE_TABLE:
04b0: JP

BA_S:
04b3: BA

GG_S:
04b6: GG

EV_S:
04b9: EV

AG_S:
04bc: AG

JM_S:
04bf: JM

TL_S:
04c2: TL

SB_S:
04c5: SB

MJ_S:
04c8: MJ

JJ_S:
04cb: JJ


*** Data copied with initial high scores to c4f0
04ce: 00 20 00 00 20 00 03 00 03 00 00 20 00 00 20 00 
04de: 00 20 00 00 20 00 00 20 00 00 20 00 00 20 00 00 
04ee: 20 00 00 20 00 00 20 00 

04f6: 3A 7B C4       LD    A,(IN_ATTRACT_MODE?)
04f9: B7             OR    A,A
04fa: 28 16          JR    Z,$0512

04fc: 21 BC FE       LD    HL,$FEBC
04ff: 11 13 05       LD    DE,CREDITS_S
0502: CD 01 04       CALL  STRING_IN_DE_TO_HL
0505: 3A 01 C5       LD    A,(CREDITS)
0508: C6 30          ADD   A,#$30
050a: 32 BC FC       LD    ($FCBC),A
050d: 3E 50          LD    A,#$50
050f: 32 BD FC       LD    ($FCBD),A
0512: C9             RET   

CREDITS_S:
0513: CREDITS

051b: 21 63 C4       LD    HL,$C463
051e: 7E             LD    A,(HL)
051f: B7             OR    A,A
0520: 28 1F          JR    Z,$0541

0522: 35             DEC   (HL)
0523: 21 6C C4       LD    HL,$C46C
0526: ED 5B 80 C4    LD    DE,($C480)
052a: 3A 5A C4       LD    A,($C45A)
052d: B7             OR    A,A
052e: 3E 02          LD    A,#$02
0530: 12             LD    (DE),A
0531: 13             INC   DE
0532: 34             INC   (HL)
0533: 3E 01          LD    A,#$01
0535: 32 5A C4       LD    ($C45A),A
0538: 3E 23          LD    A,#$23
053a: 12             LD    (DE),A
053b: 13             INC   DE
053c: ED 53 80 C4    LD    ($C480),DE
0540: 34             INC   (HL)
0541: 21 64 C4       LD    HL,$C464
0544: 7E             LD    A,(HL)
0545: B7             OR    A,A
0546: 28 0F          JR    Z,OUTPUT_TO_SOUND_LATCHES

0548: 36 00          LD    (HL),#$00
054a: 2A 80 C4       LD    HL,($C480)
054d: 36 16          LD    (HL),#$16
054f: 23             INC   HL
0550: 22 80 C4       LD    ($C480),HL
0553: 21 6C C4       LD    HL,$C46C
0556: 34             INC   (HL)
OUTPUT_TO_SOUND_LATCHES:
0557: 3A 6C C4       LD    A,($C46C)
055a: B7             OR    A,A
055b: 28 45          JR    Z,$05A2

055d: 0E 1D          LD    C,#$1D
055f: 21 82 C4       LD    HL,$C482
0562: 06 01          LD    B,#$01
0564: 57             LD    D,A
0565: 7E             LD    A,(HL)
0566: ED 79          OUT   (C),A
0568: 23             INC   HL
0569: 0C             INC   C
056a: 78             LD    A,B
056b: BA             CP    A,D
056c: 28 1C          JR    Z,$058A

056e: 3C             INC   A
056f: 47             LD    B,A
0570: FE 04          CP    A,#$04
0572: 20 F1          JR    NZ,$0565

0574: 7A             LD    A,D
0575: 11 82 C4       LD    DE,$C482
0578: D6 03          SUB   A,#$03
057a: 32 6C C4       LD    ($C46C),A
057d: 47             LD    B,A
057e: 7E             LD    A,(HL)
057f: 12             LD    (DE),A
0580: 13             INC   DE
0581: 23             INC   HL
0582: 10 FA          DJNZ  $057E

0584: ED 53 80 C4    LD    ($C480),DE
0588: 18 28          JR    $05B2

058a: 3E 03          LD    A,#$03
058c: 92             SUB   A,D
058d: 28 08          JR    Z,$0597

058f: 16 00          LD    D,#$00
0591: ED 51          OUT   (C),D
0593: 0C             INC   C
0594: 3D             DEC   A
0595: 20 FA          JR    NZ,$0591

0597: 21 82 C4       LD    HL,$C482
059a: 22 80 C4       LD    ($C480),HL
059d: 32 6C C4       LD    ($C46C),A
05a0: 18 10          JR    $05B2

05a2: 3A 6E C4       LD    A,($C46E)
05a5: E6 40          AND   A,#$40
05a7: C8             RET   Z

05a8: 0E 1D          LD    C,#$1D
05aa: 06 03          LD    B,#$03
05ac: AF             XOR   A,A
05ad: ED 79          OUT   (C),A
05af: 0C             INC   C
05b0: 10 FB          DJNZ  $05AD

05b2: 3A 6D C4       LD    A,($C46D)
05b5: EE 80          XOR   A,#$80
05b7: 32 6D C4       LD    ($C46D),A
05ba: 21 6E C4       LD    HL,$C46E
05bd: B6             OR    A,(HL)
05be: D3 1C          OUT   (IO_AUDIO_LATCHES),A
05c0: 36 00          LD    (HL),#$00
05c2: C9             RET   

ROTATE_MCP_BLOCK_COLORS:
05c3: 3A 0F C4       LD    A,(ATTRACT_MCP_ROTATE_COLORS_IF_NON_ZERO)
05c6: B7             OR    A,A
05c7: C8             RET   Z

05c8: AF             XOR   A,A
05c9: 32 0F C4       LD    (ATTRACT_MCP_ROTATE_COLORS_IF_NON_ZERO),A
05cc: DD 21 EC 05    LD    IX,MCP_BLOCKS_COLOR_POSITIONS_LEFT_TO_RIGHT
05d0: 06 06          LD    B,#$06
05d2: ED 5B 10 C4    LD    DE,(MCP_BLOCKS_COLORS_STARTPOINT_VECTOR_INTO_0E55)
05d6: DD 6E 00       LD    L,(IX+$00)
05d9: DD 66 01       LD    H,(IX+$01)
05dc: DD 23          INC   IX
05de: DD 23          INC   IX
05e0: 1A             LD    A,(DE)
05e1: B7             OR    A,A
05e2: 28 01          JR    Z,$05E5


*** Color RAM: If bit 8 is not set, write to even address. If bit 8 is set
*** inc to next address to write to odd address in order to make A1 high!
05e4: 23             INC   HL
05e5: 13             INC   DE
05e6: 1A             LD    A,(DE)
05e7: 77             LD    (HL),A
05e8: 13             INC   DE
05e9: 10 EB          DJNZ  $05D6

05eb: C9             RET   

MCP_BLOCKS_COLOR_POSITIONS_LEFT_TO_RIGHT:
05ec: A2 FF A6 FF AA FF B6 FF BA FF BE FF 

05f8: 3A 65 C4       LD    A,($C465)
05fb: B7             OR    A,A
05fc: C8             RET   Z

05fd: FE 01          CP    A,#$01
05ff: 20 6E          JR    NZ,$066F

0601: 3E 02          LD    A,#$02
0603: 32 65 C4       LD    ($C465),A
0606: 21 44 FC       LD    HL,$FC44
0609: 11 2D B0       LD    DE,HISCORE_S
060c: CD 01 04       CALL  STRING_IN_DE_TO_HL
060f: 21 46 FC       LD    HL,$FC46
0612: 11 F7 C4       LD    DE,HIGH_SCORES_DIGITS
0615: CD 20 07       CALL  $0720
0618: 21 84 FE       LD    HL,$FE84
061b: 11 00 B0       LD    DE,1ST_S
061e: CD 01 04       CALL  STRING_IN_DE_TO_HL
0621: 21 86 FE       LD    HL,$FE86
0624: 11 45 C4       LD    DE,$C445
0627: CD 20 07       CALL  $0720
062a: 3A 5F C4       LD    A,(PLAYER_NUMBER)
062d: B7             OR    A,A
062e: 3A 1F C4       LD    A,(LIVES_REMAINING)
0631: 28 08          JR    Z,$063B

0633: 21 1F C4       LD    HL,LIVES_REMAINING
0636: 11 16 00       LD    DE,$0016
0639: 19             ADD   HL,DE
063a: 7E             LD    A,(HL)
063b: 21 84 FD       LD    HL,$FD84
063e: CD BB 06       CALL  $06BB
0641: 3A 60 C4       LD    A,($C460)
0644: 3D             DEC   A
0645: C8             RET   Z

0646: 21 44 FA       LD    HL,$FA44
0649: 11 04 B0       LD    DE,2ND_S
064c: CD 01 04       CALL  STRING_IN_DE_TO_HL
064f: 21 46 FA       LD    HL,$FA46
0652: 11 4B C4       LD    DE,$C44B
0655: CD 20 07       CALL  $0720
0658: 3A 5F C4       LD    A,(PLAYER_NUMBER)
065b: B7             OR    A,A
065c: 3A 1F C4       LD    A,(LIVES_REMAINING)
065f: 20 08          JR    NZ,$0669

0661: 21 1F C4       LD    HL,LIVES_REMAINING
0664: 11 16 00       LD    DE,$0016
0667: 19             ADD   HL,DE
0668: 7E             LD    A,(HL)
0669: 21 44 F9       LD    HL,$F944
066c: C3 BB 06       JP    $06BB

066f: 3A 7B C4       LD    A,(IN_ATTRACT_MODE?)
0672: B7             OR    A,A
0673: C0             RET   NZ

0674: 21 86 FE       LD    HL,$FE86
0677: 11 45 C4       LD    DE,$C445
067a: 3A 5F C4       LD    A,(PLAYER_NUMBER)
067d: B7             OR    A,A
067e: 28 06          JR    Z,$0686

0680: 21 46 FA       LD    HL,$FA46
0683: 11 4B C4       LD    DE,$C44B
0686: CD 20 07       CALL  $0720
0689: 21 84 FE       LD    HL,$FE84
068c: 11 00 B0       LD    DE,1ST_S
068f: 3A 5F C4       LD    A,(PLAYER_NUMBER)
0692: B7             OR    A,A
0693: 28 06          JR    Z,$069B

0695: 21 44 FA       LD    HL,$FA44
0698: 11 04 B0       LD    DE,2ND_S
069b: 3A 12 C4       LD    A,($C412)
069e: 3D             DEC   A
069f: F2 A9 06       JP    P,$06A9

06a2: 3E 08          LD    A,#$08
06a4: 32 12 C4       LD    ($C412),A
06a7: 18 0F          JR    $06B8

06a9: 32 12 C4       LD    ($C412),A
06ac: FE 04          CP    A,#$04
06ae: C0             RET   NZ

06af: 3A 08 C4       LD    A,($C408)
06b2: E6 01          AND   A,#$01
06b4: C8             RET   Z

06b5: 11 29 B0       LD    DE,EMPTY2_S
06b8: C3 01 04       JP    STRING_IN_DE_TO_HL

06bb: B7             OR    A,A
06bc: C8             RET   Z

06bd: 11 BF FF       LD    DE,$FFBF
06c0: 47             LD    B,A
06c1: 36 6D          LD    (HL),#$6D
06c3: 23             INC   HL
06c4: 36 51          LD    (HL),#$51
06c6: 19             ADD   HL,DE
06c7: 10 F8          DJNZ  $06C1

06c9: C9             RET   


*** Count @C466 and data starting @C4D8. @C4D6 is next entry for Q
*** Each entry is 2 bytes destination & 2 bytes source
PRINT_OUT_MESSAGES_IN_QUEUES:
06ca: 3A 66 C4       LD    A,(NUMBER_OF_SCREEN_MESSAGES_FROM_C4D6)
06cd: B7             OR    A,A
06ce: 28 25          JR    Z,PRINT_OUT_MESSAGES_IN_QUEUE_2

06d0: DD 21 D8 C4    LD    IX,SCREEN_MESSAGE_QUEUE
06d4: DD 22 D6 C4    LD    (SCREEN_MESSAGE_QUEUE_TO_CD60?),IX
06d8: 47             LD    B,A
06d9: DD 6E 00       LD    L,(IX+$00)
06dc: DD 66 01       LD    H,(IX+$01)
06df: DD 5E 02       LD    E,(IX+$02)
06e2: DD 56 03       LD    D,(IX+$03)
06e5: C5             PUSH  BC
06e6: CD 01 04       CALL  STRING_IN_DE_TO_HL
06e9: C1             POP   BC
06ea: 11 04 00       LD    DE,$0004
06ed: DD 19          ADD   IX,DE
06ef: 10 E8          DJNZ  $06D9

06f1: AF             XOR   A,A
06f2: 32 66 C4       LD    (NUMBER_OF_SCREEN_MESSAGES_FROM_C4D6),A

*** Count @C467 and data starting @C4BE. @C4BC is next entry for Q
*** Each entry is 2 bytes destination & 2 bytes source
PRINT_OUT_MESSAGES_IN_QUEUE_2:
06f5: 3A 67 C4       LD    A,(NUMBER_OF_SCREEN_MESSAGES_2_FROM_C4BE)
06f8: B7             OR    A,A
06f9: C8             RET   Z

06fa: DD 21 BE C4    LD    IX,SCREEN_MESSAGE_QUEUE_2_TO_C4D5
06fe: DD 22 BC C4    LD    ($C4BC),IX
0702: 47             LD    B,A
0703: DD 6E 00       LD    L,(IX+$00)
0706: DD 66 01       LD    H,(IX+$01)
0709: DD 5E 02       LD    E,(IX+$02)
070c: DD 56 03       LD    D,(IX+$03)
070f: C5             PUSH  BC
0710: CD 25 08       CALL  UPDATE_GAME_SELECT_COUNTDOWN_TIMER_FROM_DE
0713: C1             POP   BC
0714: 11 04 00       LD    DE,$0004
0717: DD 19          ADD   IX,DE
0719: 10 E8          DJNZ  $0703

071b: AF             XOR   A,A
071c: 32 67 C4       LD    (NUMBER_OF_SCREEN_MESSAGES_2_FROM_C4BE),A
071f: C9             RET   

0720: 06 06          LD    B,#$06
0722: 0E 00          LD    C,#$00
0724: D5             PUSH  DE
0725: DD E1          POP   IX
0727: 11 BF FF       LD    DE,$FFBF
072a: DD 7E 00       LD    A,(IX+$00)
072d: B1             OR    A,C
072e: 28 09          JR    Z,$0739

0730: 4F             LD    C,A
0731: DD 7E 00       LD    A,(IX+$00)
0734: C6 30          ADD   A,#$30
0736: 77             LD    (HL),A
0737: 18 07          JR    $0740

0739: 36 5E          LD    (HL),#$5E
073b: 23             INC   HL
073c: 36 51          LD    (HL),#$51
073e: 18 03          JR    $0743

0740: 23             INC   HL
0741: 36 50          LD    (HL),#$50
0743: DD 23          INC   IX
0745: 19             ADD   HL,DE
0746: 78             LD    A,B
0747: FE 02          CP    A,#$02
0749: 20 01          JR    NZ,$074C

074b: 4F             LD    C,A
074c: 10 DC          DJNZ  $072A

074e: C9             RET   

TANK_UPDATE_COLOR_CYCLING:
074f: 3A 5E C4       LD    A,($C45E)
0752: B7             OR    A,A
0753: C8             RET   Z

0754: 21 5D C4       LD    HL,$C45D
0757: 35             DEC   (HL)
0758: F0             RET   P

0759: 36 02          LD    (HL),#$02
075b: 3A 5C C4       LD    A,($C45C)
075e: C6 02          ADD   A,#$02
0760: FE 0C          CP    A,#$0C
0762: 38 01          JR    C,$0765

0764: AF             XOR   A,A
0765: 32 5C C4       LD    ($C45C),A
0768: 21 86 07       LD    HL,$0786
076b: 85             ADD   A,L
076c: 6F             LD    L,A
076d: 30 01          JR    NC,$0770

076f: 24             INC   H
0770: 11 E2 FF       LD    DE,$FFE2
0773: 7E             LD    A,(HL)
0774: B7             OR    A,A

*** Color RAM: if bit 8 is set, write to odd byte. Else write to even byte.
0775: 28 01          JR    Z,$0778

0777: 13             INC   DE
0778: 23             INC   HL
0779: 7E             LD    A,(HL)
077a: 12             LD    (DE),A
077b: 21 A2 FF       LD    HL,$FFA2
077e: 19             ADD   HL,DE
077f: 77             LD    (HL),A
0780: 11 04 00       LD    DE,$0004
0783: 19             ADD   HL,DE
0784: 77             LD    (HL),A
0785: C9             RET   

0786: 01 C0 01 00 00 18 00 38 00 03 00 07 

OUTPUT_IO_TOWER_TIMER?/TELETYPE_PRINTING_TO_THE_SCREEN_UNTIL_NULL_BYTE?:
0792: 21 51 C4       LD    HL,$C451
0795: 7E             LD    A,(HL)
0796: B7             OR    A,A
0797: C8             RET   Z

0798: 36 00          LD    (HL),#$00
079a: 2A 52 C4       LD    HL,($C452)
079d: ED 4B 54 C4    LD    BC,($C454)
07a1: 11 BF FF       LD    DE,$FFBF
07a4: 0A             LD    A,(BC)
07a5: B7             OR    A,A
07a6: C8             RET   Z

07a7: 77             LD    (HL),A
07a8: 23             INC   HL
07a9: 03             INC   BC
07aa: 0A             LD    A,(BC)
07ab: 77             LD    (HL),A
07ac: 03             INC   BC
07ad: 19             ADD   HL,DE
07ae: 18 F4          JR    $07A4

07b0: 3A 6B C4       LD    A,(ONLY_GET_UPDATED_WHEN_INTERRUPTS_ARE_DISABLED2!)
07b3: B7             OR    A,A
07b4: 28 35          JR    Z,$07EB

07b6: 21 6A C4       LD    HL,$C46A
07b9: 35             DEC   (HL)
07ba: C0             RET   NZ

07bb: 36 02          LD    (HL),#$02
07bd: 32 64 C4       LD    ($C464),A
07c0: ED 4B BA C4    LD    BC,(SOURCE?)
07c4: 2A B8 C4       LD    HL,(SCREEN_DESTINATION?)
07c7: 0A             LD    A,(BC)
07c8: FE FF          CP    A,#$FF
07ca: 20 08          JR    NZ,$07D4


*** FF byte has some special processing, for (c) only?
07cc: 03             INC   BC
07cd: 0A             LD    A,(BC)
07ce: 77             LD    (HL),A
07cf: 03             INC   BC
07d0: 23             INC   HL
07d1: 77             LD    (HL),A
07d2: 18 04          JR    $07D8

07d4: 77             LD    (HL),A
07d5: 23             INC   HL
07d6: 36 50          LD    (HL),#$50
07d8: 03             INC   BC
07d9: 11 BF FF       LD    DE,$FFBF
07dc: 19             ADD   HL,DE
07dd: 22 B8 C4       LD    (SCREEN_DESTINATION?),HL
07e0: ED 43 BA C4    LD    (SOURCE?),BC
07e4: 0A             LD    A,(BC)
07e5: B7             OR    A,A
07e6: C0             RET   NZ


*** 00 byte falls here
*** this data? Are the bounds right? Where is this used?
07e7: 32 6B C4       LD    (ONLY_GET_UPDATED_WHEN_INTERRUPTS_ARE_DISABLED2!),A
07ea: C9             RET   

07eb: 21 69 C4       LD    HL,ONLY_GET_UPDATED_WHEN_INTERRUPTS_ARE_DISABLED1!
07ee: 7E             LD    A,(HL)
07ef: B7             OR    A,A
07f0: C8             RET   Z

07f1: 35             DEC   (HL)
07f2: 3D             DEC   A
07f3: DD 21 90 C4    LD    IX,$C490
07f7: DD 6E 00       LD    L,(IX+$00)
07fa: DD 66 01       LD    H,(IX+$01)
07fd: 22 B8 C4       LD    (SCREEN_DESTINATION?),HL
0800: DD 6E 02       LD    L,(IX+$02)
0803: DD 66 03       LD    H,(IX+$03)
0806: 22 BA C4       LD    (SOURCE?),HL
0809: 87             ADD   A,A
080a: 87             ADD   A,A
080b: B7             OR    A,A
080c: 28 0B          JR    Z,$0819

080e: DD 46 04       LD    B,(IX+$04)
0811: DD 70 00       LD    (IX+$00),B
0814: DD 23          INC   IX
0816: 3D             DEC   A
0817: 20 F5          JR    NZ,$080E

0819: 3C             INC   A
081a: 32 6B C4       LD    (ONLY_GET_UPDATED_WHEN_INTERRUPTS_ARE_DISABLED2!),A
081d: 32 6A C4       LD    ($C46A),A
0820: DD 22 8E C4    LD    (ONLY_GET_UPDATED_WHEN_INTERRUPTS_ARE_DISABLED3!),IX
0824: C9             RET   

UPDATE_GAME_SELECT_COUNTDOWN_TIMER_FROM_DE:
0825: 01 BF FF       LD    BC,$FFBF
0828: 1A             LD    A,(DE)
0829: B7             OR    A,A
082a: C8             RET   Z

082b: 77             LD    (HL),A
082c: 23             INC   HL
082d: 13             INC   DE
082e: 1A             LD    A,(DE)
082f: 77             LD    (HL),A
0830: 13             INC   DE
0831: 09             ADD   HL,BC
0832: 18 F4          JR    $0828

0834: AF A1 58 D5 0E A6 58 29 E1 85 C9 51 7F 36 7F 97 
0844: FA B0 B3 9C 84 65 15 86 9A 78 CF DE B2 FA 5F 1B 
0854: 72 F8 7F 5B B9 8A B5 49 9F B2 C4 29 C1 E9 C7 0A 
0864: AA 68 F6 04 78 58 F8 8D FA B8 EB E9 B1 C6 98 AE 
0874: 78 D2 ED DE B8 90 25 62 A9 51 0A 8F 05 27 E4 C4 
0884: 06 34 03 3B 85 87 13 42 24 26 F3 A1 AF 85 35 06 
0894: ED A7 4E A0 55 2A 39 65 C0 E6 31 61 47 13 31 F9 
08a4: 6B 87 A4 CD D4 A9 83 F5 05 82 63 74 87 A3 4D 25 
08b4: 89 4C 6A 10 01 C5 DE 7C A7 49 56 1C 6E C9 0E DE 
08c4: DE A9 CF EA 7E EE BD 17 76 77 0F 8F 79 3F EA 44 
08d4: FA F8 89 1C BF F6 14 92 89 EC 0A F6 D8 F4 6A 06 
08e4: 70 F3 5E 8A AB FF 98 63 6E 91 DA 1F 92 68 57 B7 
08f4: 3A F8 D3 8B CA 00 CB 7B E3 9C D9 7F 

ATTRACT_MODE_LOOP:
0900: F3             DI    
0901: 3A 76 C4       LD    A,($C476)
0904: CB B7          RES   6,A
0906: 32 76 C4       LD    ($C476),A
0909: D3 00          OUT   (IO_0),A
090b: FB             EI    
090c: AF             XOR   A,A
090d: 32 87 C6       LD    (FLIP_SCREEN_IF_VALUE_IS_01),A
0910: DB 00          IN    A,(IO_0)
0912: E6 80          AND   A,#$80
0914: CA 00 99       JP    Z,$9900

0917: CD 49 70       CALL  INITIALIZE_SPRITES
091a: 21 C0 90       LD    HL,COLOR_PALETTE_FOR_5?
091d: CD 35 6F       CALL  COPY_20_FROM_HL_TO_FF80
0920: 3E 01          LD    A,#$01
0922: 32 7B C4       LD    (IN_ATTRACT_MODE?),A
0925: 3E 78          LD    A,#$78
0927: 32 6E C4       LD    ($C46E),A
092a: 3A 01 C5       LD    A,(CREDITS)
092d: B7             OR    A,A
092e: 20 16          JR    NZ,$0946

0930: CD C7 6F       CALL  CLEAR_BACKGROUND
0933: CD 20 70       CALL  ZERO_RAM_C000-C418
0936: 3E 01          LD    A,#$01
0938: 32 65 C4       LD    ($C465),A
093b: CD F1 0A       CALL  DISPLAY_MCP_CONE_WITH_COPYRIGHTS_AND_NEXT_INSTRUCTIONS
093e: CD 49 70       CALL  INITIALIZE_SPRITES
0941: CD C7 6F       CALL  CLEAR_BACKGROUND
0944: 18 0D          JR    $0953

0946: CD 20 70       CALL  ZERO_RAM_C000-C418
0949: CD C3 0B       CALL  $0BC3
094c: AF             XOR   A,A
094d: 32 7B C4       LD    (IN_ATTRACT_MODE?),A
0950: CD 26 70       CALL  ZERO_RAM_C000-C450
0953: CD 6D 0E       CALL  $0E6D
0956: CD D1 1F       CALL  DRAW_GAME_SELECT_SCREEN?
0959: CD 17 6F       CALL  RESET_WATCHDOG_UNTIL_C400_IS_ONE
095c: CD 38 0D       CALL  READ_C45B_AND_JP_TO_1_OF_5_LOCATIONS
095f: CD 52 0D       CALL  READ_AND_PROCESS_INPUT_PORTS
0962: 3A 7B C4       LD    A,(IN_ATTRACT_MODE?)
0965: B7             OR    A,A
0966: 28 10          JR    Z,$0978

0968: 3A 01 C5       LD    A,(CREDITS)
096b: B7             OR    A,A
096c: C2 00 09       JP    NZ,ATTRACT_MODE_LOOP

096f: 3A 7C C4       LD    A,(NEXT_SLOT_IN_SCREEN_MESSAGE_QUEUE_2)
0972: B7             OR    A,A
0973: C2 00 09       JP    NZ,ATTRACT_MODE_LOOP

0976: 18 E1          JR    $0959

0978: 3A 7C C4       LD    A,(NEXT_SLOT_IN_SCREEN_MESSAGE_QUEUE_2)
097b: B7             OR    A,A
097c: C4 91 09       CALL  NZ,$0991
097f: 3A 7C C4       LD    A,(NEXT_SLOT_IN_SCREEN_MESSAGE_QUEUE_2)
0982: B7             OR    A,A
0983: 28 D4          JR    Z,$0959

0985: 0E 01          LD    C,#$01
0987: CD B8 6F       CALL  PUT_C_ON_STACK_TO_SEND_TO_AUDIO
098a: AF             XOR   A,A
098b: 32 5A C4       LD    ($C45A),A
098e: C3 00 09       JP    ATTRACT_MODE_LOOP

0991: 0E 03          LD    C,#$03
0993: CD B8 6F       CALL  PUT_C_ON_STACK_TO_SEND_TO_AUDIO
0996: 3E 78          LD    A,#$78
0998: 32 6E C4       LD    ($C46E),A
099b: 3A 7C C4       LD    A,(NEXT_SLOT_IN_SCREEN_MESSAGE_QUEUE_2)
099e: CB 47          BIT   0,A
09a0: 28 08          JR    Z,$09AA

09a2: CB 87          RES   0,A
09a4: 32 7C C4       LD    (NEXT_SLOT_IN_SCREEN_MESSAGE_QUEUE_2),A
09a7: CD 4F 20       CALL  $204F
09aa: 3A 7C C4       LD    A,(NEXT_SLOT_IN_SCREEN_MESSAGE_QUEUE_2)
09ad: E6 02          AND   A,#$02
09af: CA DD 09       JP    Z,$09DD

09b2: 3A 1F C4       LD    A,(LIVES_REMAINING)
09b5: B7             OR    A,A
09b6: 20 16          JR    NZ,$09CE

09b8: CD 00 0F       CALL  $0F00
09bb: CD E4 09       CALL  $09E4
09be: 3A 1F C4       LD    A,(LIVES_REMAINING)
09c1: B7             OR    A,A
09c2: 20 0A          JR    NZ,$09CE

09c4: 21 7D C4       LD    HL,$C47D
09c7: 35             DEC   (HL)
09c8: C8             RET   Z

09c9: CD A0 0A       CALL  $0AA0
09cc: 18 0F          JR    $09DD

09ce: 3A 7D C4       LD    A,($C47D)
09d1: FE 01          CP    A,#$01
09d3: 28 05          JR    Z,$09DA

09d5: CD A0 0A       CALL  $0AA0
09d8: 18 03          JR    $09DD

09da: CD 28 0D       CALL  $0D28
09dd: AF             XOR   A,A
09de: 32 7C C4       LD    (NEXT_SLOT_IN_SCREEN_MESSAGE_QUEUE_2),A
09e1: C3 D1 1F       JP    DRAW_GAME_SELECT_SCREEN?

09e4: DB 03          IN    A,(IO_3)
09e6: E6 04          AND   A,#$04
09e8: C0             RET   NZ

09e9: 3A 22 C4       LD    A,(USER_LEVEL)
09ec: FE 03          CP    A,#$03
09ee: D0             RET   NC

09ef: CD 49 70       CALL  INITIALIZE_SPRITES
09f2: 3E 09          LD    A,#$09
09f4: 32 02 C4       LD    (COUNTDOWN_TIMER_SECONDS),A
09f7: 3E 1E          LD    A,#$1E
09f9: 32 03 C4       LD    (COUNTDOWN_TIMER_FRAMES),A
09fc: 32 7B C4       LD    (IN_ATTRACT_MODE?),A
09ff: 3A 01 C5       LD    A,(CREDITS)
0a02: 21 F5 C4       LD    HL,$C4F5
0a05: BE             CP    A,(HL)
0a06: 30 2F          JR    NC,$0A37

0a08: 32 15 C4       LD    ($C415),A
0a0b: CD C7 6F       CALL  CLEAR_BACKGROUND
0a0e: CD AC 70       CALL  PUT_GAME_SELECT_COUNTDOWN_DIGIT_MESSAGE_IN_Q2
0a11: CD 10 0D       CALL  $0D10
0a14: 11 43 B0       LD    DE,TO_CONTINUE_GAME_S
0a17: CD F4 6F       CALL  INCREASE_C40D_BY_4_AND_ADD_A_MESSAGE_TO_Q
0a1a: 11 6D B0       LD    DE,INSERT_1_COIN_S
0a1d: CD F4 6F       CALL  INCREASE_C40D_BY_4_AND_ADD_A_MESSAGE_TO_Q
0a20: CD 17 6F       CALL  RESET_WATCHDOG_UNTIL_C400_IS_ONE
0a23: 3A 01 C5       LD    A,(CREDITS)
0a26: 21 15 C4       LD    HL,$C415
0a29: BE             CP    A,(HL)
0a2a: 20 C6          JR    NZ,$09F2

0a2c: CD 9F 70       CALL  PROCESS_GAME_SELECT_COUNTDOWN_TIMER
0a2f: 3A 02 C4       LD    A,(COUNTDOWN_TIMER_SECONDS)
0a32: B7             OR    A,A
0a33: 20 EB          JR    NZ,$0A20

0a35: 18 64          JR    $0A9B

0a37: CD C7 6F       CALL  CLEAR_BACKGROUND
0a3a: CD AC 70       CALL  PUT_GAME_SELECT_COUNTDOWN_DIGIT_MESSAGE_IN_Q2
0a3d: CD 10 0D       CALL  $0D10
0a40: 11 43 B0       LD    DE,TO_CONTINUE_GAME_S
0a43: CD F4 6F       CALL  INCREASE_C40D_BY_4_AND_ADD_A_MESSAGE_TO_Q
0a46: 11 54 B0       LD    DE,PUSH_1_PLAYER_S
0a49: CD F4 6F       CALL  INCREASE_C40D_BY_4_AND_ADD_A_MESSAGE_TO_Q
0a4c: CD 17 6F       CALL  RESET_WATCHDOG_UNTIL_C400_IS_ONE
0a4f: DB 00          IN    A,(IO_0)
0a51: E6 04          AND   A,#$04
0a53: 28 0B          JR    Z,$0A60

0a55: CD 9F 70       CALL  PROCESS_GAME_SELECT_COUNTDOWN_TIMER
0a58: 3A 02 C4       LD    A,(COUNTDOWN_TIMER_SECONDS)
0a5b: B7             OR    A,A
0a5c: 20 EE          JR    NZ,$0A4C

0a5e: 18 3B          JR    $0A9B

0a60: 3A F4 C4       LD    A,($C4F4)
0a63: 32 1F C4       LD    (LIVES_REMAINING),A
0a66: 2A FD C4       LD    HL,($C4FD)
0a69: 22 20 C4       LD    (CURRENT_PLAYER_DATA_BYTE_07),HL
0a6c: 21 1A C4       LD    HL,PLAYING_HOW_LONG_NOW_TO_C41C
0a6f: 36 00          LD    (HL),#$00
0a71: 23             INC   HL
0a72: 36 00          LD    (HL),#$00
0a74: 23             INC   HL
0a75: 36 00          LD    (HL),#$00
0a77: 3A F5 C4       LD    A,($C4F5)
0a7a: 21 01 C5       LD    HL,CREDITS
0a7d: 35             DEC   (HL)
0a7e: 3D             DEC   A
0a7f: 20 FC          JR    NZ,$0A7D

0a81: 2A 84 C6       LD    HL,($C684)
0a84: 23             INC   HL
0a85: 22 84 C6       LD    ($C684),HL
0a88: 21 45 C4       LD    HL,$C445
0a8b: 3A 5F C4       LD    A,(PLAYER_NUMBER)
0a8e: B7             OR    A,A
0a8f: 28 03          JR    Z,$0A94

0a91: 21 4B C4       LD    HL,$C44B
0a94: 06 06          LD    B,#$06
0a96: 36 00          LD    (HL),#$00
0a98: 23             INC   HL
0a99: 10 FB          DJNZ  $0A96

0a9b: AF             XOR   A,A
0a9c: 32 7B C4       LD    (IN_ATTRACT_MODE?),A
0a9f: C9             RET   

0aa0: 21 19 C4       LD    HL,HARDNESS_(OR_USER_LEVEL/CURRENT_PLAYER_DATA?)
0aa3: 11 2F C4       LD    DE,OTHER_PLAYER_DATA
0aa6: 06 16          LD    B,#$16
0aa8: 4E             LD    C,(HL)
0aa9: 1A             LD    A,(DE)
0aaa: 77             LD    (HL),A
0aab: 79             LD    A,C
0aac: 12             LD    (DE),A
0aad: 13             INC   DE
0aae: 23             INC   HL
0aaf: 10 F7          DJNZ  $0AA8

0ab1: CD 49 70       CALL  INITIALIZE_SPRITES
0ab4: CD C7 6F       CALL  CLEAR_BACKGROUND
0ab7: DB 03          IN    A,(IO_3)
0ab9: E6 02          AND   A,#$02
0abb: 28 13          JR    Z,$0AD0

0abd: F3             DI    
0abe: 3A 76 C4       LD    A,($C476)
0ac1: EE 40          XOR   A,#$40
0ac3: 32 76 C4       LD    ($C476),A
0ac6: D3 00          OUT   (IO_0),A
0ac8: FB             EI    
0ac9: 21 87 C6       LD    HL,FLIP_SCREEN_IF_VALUE_IS_01
0acc: 7E             LD    A,(HL)
0acd: EE 01          XOR   A,#$01
0acf: 77             LD    (HL),A
0ad0: 11 08 B0       LD    DE,PLAYER_1_UP_S
0ad3: 21 5F C4       LD    HL,PLAYER_NUMBER
0ad6: 7E             LD    A,(HL)
0ad7: EE 01          XOR   A,#$01
0ad9: 77             LD    (HL),A
0ada: 28 03          JR    Z,$0ADF

0adc: 11 14 B0       LD    DE,PLAYER_2_UP_S
0adf: CD EE 6F       CALL  SET_C40D_TO_FDD0_AND_ADD_A_MESSAGE_TO_Q
0ae2: 3E 01          LD    A,#$01
0ae4: 32 65 C4       LD    ($C465),A
0ae7: 06 40          LD    B,#$40
0ae9: CD 17 6F       CALL  RESET_WATCHDOG_UNTIL_C400_IS_ONE
0aec: 10 FB          DJNZ  $0AE9

0aee: C3 28 0D       JP    $0D28

DISPLAY_MCP_CONE_WITH_COPYRIGHTS_AND_NEXT_INSTRUCTIONS:
0af1: CD 10 0D       CALL  $0D10
0af4: 11 6D B0       LD    DE,INSERT_1_COIN_S
0af7: ED 4B 0D C4    LD    BC,($C40D)
0afb: CD 5D 70       CALL  ADD_MESSAGE_TO_Q
0afe: 11 54 0B       LD    DE,DATA_TO_0B57_USED_AT_0AFE?
0b01: 01 6E FE       LD    BC,$FE6E
0b04: CD 5D 70       CALL  ADD_MESSAGE_TO_Q
0b07: 11 6B 0B       LD    DE,WALT_DISNEY_PRODUCTIONS_S
0b0a: 01 70 FE       LD    BC,$FE70
0b0d: CD 5D 70       CALL  ADD_MESSAGE_TO_Q
0b10: 01 74 FE       LD    BC,$FE74
0b13: 11 83 0B       LD    DE,$0B83
0b16: CD 5D 70       CALL  ADD_MESSAGE_TO_Q
0b19: 11 9B 0B       LD    DE,BALLY_MIDWAY_MFG_CO_S
0b1c: 01 76 FE       LD    BC,$FE76
0b1f: CD 5D 70       CALL  ADD_MESSAGE_TO_Q
0b22: 11 AF 0B       LD    DE,ALL_RIGHTS_RESERVED_S
0b25: 01 78 FE       LD    BC,$FE78
0b28: CD 5D 70       CALL  ADD_MESSAGE_TO_Q
0b2b: CD 7C 0D       CALL  DRAW_ATTRACT_MCP_CONE
0b2e: 3E 01          LD    A,#$01
0b30: 32 7F C4       LD    ($C47F),A
0b33: AF             XOR   A,A
0b34: 32 7E C4       LD    ($C47E),A
0b37: 3E FF          LD    A,#$FF
0b39: 32 06 C4       LD    (MCP_DISK_NUMBER_BEING_PROCESSED),A
0b3c: CD 17 6F       CALL  RESET_WATCHDOG_UNTIL_C400_IS_ONE
0b3f: 21 7F C4       LD    HL,$C47F
0b42: 35             DEC   (HL)
0b43: CC 32 0E       CALL  Z,SHOULD_I_UPDATE_CONE_COLOR?
0b46: 3A 01 C5       LD    A,(CREDITS)
0b49: B7             OR    A,A
0b4a: C0             RET   NZ

0b4b: 21 06 C4       LD    HL,MCP_DISK_NUMBER_BEING_PROCESSED
0b4e: 35             DEC   (HL)
0b4f: 20 EB          JR    NZ,$0B3C

0b51: C3 00 15       JP    PICK_WHICH_INSTRUCTIONS_TO_PRINT

DATA_TO_0B57_USED_AT_0AFE?:
0b54: FF 91 51 20 

COPYRIGHT_MCMLXXXI_S:
0b58: COPYRIGHT MCMLXXXI

WALT_DISNEY_PRODUCTIONS_S:
0b6b: WALT DISNEY PRODUCTIONS

0b83: FF 91 51 20 

COPYRIGHT_MCMLXXXII_S:
0b87: COPYRIGHT MCMLXXXII

BALLY_MIDWAY_MFG_CO_S:
0b9b: BALLY MIDWAY MFG CO

ALL_RIGHTS_RESERVED_S:
0baf: ALL RIGHTS RESERVED
0bc3: AF             XOR   A,A
0bc4: 32 15 C4       LD    ($C415),A
0bc7: 32 60 C4       LD    ($C460),A
0bca: 3E 02          LD    A,#$02
0bcc: 32 61 C4       LD    (WHICH_INSTRUCTIONS_TO_DISPLAY?_VECTOR_LIST_AT_1527?),A
0bcf: 21 15 C4       LD    HL,$C415
0bd2: 3A 01 C5       LD    A,(CREDITS)
0bd5: BE             CP    A,(HL)
0bd6: CA E1 0B       JP    Z,$0BE1

0bd9: F5             PUSH  AF
0bda: CD 00 0C       CALL  $0C00
0bdd: F1             POP   AF
0bde: 32 15 C4       LD    ($C415),A
0be1: CD 17 6F       CALL  RESET_WATCHDOG_UNTIL_C400_IS_ONE
0be4: DB 00          IN    A,(IO_0)
0be6: E6 10          AND   A,#$10
0be8: 20 0A          JR    NZ,$0BF4

0bea: CD 00 15       CALL  PICK_WHICH_INSTRUCTIONS_TO_PRINT
0bed: CD 49 70       CALL  INITIALIZE_SPRITES
0bf0: AF             XOR   A,A
0bf1: 32 15 C4       LD    ($C415),A
0bf4: CD 84 0C       CALL  $0C84
0bf7: 3A 60 C4       LD    A,($C460)
0bfa: B7             OR    A,A
0bfb: 28 D2          JR    Z,$0BCF

0bfd: C3 BC 0C       JP    $0CBC

0c00: 3A F5 C4       LD    A,($C4F5)
0c03: 87             ADD   A,A
0c04: 47             LD    B,A
0c05: 3A 15 C4       LD    A,($C415)
0c08: B8             CP    A,B
0c09: D0             RET   NC

0c0a: CD 49 70       CALL  INITIALIZE_SPRITES
0c0d: CD C7 6F       CALL  CLEAR_BACKGROUND
0c10: FD 21 04 F0    LD    IY,TANK_BODY_OR_LC_OR_IO_OR_MCP_TRON_AND_DISK_TORSO_LEGS_LEFT_DISK_RIGHT
0c14: 3E 01          LD    A,#$01
0c16: 32 65 C4       LD    ($C465),A
0c19: CD 10 0D       CALL  $0D10
0c1c: 2A 0D C4       LD    HL,($C40D)
0c1f: 23             INC   HL
0c20: 23             INC   HL
0c21: 22 0D C4       LD    ($C40D),HL
0c24: 11 05 B1       LD    DE,FOR_DIRECTIONS_S
0c27: CD F4 6F       CALL  INCREASE_C40D_BY_4_AND_ADD_A_MESSAGE_TO_Q
0c2a: 11 F3 B0       LD    DE,PRESS_FIRE_BUTTON_S
0c2d: CD F4 6F       CALL  INCREASE_C40D_BY_4_AND_ADD_A_MESSAGE_TO_Q
0c30: 2A 0D C4       LD    HL,($C40D)
0c33: 23             INC   HL
0c34: 23             INC   HL
0c35: 22 0D C4       LD    ($C40D),HL
0c38: 11 35 B0       LD    DE,TO_START_GAME_S
0c3b: CD F4 6F       CALL  INCREASE_C40D_BY_4_AND_ADD_A_MESSAGE_TO_Q
0c3e: 3A 01 C5       LD    A,(CREDITS)
0c41: 21 F5 C4       LD    HL,$C4F5
0c44: BE             CP    A,(HL)
0c45: 30 06          JR    NC,$0C4D

0c47: 11 8A B0       LD    DE,MORE_COINS_S
0c4a: C3 F4 6F       JP    INCREASE_C40D_BY_4_AND_ADD_A_MESSAGE_TO_Q

0c4d: 11 54 B0       LD    DE,PUSH_1_PLAYER_S
0c50: CD F4 6F       CALL  INCREASE_C40D_BY_4_AND_ADD_A_MESSAGE_TO_Q
0c53: 3A F5 C4       LD    A,($C4F5)
0c56: 87             ADD   A,A
0c57: 47             LD    B,A
0c58: 3A 01 C5       LD    A,(CREDITS)
0c5b: B8             CP    A,B
0c5c: 30 1A          JR    NC,$0C78

0c5e: 2A 0D C4       LD    HL,($C40D)
0c61: 23             INC   HL
0c62: 23             INC   HL
0c63: 22 0D C4       LD    ($C40D),HL
0c66: 11 62 B0       LD    DE,OR_DEPOSIT_S
0c69: CD F4 6F       CALL  INCREASE_C40D_BY_4_AND_ADD_A_MESSAGE_TO_Q
0c6c: 11 7B B0       LD    DE,MORE_COINS_FOR_S
0c6f: CD F4 6F       CALL  INCREASE_C40D_BY_4_AND_ADD_A_MESSAGE_TO_Q
0c72: 11 B1 B0       LD    DE,2_PLAYERS_S
0c75: C3 F4 6F       JP    INCREASE_C40D_BY_4_AND_ADD_A_MESSAGE_TO_Q

0c78: 11 A9 B0       LD    DE,OR_PUSH_S
0c7b: CD F4 6F       CALL  INCREASE_C40D_BY_4_AND_ADD_A_MESSAGE_TO_Q
0c7e: 11 B1 B0       LD    DE,2_PLAYERS_S
0c81: C3 F4 6F       JP    INCREASE_C40D_BY_4_AND_ADD_A_MESSAGE_TO_Q

0c84: DB 00          IN    A,(IO_0)
0c86: 2F             CPL   
0c87: E6 0C          AND   A,#$0C
0c89: C8             RET   Z

0c8a: E6 08          AND   A,#$08
0c8c: 20 14          JR    NZ,$0CA2

0c8e: 3A F5 C4       LD    A,($C4F5)
0c91: 47             LD    B,A
0c92: 21 01 C5       LD    HL,CREDITS
0c95: 7E             LD    A,(HL)
0c96: B8             CP    A,B
0c97: D8             RET   C

0c98: 3E 01          LD    A,#$01
0c9a: 32 60 C4       LD    ($C460),A
0c9d: 35             DEC   (HL)
0c9e: 10 FD          DJNZ  $0C9D

0ca0: 18 13          JR    $0CB5

0ca2: 3A F5 C4       LD    A,($C4F5)
0ca5: 87             ADD   A,A
0ca6: 47             LD    B,A
0ca7: 21 01 C5       LD    HL,CREDITS
0caa: 7E             LD    A,(HL)
0cab: B8             CP    A,B
0cac: D8             RET   C

0cad: 35             DEC   (HL)
0cae: 10 FD          DJNZ  $0CAD

0cb0: 3E 02          LD    A,#$02
0cb2: 32 60 C4       LD    ($C460),A
0cb5: 3A F4 C4       LD    A,($C4F4)
0cb8: 32 86 C6       LD    ($C686),A
0cbb: C9             RET   

0cbc: 3A 5A C4       LD    A,($C45A)
0cbf: B7             OR    A,A
0cc0: 0E 02          LD    C,#$02
0cc2: CD B8 6F       CALL  PUT_C_ON_STACK_TO_SEND_TO_AUDIO
0cc5: 0E 25          LD    C,#$25
0cc7: CD B8 6F       CALL  PUT_C_ON_STACK_TO_SEND_TO_AUDIO
0cca: 3E 01          LD    A,#$01
0ccc: 32 5A C4       LD    ($C45A),A
0ccf: AF             XOR   A,A
0cd0: 32 65 C4       LD    ($C465),A
0cd3: CD C7 6F       CALL  CLEAR_BACKGROUND
0cd6: CD 49 70       CALL  INITIALIZE_SPRITES
0cd9: 11 CF B0       LD    DE,BONUS_BASES_AWARDED_S
0cdc: CD EE 6F       CALL  SET_C40D_TO_FDD0_AND_ADD_A_MESSAGE_TO_Q
0cdf: 11 E3 B0       LD    DE,AT_10000_POINTS_S
0ce2: CD F4 6F       CALL  INCREASE_C40D_BY_4_AND_ADD_A_MESSAGE_TO_Q
0ce5: 11 18 C4       LD    DE,$C418
0ce8: AF             XOR   A,A
0ce9: 12             LD    (DE),A
0cea: 1B             DEC   DE
0ceb: 3A FE C4       LD    A,($C4FE)
0cee: C6 30          ADD   A,#$30
0cf0: 12             LD    (DE),A
0cf1: 1B             DEC   DE
0cf2: 3A FD C4       LD    A,($C4FD)
0cf5: C6 30          ADD   A,#$30
0cf7: 12             LD    (DE),A
0cf8: 2A 0D C4       LD    HL,($C40D)
0cfb: 01 3C FF       LD    BC,$FF3C
0cfe: 09             ADD   HL,BC
0cff: 44             LD    B,H
0d00: 4D             LD    C,L
0d01: CD FF 6F       CALL  ADD_A_MESSAGE_TO_Q
0d04: 01 60 00       LD    BC,$0060
0d07: CD 17 6F       CALL  RESET_WATCHDOG_UNTIL_C400_IS_ONE
0d0a: 0B             DEC   BC
0d0b: 78             LD    A,B
0d0c: B1             OR    A,C
0d0d: 20 F8          JR    NZ,$0D07

0d0f: C9             RET   

0d10: 11 17 C4       LD    DE,$C417
0d13: AF             XOR   A,A
0d14: 12             LD    (DE),A
0d15: 1B             DEC   DE
0d16: 3A F5 C4       LD    A,($C4F5)
0d19: C6 30          ADD   A,#$30
0d1b: 12             LD    (DE),A
0d1c: CD EE 6F       CALL  SET_C40D_TO_FDD0_AND_ADD_A_MESSAGE_TO_Q
0d1f: 11 95 B0       LD    DE,CREDITS_PER_PLAYER_S
0d22: 01 8C FD       LD    BC,$FD8C
0d25: C3 FF 6F       JP    ADD_A_MESSAGE_TO_Q

0d28: 21 1F C4       LD    HL,LIVES_REMAINING
0d2b: 35             DEC   (HL)
0d2c: 3E 01          LD    A,#$01
0d2e: 32 08 C4       LD    ($C408),A
0d31: 3A 2E C4       LD    A,(NUMBER_OF_ROUNDS_WHEN_WRAPS_AROUND_DISKS_MAY_GO_TO_1???)
0d34: 32 1E C4       LD    (MAX_DISKS_AT_A_TIME),A
0d37: C9             RET   

READ_C45B_AND_JP_TO_1_OF_5_LOCATIONS:
0d38: 3A 5B C4       LD    A,(GS_DIRECTION:1=DOWN,2=?,3=?,5=?,OTHER=?)
0d3b: FE 03          CP    A,#$03
0d3d: CA 00 2C       JP    Z,$2C00

0d40: FE 01          CP    A,#$01
0d42: CA 00 1F       JP    Z,GS_DO_?

0d45: FE 02          CP    A,#$02
0d47: CA E0 3B       JP    Z,$3BE0

0d4a: FE 05          CP    A,#$05
0d4c: CA AA 51       JP    Z,$51AA

0d4f: C3 7C 5D       JP    $5D7C


*** I/O byte 00, bit 4? (isn't it 7?) is trigger. 0 when trigger is pulled, 1 otherwise
READ_AND_PROCESS_INPUT_PORTS:
0d52: DB 00          IN    A,(IO_0)
0d54: E6 80          AND   A,#$80
0d56: C0             RET   NZ

0d57: DB 00          IN    A,(IO_0)
0d59: 2F             CPL   
0d5a: E6 0C          AND   A,#$0C
0d5c: 21 68 C4       LD    HL,$C468
0d5f: BE             CP    A,(HL)
0d60: C8             RET   Z

0d61: 77             LD    (HL),A
0d62: B7             OR    A,A
0d63: C8             RET   Z

0d64: FE 08          CP    A,#$08
0d66: 28 08          JR    Z,$0D70

0d68: 3A 5B C4       LD    A,(GS_DIRECTION:1=DOWN,2=?,3=?,5=?,OTHER=?)
0d6b: FE 01          CP    A,#$01
0d6d: C8             RET   Z

0d6e: 18 06          JR    $0D76

0d70: 3A 23 C4       LD    A,(COMPLETED_GAMES_XXXXDURL)
0d73: 32 24 C4       LD    (DIRECTION_CHOSEN_8D4U2R1L),A
0d76: 3E 01          LD    A,#$01
0d78: 32 7C C4       LD    (NEXT_SLOT_IN_SCREEN_MESSAGE_QUEUE_2),A
0d7b: C9             RET   


*** Draw MCP cone tip to sprites 25-37 (0x19-0x25)
DRAW_ATTRACT_MCP_CONE:
0d7c: FD 21 64 F0    LD    IY,$F064
0d80: 21 0B 0E       LD    HL,$0E0B
0d83: 06 0D          LD    B,#$0D
0d85: 11 04 00       LD    DE,$0004
0d88: 3E 56          LD    A,#$56
0d8a: 86             ADD   A,(HL)
0d8b: FD 77 00       LD    (IY+$00),A
0d8e: 3E 80          LD    A,#$80
0d90: 23             INC   HL
0d91: 86             ADD   A,(HL)
0d92: FD 77 02       LD    (IY+$02),A
0d95: 23             INC   HL
0d96: 7E             LD    A,(HL)
0d97: FD 77 01       LD    (IY+$01),A
0d9a: 23             INC   HL
0d9b: FD 19          ADD   IY,DE
0d9d: 10 E9          DJNZ  $0D88


*** Draw MCP blocks to sprites 1-24 (0x01-0x18)
0d9f: 06 18          LD    B,#$18
0da1: FD 21 04 F0    LD    IY,TANK_BODY_OR_LC_OR_IO_OR_MCP_TRON_AND_DISK_TORSO_LEGS_LEFT_DISK_RIGHT
0da5: 21 C3 0D       LD    HL,$0DC3
0da8: 3E 56          LD    A,#$56
0daa: 86             ADD   A,(HL)
0dab: 23             INC   HL
0dac: FD 77 00       LD    (IY+$00),A
0daf: 3E 80          LD    A,#$80
0db1: 86             ADD   A,(HL)
0db2: 23             INC   HL
0db3: FD 77 02       LD    (IY+$02),A
0db6: 7E             LD    A,(HL)
0db7: FD 77 01       LD    (IY+$01),A
0dba: 23             INC   HL
0dbb: 11 04 00       LD    DE,$0004
0dbe: FD 19          ADD   IY,DE
0dc0: 10 E6          DJNZ  $0DA8

0dc2: C9             RET   


*** 24x3 bytes: relative X, relative Y, picture
*** (0x56 is added to X and 0x80 to Y)
0dc3: 00 00 31 
0dc6: 00 0C 31 
0dc9: 00 18 31 
0dcc: 00 24 31 
0dcf: 0C 02 32 
0dd2: 0C 0E 32 
0dd5: 0C 1A 32 
0dd8: 0C 26 32 
0ddb: 1C 04 33 
0dde: 1C 10 33 
0de1: 1C 1C 33 
0de4: 1C 28 33 
0de7: 2C 04 34 
0dea: 2C 10 34 
0ded: 2C 1C 34 
0df0: 2C 28 34 
0df3: 3C 02 35 
0df6: 3C 0E 35 
0df9: 3C 1A 35 
0dfc: 3C 26 35 
0dff: 48 00 36 
0e02: 48 0C 36 
0e05: 48 18 36 
0e08: 48 24 36 

*** 13x3 bytes: X, Y, picture (0x56 is added to X and 0x80 to Y)
0e0b: 08 F4 38 
0e0e: 18 F4 37 
0e11: 28 F4 37 
0e14: 38 F4 37 
0e17: 42 F4 B8 
0e1a: 10 E8 38 
0e1d: 20 E8 37 
0e20: 30 E8 37 
0e23: 3C E8 B8 
0e26: 18 DC 38 
0e29: 28 DC 37 
0e2c: 34 DC B8 
0e2f: 24 D0 39 

SHOULD_I_UPDATE_CONE_COLOR?:
0e32: 21 7F C4       LD    HL,$C47F
0e35: 36 04          LD    (HL),#$04
0e37: 21 7E C4       LD    HL,$C47E
0e3a: 34             INC   (HL)
0e3b: 7E             LD    A,(HL)
0e3c: FE 06          CP    A,#$06
0e3e: 38 02          JR    C,$0E42

0e40: 36 00          LD    (HL),#$00
0e42: 3E 05          LD    A,#$05
0e44: 96             SUB   A,(HL)
0e45: 87             ADD   A,A
0e46: 21 55 0E       LD    HL,MCP_ATTRACT_COLORS
0e49: CD 00 6F       CALL  ADD_A_TO_HL_WITH_CARRY
0e4c: 22 10 C4       LD    (MCP_BLOCKS_COLORS_STARTPOINT_VECTOR_INTO_0E55),HL
0e4f: 3E 01          LD    A,#$01
0e51: 32 0F C4       LD    (ATTRACT_MCP_ROTATE_COLORS_IF_NON_ZERO),A
0e54: C9             RET   


*** These are color WORDS!  If bit 8 is set, write the color to the next byte up
*** to set the A0 line high which sets bit 8 in the color WORD RAM.
*** See Bally/Midway's MCR II System manual top-right corner of page MCR-6
*** for more information.  Color table is doubled so wraparound does not
*** need to be calculated or handled.
MCP_ATTRACT_COLORS:
0e55: 01 C0 00 38 00 07 01 C7 01 F8 00 3F 01 C0 00 38 
0e65: 00 07 01 C7 01 F8 00 3F 

0e6d: 3A 86 C6       LD    A,($C686)
0e70: 32 1F C4       LD    (LIVES_REMAINING),A
0e73: 2A FD C4       LD    HL,($C4FD)
0e76: 22 20 C4       LD    (CURRENT_PLAYER_DATA_BYTE_07),HL
0e79: AF             XOR   A,A
0e7a: 32 7C C4       LD    (NEXT_SLOT_IN_SCREEN_MESSAGE_QUEUE_2),A
0e7d: 32 22 C4       LD    (USER_LEVEL),A
0e80: 32 5F C4       LD    (PLAYER_NUMBER),A
0e83: 21 23 C4       LD    HL,COMPLETED_GAMES_XXXXDURL
0e86: 3A 7B C4       LD    A,(IN_ATTRACT_MODE?)
0e89: B7             OR    A,A
0e8a: 28 0C          JR    Z,$0E98

0e8c: 3E 01          LD    A,#$01
0e8e: 32 60 C4       LD    ($C460),A
0e91: 32 1F C4       LD    (LIVES_REMAINING),A
0e94: 7E             LD    A,(HL)
0e95: B7             OR    A,A
0e96: 20 03          JR    NZ,$0E9B

0e98: CD 15 21       CALL  INITIALIZE_LEVEL?
0e9b: 3E 01          LD    A,#$01
0e9d: 32 2E C4       LD    (NUMBER_OF_ROUNDS_WHEN_WRAPS_AROUND_DISKS_MAY_GO_TO_1???),A
0ea0: 32 1E C4       LD    (MAX_DISKS_AT_A_TIME),A
0ea3: 21 19 C4       LD    HL,HARDNESS_(OR_USER_LEVEL/CURRENT_PLAYER_DATA?)
0ea6: 11 2F C4       LD    DE,OTHER_PLAYER_DATA
0ea9: 01 16 00       LD    BC,$0016
0eac: ED B0          LDIR  
0eae: 3A 7B C4       LD    A,(IN_ATTRACT_MODE?)
0eb1: B7             OR    A,A
0eb2: CC 15 21       CALL  Z,INITIALIZE_LEVEL?
0eb5: 3A 60 C4       LD    A,($C460)
0eb8: 32 7D C4       LD    ($C47D),A
0ebb: C3 28 0D       JP    $0D28


*** Data used where for what?
0ebe: 89 9C FE DB F3 F7 BE DF F3 D5 CF FA D9 F4 FC FB 
0ece: F3 F2 FE DA E3 F3 7E FF F6 EB EF 9F F2 F3 5F E2 
0ede: D1 FB CB D2 F6 F0 EF BE F5 EB DD FF F6 EA DD C3 
0eee: EA E4 FD EA E1 D3 DB FE FF 73 DF DF CF F3 9B D6 
0efe: D0 85 

0f00: 06 20          LD    B,#$20
0f02: CD 17 6F       CALL  RESET_WATCHDOG_UNTIL_C400_IS_ONE
0f05: 10 FB          DJNZ  $0F02

0f07: AF             XOR   A,A
0f08: 32 61 C4       LD    (WHICH_INSTRUCTIONS_TO_DISPLAY?_VECTOR_LIST_AT_1527?),A
0f0b: 21 45 C4       LD    HL,$C445
0f0e: 3A 5F C4       LD    A,(PLAYER_NUMBER)
0f11: B7             OR    A,A
0f12: 28 03          JR    Z,$0F17

0f14: 21 4B C4       LD    HL,$C44B
0f17: 22 0B C4       LD    (MCP_RAM_DATA_OF_BLOCK_HIT_BY_DISK),HL
0f1a: 11 F7 C4       LD    DE,HIGH_SCORES_DIGITS
0f1d: 06 06          LD    B,#$06
0f1f: 1A             LD    A,(DE)
0f20: BE             CP    A,(HL)
0f21: 38 08          JR    C,$0F2B

0f23: 20 14          JR    NZ,$0F39

0f25: 13             INC   DE
0f26: 23             INC   HL
0f27: 10 F6          DJNZ  $0F1F

0f29: 18 0E          JR    $0F39

0f2b: 2A 0B C4       LD    HL,(MCP_RAM_DATA_OF_BLOCK_HIT_BY_DISK)
0f2e: 11 F7 C4       LD    DE,HIGH_SCORES_DIGITS
0f31: 06 06          LD    B,#$06
0f33: 7E             LD    A,(HL)
0f34: 12             LD    (DE),A
0f35: 23             INC   HL
0f36: 13             INC   DE
0f37: 10 FA          DJNZ  $0F33

0f39: CD 20 70       CALL  ZERO_RAM_C000-C418
0f3c: CD 49 70       CALL  INITIALIZE_SPRITES
0f3f: CD C7 6F       CALL  CLEAR_BACKGROUND
0f42: 21 C0 90       LD    HL,COLOR_PALETTE_FOR_5?
0f45: CD 35 6F       CALL  COPY_20_FROM_HL_TO_FF80
0f48: 11 BB B0       LD    DE,GAME_OVER_S
0f4b: CD EE 6F       CALL  SET_C40D_TO_FDD0_AND_ADD_A_MESSAGE_TO_Q
0f4e: 0E 38          LD    C,#$38
0f50: CD B8 6F       CALL  PUT_C_ON_STACK_TO_SEND_TO_AUDIO
0f53: 11 14 B1       LD    DE,PLAYER_12_S
0f56: 3A 5F C4       LD    A,(PLAYER_NUMBER)
0f59: B7             OR    A,A
0f5a: 28 03          JR    Z,$0F5F

0f5c: 11 1D B1       LD    DE,PLAYER_2_S
0f5f: CD F4 6F       CALL  INCREASE_C40D_BY_4_AND_ADD_A_MESSAGE_TO_Q
0f62: 3E 01          LD    A,#$01
0f64: 32 65 C4       LD    ($C465),A
0f67: CD 65 11       CALL  $1165
0f6a: 06 60          LD    B,#$60
0f6c: CD 17 6F       CALL  RESET_WATCHDOG_UNTIL_C400_IS_ONE
0f6f: 10 FB          DJNZ  $0F6C

0f71: 3A 00 C0       LD    A,(CPU_RAM_OR_GS_DISK_X_TANK_X_OR_MCP_TRON_LEGS-LC_TRAILS_TO_C1DF)
0f74: FE 0B          CP    A,#$0B
0f76: DC 7F 0F       CALL  C,$0F7F
0f79: CD 3F 13       CALL  $133F
0f7c: C3 9E 12       JP    $129E

0f7f: AF             XOR   A,A
0f80: 32 65 C4       LD    ($C465),A
0f83: CD C7 6F       CALL  CLEAR_BACKGROUND
0f86: DD 21 01 10    LD    IX,DATA_TO_101A_USED_AT_0F86?
0f8a: DD 4E 00       LD    C,(IX+$00)
0f8d: DD 46 01       LD    B,(IX+$01)
0f90: 79             LD    A,C
0f91: B0             OR    A,B
0f92: 28 10          JR    Z,$0FA4

0f94: DD 5E 02       LD    E,(IX+$02)
0f97: DD 56 03       LD    D,(IX+$03)
0f9a: CD FF 6F       CALL  ADD_A_MESSAGE_TO_Q
0f9d: 11 04 00       LD    DE,$0004
0fa0: DD 19          ADD   IX,DE
0fa2: 18 E6          JR    $0F8A

0fa4: 21 C4 FD       LD    HL,$FDC4
0fa7: 3E 41          LD    A,#$41
0fa9: 77             LD    (HL),A
0faa: 23             INC   HL
0fab: 36 50          LD    (HL),#$50
0fad: 23             INC   HL
0fae: 3C             INC   A
0faf: FE 5B          CP    A,#$5B
0fb1: 38 F6          JR    C,$0FA9

0fb3: FD 21 04 F0    LD    IY,TANK_BODY_OR_LC_OR_IO_OR_MCP_TRON_AND_DISK_TORSO_LEGS_LEFT_DISK_RIGHT
0fb7: FD 36 00 28    LD    (IY+$00),#$28
0fbb: 3E 10          LD    A,#$10
0fbd: CD 59 71       CALL  ADJUST_SPRITE_X_IF_FLIPPED_SCREEN
0fc0: FD 77 02       LD    (IY+$02),A
0fc3: FD 36 01 06    LD    (IY+$01),#$06
0fc7: AF             XOR   A,A
0fc8: 32 07 C4       LD    ($C407),A
0fcb: 32 13 C4       LD    ($C413),A
0fce: 32 14 C4       LD    ($C414),A
0fd1: CD 6C 10       CALL  $106C
0fd4: 3E 02          LD    A,#$02
0fd6: 32 04 C0       LD    ($C004),A
0fd9: FD 21 DE FC    LD    IY,$FCDE
0fdd: 21 50 01       LD    HL,$0150
0fe0: 22 01 C0       LD    (TANK_PIC_OR_MCP_ROWS_OF_BLOCKS),HL
0fe3: CD 3C 12       CALL  $123C
0fe6: CD 40 10       CALL  $1040
0fe9: 06 04          LD    B,#$04
0feb: CD 17 6F       CALL  RESET_WATCHDOG_UNTIL_C400_IS_ONE
0fee: 10 FB          DJNZ  $0FEB

0ff0: 2A 01 C0       LD    HL,(TANK_PIC_OR_MCP_ROWS_OF_BLOCKS)
0ff3: 2B             DEC   HL
0ff4: 7C             LD    A,H
0ff5: B5             OR    A,L
0ff6: 28 06          JR    Z,$0FFE

0ff8: 3A 07 C4       LD    A,($C407)
0ffb: B7             OR    A,A
0ffc: 28 E2          JR    Z,$0FE0

0ffe: C3 1D 11       JP    $111D

DATA_TO_101A_USED_AT_0F86?:
1001: C8 FC 1B 10 CA FC 22 10 CC FC 28 10 CE FC 2D 10 
1011: F8 FD 36 10 FA FD 3C 10 00 00 

PLEASE_S:
101b: PLEASE

ENTER_S:
1022: ENTER

YOUR_S:
1028: YOUR

INITIALS_S:
102d: INITIALS

ERASE_S:
1036: ERASE

END_S:
103c: END

1040: DB 02          IN    A,(IO_2)
1042: 2F             CPL   
1043: 4F             LD    C,A
1044: 3A 87 C6       LD    A,(FLIP_SCREEN_IF_VALUE_IS_01)
1047: B7             OR    A,A
1048: 28 08          JR    Z,$1052

104a: CB 39          SRL   C
104c: CB 39          SRL   C
104e: CB 39          SRL   C
1050: CB 39          SRL   C
1052: 79             LD    A,C
1053: E6 0C          AND   A,#$0C
1055: C8             RET   Z

1056: 21 14 C4       LD    HL,$C414
1059: E6 04          AND   A,#$04
105b: 28 07          JR    Z,$1064

105d: 7E             LD    A,(HL)
105e: B7             OR    A,A
105f: C8             RET   Z

1060: 35             DEC   (HL)
1061: C3 6C 10       JP    $106C

1064: 7E             LD    A,(HL)
1065: FE 1B          CP    A,#$1B
1067: C8             RET   Z

1068: 34             INC   (HL)
1069: C3 6C 10       JP    $106C

106c: 11 04 FE       LD    DE,$FE04
106f: 3A 03 C0       LD    A,($C003)
1072: 6F             LD    L,A
1073: 26 00          LD    H,#$00
1075: 29             ADD   HL,HL
1076: 19             ADD   HL,DE
1077: 44             LD    B,H
1078: 4D             LD    C,L
1079: FE 1A          CP    A,#$1A
107b: 20 08          JR    NZ,$1085

107d: 11 ED 10       LD    DE,ERASE2_S
1080: CD FF 6F       CALL  ADD_A_MESSAGE_TO_Q
1083: 18 20          JR    $10A5

1085: FE 1B          CP    A,#$1B
1087: 20 08          JR    NZ,$1091

1089: 11 F5 10       LD    DE,END2_S
108c: CD FF 6F       CALL  ADD_A_MESSAGE_TO_Q
108f: 18 14          JR    $10A5

1091: 3E 5E          LD    A,#$5E
1093: 02             LD    (BC),A
1094: 03             INC   BC
1095: 3E 51          LD    A,#$51
1097: 02             LD    (BC),A
1098: 21 BF FF       LD    HL,$FFBF
109b: 09             ADD   HL,BC
109c: 3A 03 C0       LD    A,($C003)
109f: C6 41          ADD   A,#$41
10a1: 77             LD    (HL),A
10a2: 23             INC   HL
10a3: 36 50          LD    (HL),#$50
10a5: 3A 14 C4       LD    A,($C414)
10a8: 32 03 C0       LD    ($C003),A
10ab: CB 27          SLA   A
10ad: CB 27          SLA   A
10af: CB 27          SLA   A
10b1: C6 10          ADD   A,#$10
10b3: CD 59 71       CALL  ADJUST_SPRITE_X_IF_FLIPPED_SCREEN
10b6: 32 06 F0       LD    ($F006),A
10b9: 11 04 FE       LD    DE,$FE04
10bc: 3A 14 C4       LD    A,($C414)
10bf: 6F             LD    L,A
10c0: 26 00          LD    H,#$00
10c2: 29             ADD   HL,HL
10c3: 19             ADD   HL,DE
10c4: 44             LD    B,H
10c5: 4D             LD    C,L
10c6: FE 1A          CP    A,#$1A
10c8: 20 06          JR    NZ,$10D0

10ca: 11 EE 10       LD    DE,$10EE
10cd: C3 FF 6F       JP    ADD_A_MESSAGE_TO_Q

10d0: FE 1B          CP    A,#$1B
10d2: 20 06          JR    NZ,$10DA

10d4: 11 F6 10       LD    DE,$10F6
10d7: C3 FF 6F       JP    ADD_A_MESSAGE_TO_Q

10da: 3A 14 C4       LD    A,($C414)
10dd: C6 41          ADD   A,#$41
10df: 77             LD    (HL),A
10e0: 23             INC   HL
10e1: 36 50          LD    (HL),#$50
10e3: 11 BF FF       LD    DE,$FFBF
10e6: 19             ADD   HL,DE
10e7: 36 5E          LD    (HL),#$5E
10e9: 23             INC   HL
10ea: 36 51          LD    (HL),#$51
10ec: C9             RET   

ERASE2_S:
10ed:  ERASE 

END2_S:
10f5:  END 

10fb: 21 45 C4       LD    HL,$C445
10fe: 3A 5F C4       LD    A,(PLAYER_NUMBER)
1101: B7             OR    A,A
1102: 28 03          JR    Z,$1107

1104: 21 4B C4       LD    HL,$C44B
1107: 11 16 C4       LD    DE,$C416
110a: 06 03          LD    B,#$03
110c: 7E             LD    A,(HL)
110d: CB 27          SLA   A
110f: CB 27          SLA   A
1111: CB 27          SLA   A
1113: CB 27          SLA   A
1115: 23             INC   HL
1116: B6             OR    A,(HL)
1117: 12             LD    (DE),A
1118: 13             INC   DE
1119: 23             INC   HL
111a: 10 F0          DJNZ  $110C

111c: C9             RET   

111d: DD 21 1F C5    LD    IX,$C51F
1121: 21 00 C0       LD    HL,CPU_RAM_OR_GS_DISK_X_TANK_X_OR_MCP_TRON_LEGS-LC_TRAILS_TO_C1DF
1124: 3E 0A          LD    A,#$0A
1126: 96             SUB   A,(HL)
1127: 28 1A          JR    Z,$1143

1129: 47             LD    B,A
112a: 11 FD FF       LD    DE,$FFFD
112d: DD 19          ADD   IX,DE
112f: DD 7E 00       LD    A,(IX+$00)
1132: DD 77 03       LD    (IX+$03),A
1135: DD 7E 01       LD    A,(IX+$01)
1138: DD 77 04       LD    (IX+$04),A
113b: DD 7E 02       LD    A,(IX+$02)
113e: DD 77 05       LD    (IX+$05),A
1141: 10 EA          DJNZ  $112D

1143: FD 21 DE FC    LD    IY,$FCDE
1147: 06 02          LD    B,#$02
1149: 11 C0 FF       LD    DE,$FFC0
114c: FD 7E 00       LD    A,(IY+$00)
114f: FE 5E          CP    A,#$5E
1151: 20 02          JR    NZ,$1155

1153: 3E 20          LD    A,#$20
1155: DD 77 00       LD    (IX+$00),A
1158: DD 23          INC   IX
115a: FD 19          ADD   IY,DE
115c: 10 EE          DJNZ  $114C

115e: 3A 22 C4       LD    A,(USER_LEVEL)
1161: DD 77 00       LD    (IX+$00),A
1164: C9             RET   

1165: 11 0C 12       LD    DE,YOUR_SCORE_S
1168: CD F4 6F       CALL  INCREASE_C40D_BY_4_AND_ADD_A_MESSAGE_TO_Q
116b: 11 17 12       LD    DE,RANKING_IS_S
116e: CD F4 6F       CALL  INCREASE_C40D_BY_4_AND_ADD_A_MESSAGE_TO_Q
1171: CD FB 10       CALL  $10FB
1174: 0E 65          LD    C,#$65
1176: DD 21 55 C6    LD    IX,$C655
117a: 21 16 C4       LD    HL,$C416
117d: 06 03          LD    B,#$03
117f: DD E5          PUSH  IX
1181: 7E             LD    A,(HL)
1182: DD BE 00       CP    A,(IX+$00)
1185: 38 2B          JR    C,$11B2

1187: 20 05          JR    NZ,$118E

1189: 23             INC   HL
118a: DD 23          INC   IX
118c: 10 F3          DJNZ  $1181

118e: DD E1          POP   IX
1190: 79             LD    A,C
1191: FE 65          CP    A,#$65
1193: 28 10          JR    Z,$11A5

1195: DD E5          PUSH  IX
1197: 06 03          LD    B,#$03
1199: DD 7E 00       LD    A,(IX+$00)
119c: DD 77 03       LD    (IX+$03),A
119f: DD 23          INC   IX
11a1: 10 F6          DJNZ  $1199

11a3: DD E1          POP   IX
11a5: 11 FD FF       LD    DE,$FFFD
11a8: DD 19          ADD   IX,DE
11aa: 0D             DEC   C
11ab: 79             LD    A,C
11ac: FE 01          CP    A,#$01
11ae: 20 CA          JR    NZ,$117A

11b0: 18 16          JR    $11C8

11b2: DD E1          POP   IX
11b4: 79             LD    A,C
11b5: FE 65          CP    A,#$65
11b7: 38 0F          JR    C,$11C8

11b9: 32 00 C0       LD    (CPU_RAM_OR_GS_DISK_X_TANK_X_OR_MCP_TRON_LEGS-LC_TRAILS_TO_C1DF),A
11bc: 11 22 12       LD    DE,NOT_IN_THE_TOP_S
11bf: CD F4 6F       CALL  INCREASE_C40D_BY_4_AND_ADD_A_MESSAGE_TO_Q
11c2: 11 31 12       LD    DE,100_SCORES_S
11c5: C3 F4 6F       JP    INCREASE_C40D_BY_4_AND_ADD_A_MESSAGE_TO_Q

11c8: 32 00 C0       LD    (CPU_RAM_OR_GS_DISK_X_TANK_X_OR_MCP_TRON_LEGS-LC_TRAILS_TO_C1DF),A
11cb: 21 16 C4       LD    HL,$C416
11ce: 06 03          LD    B,#$03
11d0: 7E             LD    A,(HL)
11d1: DD 77 03       LD    (IX+$03),A
11d4: 23             INC   HL
11d5: DD 23          INC   IX
11d7: 10 F7          DJNZ  $11D0

11d9: 21 05 C0       LD    HL,$C005
11dc: 3A 00 C0       LD    A,(CPU_RAM_OR_GS_DISK_X_TANK_X_OR_MCP_TRON_LEGS-LC_TRAILS_TO_C1DF)
11df: FE 64          CP    A,#$64
11e1: 38 05          JR    C,$11E8

11e3: 36 31          LD    (HL),#$31
11e5: 23             INC   HL
11e6: D6 64          SUB   A,#$64
11e8: 06 30          LD    B,#$30
11ea: FE 0A          CP    A,#$0A
11ec: 38 09          JR    C,$11F7

11ee: D6 0A          SUB   A,#$0A
11f0: 04             INC   B
11f1: FE 0A          CP    A,#$0A
11f3: 30 F9          JR    NC,$11EE

11f5: 70             LD    (HL),B
11f6: 23             INC   HL
11f7: C6 30          ADD   A,#$30
11f9: 77             LD    (HL),A
11fa: 23             INC   HL
11fb: 36 00          LD    (HL),#$00
11fd: 11 05 C0       LD    DE,$C005
1200: 2A 0D C4       LD    HL,($C40D)
1203: 01 80 FF       LD    BC,COLOR_RAM_TO_FFFF
1206: 09             ADD   HL,BC
1207: 44             LD    B,H
1208: 4D             LD    C,L
1209: C3 FF 6F       JP    ADD_A_MESSAGE_TO_Q

YOUR_SCORE_S:
120c: YOUR SCORE

RANKING_IS_S:
1217: RANKING IS

NOT_IN_THE_TOP_S:
1222: NOT IN THE TOP

100_SCORES_S:
1231: 100 SCORES

123c: DB 00          IN    A,(IO_0)
123e: 2F             CPL   
123f: E6 0C          AND   A,#$0C
1241: 20 39          JR    NZ,$127C

1243: 3A 87 C6       LD    A,(FLIP_SCREEN_IF_VALUE_IS_01)
1246: B7             OR    A,A
1247: 20 06          JR    NZ,$124F

1249: DB 00          IN    A,(IO_0)
124b: E6 10          AND   A,#$10
124d: 18 04          JR    $1253

124f: DB 03          IN    A,(IO_3)
1251: E6 80          AND   A,#$80
1253: 21 13 C4       LD    HL,$C413
1256: BE             CP    A,(HL)
1257: C8             RET   Z

1258: 77             LD    (HL),A
1259: B7             OR    A,A
125a: C0             RET   NZ

125b: 21 04 C0       LD    HL,$C004
125e: 3A 14 C4       LD    A,($C414)
1261: FE 1A          CP    A,#$1A
1263: 20 13          JR    NZ,$1278

1265: 7E             LD    A,(HL)
1266: FE 02          CP    A,#$02
1268: C8             RET   Z

1269: 34             INC   (HL)
126a: 11 40 00       LD    DE,$0040
126d: FD 19          ADD   IY,DE
126f: FD 36 00 5E    LD    (IY+$00),#$5E
1273: FD 36 01 51    LD    (IY+$01),#$51
1277: C9             RET   

1278: FE 1B          CP    A,#$1B
127a: 20 04          JR    NZ,$1280

127c: 32 07 C4       LD    ($C407),A
127f: C9             RET   

1280: 7E             LD    A,(HL)
1281: B7             OR    A,A
1282: C8             RET   Z

1283: 3A 14 C4       LD    A,($C414)
1286: C6 41          ADD   A,#$41
1288: FD 77 00       LD    (IY+$00),A
128b: FD 36 01 50    LD    (IY+$01),#$50
128f: 11 C0 FF       LD    DE,$FFC0
1292: FD 19          ADD   IY,DE
1294: 35             DEC   (HL)
1295: C0             RET   NZ

1296: 3E 1B          LD    A,#$1B
1298: 32 14 C4       LD    ($C414),A
129b: C3 6C 10       JP    $106C

129e: 21 6C C6       LD    HL,$C66C
12a1: DD 21 2D 13    LD    IX,DATA_FOR_???_TO_133E
12a5: 06 09          LD    B,#$09
12a7: 3A 1A C4       LD    A,(PLAYING_HOW_LONG_NOW_TO_C41C)
12aa: DD BE 00       CP    A,(IX+$00)
12ad: 38 14          JR    C,$12C3

12af: 20 0A          JR    NZ,$12BB

12b1: 3A 1B C4       LD    A,(CURRENT_PLAYER_DATA_BYTE_02)
12b4: DD BE 01       CP    A,(IX+$01)
12b7: 38 0A          JR    C,$12C3

12b9: 28 08          JR    Z,$12C3

12bb: 23             INC   HL
12bc: 23             INC   HL
12bd: DD 23          INC   IX
12bf: DD 23          INC   IX
12c1: 10 E4          DJNZ  $12A7

12c3: 34             INC   (HL)
12c4: 20 2B          JR    NZ,$12F1

12c6: 23             INC   HL
12c7: 34             INC   (HL)
12c8: 20 27          JR    NZ,$12F1

12ca: 35             DEC   (HL)
12cb: 2B             DEC   HL
12cc: 35             DEC   (HL)
12cd: 06 0A          LD    B,#$0A
12cf: 11 00 FF       LD    DE,$FF00
12d2: DD 21 6C C6    LD    IX,$C66C
12d6: DD 6E 00       LD    L,(IX+$00)
12d9: DD 66 01       LD    H,(IX+$01)
12dc: 7C             LD    A,H
12dd: B7             OR    A,A
12de: 28 03          JR    Z,$12E3

12e0: 19             ADD   HL,DE
12e1: 18 02          JR    $12E5

12e3: 2E 00          LD    L,#$00
12e5: DD 75 00       LD    (IX+$00),L
12e8: DD 74 01       LD    (IX+$01),H
12eb: DD 23          INC   IX
12ed: DD 23          INC   IX
12ef: 10 E5          DJNZ  $12D6

12f1: 21 28 C5       LD    HL,$C528
12f4: 3A 1A C4       LD    A,(PLAYING_HOW_LONG_NOW_TO_C41C)
12f7: BE             CP    A,(HL)
12f8: 38 16          JR    C,$1310

12fa: 20 07          JR    NZ,$1303

12fc: 23             INC   HL
12fd: 3A 1B C4       LD    A,(CURRENT_PLAYER_DATA_BYTE_02)
1300: BE             CP    A,(HL)
1301: 38 0D          JR    C,$1310

1303: 3A 1A C4       LD    A,(PLAYING_HOW_LONG_NOW_TO_C41C)
1306: 32 28 C5       LD    ($C528),A
1309: 3A 1B C4       LD    A,(CURRENT_PLAYER_DATA_BYTE_02)
130c: 32 29 C5       LD    ($C529),A
130f: C9             RET   

1310: 21 2A C5       LD    HL,$C52A
1313: 3A 1A C4       LD    A,(PLAYING_HOW_LONG_NOW_TO_C41C)
1316: BE             CP    A,(HL)
1317: 38 07          JR    C,$1320

1319: C0             RET   NZ

131a: 3A 1B C4       LD    A,(CURRENT_PLAYER_DATA_BYTE_02)
131d: 23             INC   HL
131e: BE             CP    A,(HL)
131f: D0             RET   NC

1320: 3A 1A C4       LD    A,(PLAYING_HOW_LONG_NOW_TO_C41C)
1323: 32 2A C5       LD    ($C52A),A
1326: 3A 1B C4       LD    A,(CURRENT_PLAYER_DATA_BYTE_02)
1329: 32 2B C5       LD    ($C52B),A
132c: C9             RET   

DATA_FOR_???_TO_133E:
132d: 00 30 01 00 01 30 02 00 02 30 03 00 04 00 05 00 
133d: 06 00 

133f: 21 58 C6       LD    HL,$C658
1342: DD 21 F7 13    LD    IX,DATA_FOR_???_TO_14FF
1346: 06 09          LD    B,#$09
1348: 3A 16 C4       LD    A,($C416)
134b: DD BE 00       CP    A,(IX+$00)
134e: 8  

1351: 14             INC   D
1352: 3A 17 C4       LD    A,($C417)
1355: DD BE 01       CP    A,(IX+$01)
1358: 38 16          JR    C,$1370

135a: 20 0A          JR    NZ,$1366

135c: 3A 18 C4       LD    A,($C418)
135f: DD BE 02       CP    A,(IX+$02)
1362: 38 0C          JR    C,$1370

1364: 28 0A          JR    Z,$1370

1366: 23             INC   HL
1367: 23             INC   HL
1368: DD 23          INC   IX
136a: DD 23          INC   IX
136c: DD 23          INC   IX
136e: 10 D8          DJNZ  $1348

1370: 34             INC   (HL)
1371: 20 2B          JR    NZ,$139E

1373: 23             INC   HL
1374: 34             INC   (HL)
1375: 20 27          JR    NZ,$139E

1377: 35             DEC   (HL)
1378: 2B             DEC   HL
1379: 35             DEC   (HL)
137a: 06 0A          LD    B,#$0A
137c: 11 00 FF       LD    DE,$FF00
137f: DD 21 6C C6    LD    IX,$C66C
1383: DD 6E 00       LD    L,(IX+$00)
1386: DD 66 01       LD    H,(IX+$01)
1389: 7C             LD    A,H
138a: B7             OR    A,A
138b: 28 03          JR    Z,$1390

138d: 19             ADD   HL,DE
138e: 18 02          JR    $1392

1390: 2E 00          LD    L,#$00
1392: DD 75 00       LD    (IX+$00),L
1395: DD 74 01       LD    (IX+$01),H
1398: DD 23          INC   IX
139a: DD 23          INC   IX
139c: 10 E5          DJNZ  $1383

139e: 21 22 C5       LD    HL,$C522
13a1: 3A 16 C4       LD    A,($C416)
13a4: BE             CP    A,(HL)
13a5: 38 25          JR    C,$13CC

13a7: 20 10          JR    NZ,$13B9

13a9: 23             INC   HL
13aa: 3A 17 C4       LD    A,($C417)
13ad: BE             CP    A,(HL)
13ae: 38 1C          JR    C,$13CC

13b0: 20 07          JR    NZ,$13B9

13b2: 23             INC   HL
13b3: 3A 18 C4       LD    A,($C418)
13b6: BE             CP    A,(HL)
13b7: 38 13          JR    C,$13CC

13b9: 3A 16 C4       LD    A,($C416)
13bc: 32 22 C5       LD    ($C522),A
13bf: 3A 17 C4       LD    A,($C417)
13c2: 32 23 C5       LD    ($C523),A
13c5: 3A 18 C4       LD    A,($C418)
13c8: 32 24 C5       LD    ($C524),A
13cb: C9             RET   

13cc: 21 25 C5       LD    HL,$C525
13cf: 3A 16 C4       LD    A,($C416)
13d2: BE             CP    A,(HL)
13d3: 38 0F          JR    C,$13E4

13d5: C0             RET   NZ

13d6: 3A 17 C4       LD    A,($C417)
13d9: 23             INC   HL
13da: BE             CP    A,(HL)
13db: 38 07          JR    C,$13E4

13dd: C0             RET   NZ

13de: 23             INC   HL
13df: 3A 18 C4       LD    A,($C418)
13e2: BE             CP    A,(HL)
13e3: D0             RET   NC

13e4: 3A 16 C4       LD    A,($C416)
13e7: 32 25 C5       LD    ($C525),A
13ea: 3A 17 C4       LD    A,($C417)
13ed: 32 26 C5       LD    ($C526),A
13f0: 3A 18 C4       LD    A,($C418)
13f3: 32 27 C5       LD    ($C527),A
13f6: C9             RET   

DATA_FOR_???_TO_14FF:
13f7: 00 50 00 01 00 00 02 00 00 03 00 00 04 00 00 05 
1407: 00 00 07 50 00 10 00 00 15 00 00 30 44 96 D4 C4 
1417: 14 00 1D 20 03 25 8D 01 25 74 8E 95 88 B0 80 66 
1427: C5 42 4C 04 0F 40 D0 46 A5 35 56 1C 


*** Is this a string or an oops?  Remove and merge data?
1433: X01

1436: 99 01 02 0C B4 95 90 03 06 00 00 8F 19 0E 83 65 
1446: D1 10 62 32 0C 35 5E 34 20 64 70 0E C7 14 94 24 
1456: 1D 3E 07 3D 84 12 93 07 3D 01 04 B4 61 BE 77 0C 
1466: 5C AC 54 38 C6 4C CB 54 8C 24 B4 50 36 0A 30 09 
1476: 40 47 9D 06 C0 23 80 21 30 7E 6F B9 BB 9F EB CB 
1486: 5B E7 7C 68 1A E3 33 E7 FC D2 76 FA 4F 33 FB C0 
1496: 3B EF F9 5F A7 AB F6 6F 3A D5 EB 7C 88 E9 D8 4B 
14a6: 7B 7B 4B 6D B3 A8 EA 6D 2B 49 F9 E8 EA 6E AA 77 
14b6: 4F FB BA 99 EB 7B 4E B1 FF 9E 2B B2 AB D9 D3 26 
14c6: B9 DF 9F 74 D3 87 EA F3 F2 FA F6 25 5B 6F A7 6B 
14d6: 71 6C F3 F9 E9 E8 52 C7 73 F6 FB E7 6A B9 6B 2A 
14e6: 9B EB 83 E3 E3 FE 7D FE 9B FA FB 83 3C 7A 27 77 
14f6: 83 E6 36 F7 B7 8B B3 2C B8 4B 

PICK_WHICH_INSTRUCTIONS_TO_PRINT:
1500: 21 C0 90       LD    HL,COLOR_PALETTE_FOR_5?
1503: CD 35 6F       CALL  COPY_20_FROM_HL_TO_FF80
1506: CD 49 70       CALL  INITIALIZE_SPRITES
1509: CD C7 6F       CALL  CLEAR_BACKGROUND
150c: 21 27 15       LD    HL,$1527
150f: 3A 61 C4       LD    A,(WHICH_INSTRUCTIONS_TO_DISPLAY?_VECTOR_LIST_AT_1527?)
1512: 87             ADD   A,A
1513: CD 00 6F       CALL  ADD_A_TO_HL_WITH_CARRY
1516: 5E             LD    E,(HL)
1517: 23             INC   HL
1518: 56             LD    D,(HL)
1519: 3A 61 C4       LD    A,(WHICH_INSTRUCTIONS_TO_DISPLAY?_VECTOR_LIST_AT_1527?)
151c: 3C             INC   A
151d: FE 07          CP    A,#$07
151f: 20 01          JR    NZ,$1522

1521: AF             XOR   A,A
1522: 32 61 C4       LD    (WHICH_INSTRUCTIONS_TO_DISPLAY?_VECTOR_LIST_AT_1527?),A
1525: EB             EX    DE,HL
1526: E9             JP    (HL)
1527: 58 15 5C 16 55 17 36 19 B9 1C 69 1B 52 1A 

1535: 01 C0 00       LD    BC,$00C0
SUBROUTINE_THAT_DOES_WHAT?:
1538: CD 17 6F       CALL  RESET_WATCHDOG_UNTIL_C400_IS_ONE
153b: CD 45 15       CALL  $1545
153e: C0             RET   NZ

153f: 0B             DEC   BC
1540: 78             LD    A,B
1541: B1             OR    A,C
1542: 20 F4          JR    NZ,SUBROUTINE_THAT_DOES_WHAT?

1544: C9             RET   

1545: 3A 01 C5       LD    A,(CREDITS)
1548: 21 15 C4       LD    HL,$C415
154b: BE             CP    A,(HL)
154c: C0             RET   NZ

154d: B7             OR    A,A
154e: 28 06          JR    Z,$1556

1550: DB 00          IN    A,(IO_0)
1552: 2F             CPL   
1553: E6 0C          AND   A,#$0C
1555: C0             RET   NZ

1556: AF             XOR   A,A
1557: C9             RET   

DISPLAY_RANKINGS_SCREEN:
1558: 01 C8 FC       LD    BC,$FCC8
155b: 11 53 16       LD    DE,RANKINGS_S
155e: CD FF 6F       CALL  ADD_A_MESSAGE_TO_Q
1561: 06 01          LD    B,#$01
1563: 21 0C FE       LD    HL,$FE0C
1566: DD 21 04 C5    LD    IX,HIGH_SCORES_INITIALS_AND_LEVEL
156a: FD 21 2C C5    LD    IY,HIGH_SCORES_DIGITS_3BYTES_BCD
156e: 78             LD    A,B
156f: FE 0B          CP    A,#$0B
1571: CA 1C 16       JP    Z,$161C

1574: E5             PUSH  HL
1575: FE 0A          CP    A,#$0A
1577: 28 08          JR    Z,$1581

1579: C6 30          ADD   A,#$30
157b: 77             LD    (HL),A
157c: 23             INC   HL
157d: 36 50          LD    (HL),#$50
157f: 18 12          JR    $1593

1581: 36 30          LD    (HL),#$30
1583: 23             INC   HL
1584: 36 50          LD    (HL),#$50
1586: 11 3F 00       LD    DE,$003F
1589: 19             ADD   HL,DE
158a: 36 31          LD    (HL),#$31
158c: 23             INC   HL
158d: 36 50          LD    (HL),#$50
158f: 11 C0 FF       LD    DE,$FFC0
1592: 19             ADD   HL,DE
1593: 11 3F FF       LD    DE,$FF3F
1596: 19             ADD   HL,DE
1597: 0E 02          LD    C,#$02
1599: 11 BF FF       LD    DE,$FFBF
159c: DD 7E 00       LD    A,(IX+$00)
159f: FE 20          CP    A,#$20
15a1: 20 07          JR    NZ,$15AA

15a3: 36 5E          LD    (HL),#$5E
15a5: 23             INC   HL
15a6: 36 51          LD    (HL),#$51
15a8: 18 04          JR    $15AE

15aa: 77             LD    (HL),A
15ab: 23             INC   HL
15ac: 36 50          LD    (HL),#$50
15ae: DD 23          INC   IX
15b0: 19             ADD   HL,DE
15b1: 0D             DEC   C
15b2: 20 E8          JR    NZ,$159C

15b4: DD 23          INC   IX
15b6: 11 C0 FF       LD    DE,$FFC0
15b9: 19             ADD   HL,DE
15ba: 0E 03          LD    C,#$03
15bc: 11 BF FF       LD    DE,$FFBF
15bf: AF             XOR   A,A
15c0: 32 00 C0       LD    (CPU_RAM_OR_GS_DISK_X_TANK_X_OR_MCP_TRON_LEGS-LC_TRAILS_TO_C1DF),A

*** print out high scores
15c3: FD 7E 00       LD    A,(IY+$00)
15c6: CB 3F          SRL   A
15c8: CB 3F          SRL   A
15ca: CB 3F          SRL   A
15cc: CB 3F          SRL   A
15ce: C6 30          ADD   A,#$30
15d0: FE 30          CP    A,#$30
15d2: 20 0D          JR    NZ,$15E1

15d4: 3A 00 C0       LD    A,(CPU_RAM_OR_GS_DISK_X_TANK_X_OR_MCP_TRON_LEGS-LC_TRAILS_TO_C1DF)
15d7: B7             OR    A,A
15d8: 20 05          JR    NZ,$15DF

15da: 23             INC   HL
15db: 36 51          LD    (HL),#$51
15dd: 18 09          JR    $15E8

15df: 3E 30          LD    A,#$30
15e1: 2

15e3: C0             RET   NZ

15e4: 77             LD    (HL),A
15e5: 23             INC   HL
15e6: 36 50          LD    (HL),#$50
15e8: 19             ADD   HL,DE
15e9: FD 7E 00       LD    A,(IY+$00)
15ec: E6 0F          AND   A,#$0F
15ee: C6 30          ADD   A,#$30
15f0: FE 30          CP    A,#$30
15f2: 20 12          JR    NZ,$1606

15f4: 3A 00 C0       LD    A,(CPU_RAM_OR_GS_DISK_X_TANK_X_OR_MCP_TRON_LEGS-LC_TRAILS_TO_C1DF)
15f7: B7             OR    A,A
15f8: 20 0A          JR    NZ,$1604

15fa: 79             LD    A,C
15fb: FE 01          CP    A,#$01
15fd: 28 05          JR    Z,$1604

15ff: 23             INC   HL
1600: 36 51          LD    (HL),#$51
1602: 18 09          JR    $160D

1604: 3E 30          LD    A,#$30
1606: 2

1608: C0             RET   NZ

1609: 77             LD    (HL),A
160a: 23             INC   HL
160b: 36 50          LD    (HL),#$50
160d: FD 23          INC   IY
160f: 19             ADD   HL,DE
1610: 0D             DEC   C
1611: 20 B0          JR    NZ,$15C3

1613: E1             POP   HL
1614: 23             INC   HL
1615: 23             INC   HL
1616: 23             INC   HL
1617: 23             INC   HL
1618: 04             INC   B
1619: C3 6E 15       JP    $156E


*** print out user level (programming language)
161c: DD 21 06 C5    LD    IX,$C506
1620: 01 8C FA       LD    BC,$FA8C
1623: 3E 0A          LD    A,#$0A
1625: 32 00 C0       LD    (CPU_RAM_OR_GS_DISK_X_TANK_X_OR_MCP_TRON_LEGS-LC_TRAILS_TO_C1DF),A
1628: DD 7E 00       LD    A,(IX+$00)
162b: FE 0C          CP    A,#$0C
162d: 38 02          JR    C,$1631

162f: 3E 0B          LD    A,#$0B
1631: 87             ADD   A,A
1632: 21 26 B1       LD    HL,VECTOR_OF_USER_LEVEL_STRINGS
1635: CD 00 6F       CALL  ADD_A_TO_HL_WITH_CARRY
1638: 5E             LD    E,(HL)
1639: 23             INC   HL
163a: 56             LD    D,(HL)
163b: CD FF 6F       CALL  ADD_A_MESSAGE_TO_Q
163e: 11 03 00       LD    DE,$0003
1641: DD 19          ADD   IX,DE
1643: 03             INC   BC
1644: 03             INC   BC
1645: 03             INC   BC
1646: 03             INC   BC
1647: 21 00 C0       LD    HL,CPU_RAM_OR_GS_DISK_X_TANK_X_OR_MCP_TRON_LEGS-LC_TRAILS_TO_C1DF
164a: 35             DEC   (HL)
164b: 20 DB          JR    NZ,$1628

164d: 01 80 00       LD    BC,$0080
1650: C3 38 15       JP    SUBROUTINE_THAT_DOES_WHAT?

RANKINGS_S:
1653: RANKINGS

DISPLAY_POINT_VALUES_SCREEN:
165c: 01 CA FC       LD    BC,$FCCA
165f: 11 AB 16       LD    DE,POINT_VALUES_S
1662: CD FF 6F       CALL  ADD_A_MESSAGE_TO_Q
1665: DD 21 B8 16    LD    IX,DATA_FOR_???_TO_16D6
1669: FD 21 04 F0    LD    IY,TANK_BODY_OR_LC_OR_IO_OR_MCP_TRON_AND_DISK_TORSO_LEGS_LEFT_DISK_RIGHT
166d: DD 7E 00       LD    A,(IX+$00)
1670: B7             OR    A,A
1671: CA 35 15       JP    Z,$1535

1674: FD 77 02       LD    (IY+$02),A
1677: DD 7E 01       LD    A,(IX+$01)
167a: FD 77 00       LD    (IY+$00),A
167d: DD 7E 02       LD    A,(IX+$02)
1680: FD 77 01       LD    (IY+$01),A
1683: 11 04 00       LD    DE,$0004
1686: FD 19          ADD   IY,DE
1688: 11 03 00       LD    DE,$0003
168b: DD 19          ADD   IX,DE
168d: DD 7E 00       LD    A,(IX+$00)
1690: B7             OR    A,A
1691: 20 E1          JR    NZ,$1674

1693: DD 23          INC   IX
1695: DD 4E 00       LD    C,(IX+$00)
1698: DD 46 01       LD    B,(IX+$01)
169b: DD 5E 02       LD    E,(IX+$02)
169e: DD 56 03       LD    D,(IX+$03)
16a1: CD FF 6F       CALL  ADD_A_MESSAGE_TO_Q
16a4: 11 04 00       LD    DE,$0004
16a7: DD 19          ADD   IX,DE
16a9: 18 C2          JR    $166D

POINT_VALUES_S:
16ab: POINT VALUES

DATA_FOR_???_TO_16D6:
16b8: 48 48 08 00 D2 FC E7 16 60 48 11 00 D8 FC F6 16 
16c8: 78 48 2F 00 DE FC 05 17 A0 40 31 A0 50 36 90 

16d7: H9


*** Data used where for what?
16da: E6 FC 14 17 B8 48 0C 00 EE FC 23 17 00 

TANKS______500_S:
16e7: TANKS      500

GRID_BUGS___50_S:
16f6: GRID BUGS   50

CYCLES_____500_S:
1705: CYCLES     500

MCP_BLOCKS__25_S:
1714: MCP BLOCKS  25

BIT_______5000_S:
1723: BIT       5000

PUT_STRINGS_IN_MSG_Q_DEST=IX+0_SRC=IX+2_END_WHEN_SRC=0000:
1732: DD 4E 00       LD    C,(IX+$00)
1735: DD 46 01       LD    B,(IX+$01)
1738: 78             LD    A,B
1739: B1             OR    A,C
173a: 28 10          JR    Z,$174C

173c: DD 5E 02       LD    E,(IX+$02)
173f: DD 56 03       LD    D,(IX+$03)
1742: CD FF 6F       CALL  ADD_A_MESSAGE_TO_Q
1745: 11 04 00       LD    DE,$0004
1748: DD 19          ADD   IX,DE
174a: 18 E6          JR    PUT_STRINGS_IN_MSG_Q_DEST=IX+0_SRC=IX+2_END_WHEN_SRC=0000

174c: DD 4E 02       LD    C,(IX+$02)
174f: DD 46 03       LD    B,(IX+$03)
1752: C3 38 15       JP    SUBROUTINE_THAT_DOES_WHAT?

DISPLAY_MAP_OF_GAME_GRID_SCREENS:
1755: DD 21 66 17    LD    IX,$1766
1759: CD 32 17       CALL  PUT_STRINGS_IN_MSG_Q_DEST=IX+0_SRC=IX+2_END_WHEN_SRC=0000
175c: CD C7 6F       CALL  CLEAR_BACKGROUND
175f: DD 21 8A 17    LD    IX,$178A
1763: C3 32 17       JP    PUT_STRINGS_IN_MSG_Q_DEST=IX+0_SRC=IX+2_END_WHEN_SRC=0000

1766: 88 FD BA 17 8E FE CB 17 92 FE D9 17 96 FE ED 17 
1776: 9A FE 00 18 A0 FE 13 18 A4 FE 2C 18 A8 FE 3E 18 
1786: 00 00 

1788: 00 01 

178a: 88 FD BA 17 8E FE 50 18 92 FE 69 18 96 FE 84 18 
179a: 9A FE 9C 18 9E FE B5 18 A4 FE C4 18 A8 FE DF 18 
17aa: AC FE F8 18 B0 FE 12 19 B4 FE 2C 19 00 00 

17b8: 00 01 
                                          ;Is this data?
                                          ;Is this data?

MAP_OF_GAME_GRID_S:
17ba: MAP OF GAME GRID

PLAYER____DOT_S:
17cb: PLAYER    DOT

JOYSTICK__MOVES_DOT_S:
17d9: JOYSTICK  MOVES DOT

TRIGGER___NOT_USED_S:
17ed: TRIGGER   NOT USED

KNOB______NOT_USED_S:
1800: KNOB      NOT USED

TRON_CONSISTS_OF_4_GAMES_S:
1813: TRON CONSISTS OF 4 GAMES

EACH_COLORED_AREA_S:
182c: EACH COLORED AREA

REPRESENTS_A_GAME_S:
183e: REPRESENTS A GAME

SELECT_AN_AREA_BY_MOVING_S:
1850: SELECT AN AREA BY MOVING

TO_THE_OUTSIDE_EDGE_OF_THE_S:
1869: TO THE OUTSIDE EDGE OF THE

CIRCLE_BEFORE_THE_TIMER_S:
1884: CIRCLE BEFORE THE TIMER

INSIDE_THE_CENTER_OF_THE_S:
189c: INSIDE THE CENTER OF THE

CIRCLE_EXPIRES_S:
18b5: CIRCLE EXPIRES

UPON_SUCCESSFUL_COMPLETION_S:
18c4: UPON SUCCESSFUL COMPLETION

OF_A_GAME_IN_AN_AREA_THE_S:
18df: OF A GAME IN AN AREA THE

AREA_CAN_NOT_BE_REENTERED_S:
18f8: AREA CAN NOT BE REENTERED

UNTIL_ALL_AREAS_HAVE_BEEN_S:
1912: UNTIL ALL AREAS HAVE BEEN

CONQUERED_S:
192c: CONQUERED

DISPLAY_TANK_GAME_SCREEN:
1936: DD 21 3D 19    LD    IX,DATA_3?
193a: C3 32 17       JP    PUT_STRINGS_IN_MSG_Q_DEST=IX+0_SRC=IX+2_END_WHEN_SRC=0000

DATA_3?:
193d: 88 FD 71 19 8E FE 7B 19 92 FE 8E 19 96 FE A3 19 
194d: 9A FE B8 19 A0 FE CC 19 A4 FE E4 19 A8 FE F7 19 
195d: AC FE 09 1A B0 FD 13 1A B4 FD 28 1A B8 FD 3D 1A 
196d: 00 00 

196f: 00 01 

TANK_GAME_S:
1971: TANK GAME

PLAYER____RED_TANK_S:
197b: PLAYER    RED TANK

JOYSTICK__MOVES_TANK_S:
198e: JOYSTICK  MOVES TANK

TRIGGER___FIRES_DISK3_S:
19a3: TRIGGER   FIRES DISK

KNOB______AIMS_DISK_S:
19b8: KNOB      AIMS DISK

DESTROY_ALL_ENEMY_TANKS_S:
19cc: DESTROY ALL ENEMY TANKS

EACH_ENEMY_MUST_BE_S:
19e4: EACH ENEMY MUST BE

HIT_3_TIMES_TO_BE_S:
19f7: HIT 3 TIMES TO BE

DESTROYED_S:
1a09: DESTROYED

1ST_HIT___100_POINTS_S:
1a13: 1ST HIT   100 POINTS

2ND_HIT___300_POINTS_S:
1a28: 2ND HIT   300 POINTS

3RD_HIT___500_POINTS_S:
1a3d: 3RD HIT   500 POINTS

DISPLAY_CYCLE_GAME_SCREEN:
1a52: DD 21 59 1A    LD    IX,$1A59
1a56: C3 32 17       JP    PUT_STRINGS_IN_MSG_Q_DEST=IX+0_SRC=IX+2_END_WHEN_SRC=0000

1a59: 88 FD 89 1A 8E FE 94 1A 92 FE A9 1A 96 FE BF 1A 
1a69: 9A FE D7 1A A0 FE EA 1A A4 FE 03 1B AA FE 1A 1B 
1a79: AE FE 2B 1B B2 FE 42 1B B6 FE 5C 1B 00 00 

1a87: 00 01 

CYCLE_GAME_S:
1a89: CYCLE GAME

PLAYER____BLUE_CYCLE_S:
1a94: PLAYER    BLUE CYCLE

JOYSTICK__MOVES_CYCLE_S:
1aa9: JOYSTICK  MOVES CYCLE

TRIGGER___SPEED_CONTROL_S:
1abf: TRIGGER   SPEED CONTROL

KNOB______NOT_USED2_S:
1ad7: KNOB      NOT USED

TOUCHING_A_WALL_OR_LIGHT_S:
1aea: TOUCHING A WALL OR LIGHT

TRACE_DESTROYS_A_CYCLE_S:
1b03: TRACE DESTROYS A CYCLE

MAKE_LIGHT_PATHS_S:
1b1a: MAKE LIGHT PATHS

WHICH_FORCE_THE_YELLOW_S:
1b2b: WHICH FORCE THE YELLOW

CYCLES_INTO_THE_WALLS_AND_S:
1b42: CYCLES INTO THE WALLS AND

LIGHT_TRACES_S:
1b5c: LIGHT TRACES

DISPLAY_IO_TOWER_GAME_SCREENS:
1b69: DD 21 7A 1B    LD    IX,$1B7A
1b6d: CD 32 17       CALL  PUT_STRINGS_IN_MSG_Q_DEST=IX+0_SRC=IX+2_END_WHEN_SRC=0000
1b70: CD C7 6F       CALL  CLEAR_BACKGROUND
1b73: DD 21 9E 1B    LD    IX,$1B9E
1b77: C3 32 17       JP    PUT_STRINGS_IN_MSG_Q_DEST=IX+0_SRC=IX+2_END_WHEN_SRC=0000

1b7a: 88 FD C2 1B 8E FE D0 1B 92 FE DE 1B 96 FE F3 1B 
1b8a: 9A FE 08 1C A0 FE 1C 1C A4 FE 2F 1C A8 FE 40 1C 
1b9a: 00 00 

1b9c: 00 01 

1b9e: 88 FD C2 1B 8E FE 48 1C 92 FE 5C 1C 96 FE 6C 1C 
1bae: 9C FE 72 1C A0 FE 85 1C A4 FE 98 1C A8 FE A8 1C 
1bbe: 00 00 

1bc0: 00 01 

IO_TOWER_GAME_S:
1bc2: IO TOWER GAME

PLAYER___TRON_S:
1bd0: PLAYER   TRON

JOYSTICK__MOVES_TRON_S:
1bde: JOYSTICK  MOVES TRON

TRIGGER___FIRES_DISK_S:
1bf3: TRIGGER   FIRES DISK

KNOB______AIMS_DISK2_S:
1c08: KNOB      AIMS DISK

ENTER_THE_IO_TOWER_S:
1c1c: ENTER THE IO TOWER

BEFORE_THE_TIMER_S:
1c2f: BEFORE THE TIMER

EXPIRES_S:
1c40: EXPIRES

TOUCHING_A_GRID_BUG_S:
1c48: TOUCHING A GRID BUG

RESULTS_IN_TRON_S:
1c5c: RESULTS IN TRON

DEREZ_S:
1c6c: DEREZ

THE_TIMER_VALUE_IS_S:
1c72: THE TIMER VALUE IS

AWARDED_AS_A_BONUS_S:
1c85: AWARDED AS A BONUS

WHEN_THE_PLAYER_S:
1c98: WHEN THE PLAYER

ENTERS_THE_TOWER_S:
1ca8: ENTERS THE TOWER

DISPLAY_MCP_GAME_SCREENS:
1cb9: DD 21 CA 1C    LD    IX,$1CCA
1cbd: CD 32 17       CALL  PUT_STRINGS_IN_MSG_Q_DEST=IX+0_SRC=IX+2_END_WHEN_SRC=0000
1cc0: CD C7 6F       CALL  CLEAR_BACKGROUND
1cc3: DD 21 EE 1C    LD    IX,$1CEE
1cc7: C3 32 17       JP    PUT_STRINGS_IN_MSG_Q_DEST=IX+0_SRC=IX+2_END_WHEN_SRC=0000

1cca: 88 FD 0E 1D 8E FE 17 1D 92 FE 26 1D 96 FE 3B 1D 
1cda: 9A FE 50 1D A0 FE 64 1D A4 FE 7D 1D A8 FE 92 1D 
1cea: 00 00 

1cec: 00 01 

1cee: 88 FD 0E 1D 8E FE A3 1D 92 FE BD 1D 98 FE CB 1D 
1cfe: 9C FE E3 1D A2 FE EC 1D A6 FE 06 1E 00 00 

1d0c: 00 01 

MCP_GAME_S:
1d0e: MCP GAME

PLAYER____TRON_S:
1d17: PLAYER    TRON

JOYSTICK__MOVES_TRON2_S:
1d26: JOYSTICK  MOVES TRON

TRIGGER___FIRES_DISK2_S:
1d3b: TRIGGER   FIRES DISK

KNOB______AIMS_DISK3_S:
1d50: KNOB      AIMS DISK

ENTER_THE_MASTER_CONTROL_S:
1d64: ENTER THE MASTER CONTROL

PROGRAM_CONE_WITHOUT_S:
1d7d: PROGRAM CONE WITHOUT

TOUCHING_A_BLOCK_S:
1d92: TOUCHING A BLOCK

REMOVE_BLOCKS_BY_STRIKING_S:
1da3: REMOVE BLOCKS BY STRIKING

WITH_THE_DISK_S:
1dbd: WITH THE DISK

1000_BONUS_FOR_ENTERING_S:
1dcb: 1000 BONUS FOR ENTERING

THE_CONE_S:
1de3: THE CONE

1000_BONUS_FOR_DESTROYING_S:
1dec: 1000 BONUS FOR DESTROYING

ALL_BLOCKS_S:
1e06: ALL BLOCKS


*** Data for what used where?
1e11: 33 AB EB 4B BB E2 E9 B7 EF 1E 7D E9 BB 6B 22 FE 
1e21: E3 A0 DF 88 F9 2A AF EB FF A2 39 FF E3 EA A9 A2 
1e31: EB 7F 49 8F FF EA A3 5F AB AB 3F F0 E6 FC A2 DB 
1e41: FF FE 67 97 FB DB BF CB EB FD 6D 6B F9 F7 6B 6B 
1e51: 5B EF BB 63 E3 26 E3 EA ED 0F 78 B5 BD EF E9 CB 
1e61: 6F 5F 79 FF EB F9 6C FA 6D 72 FA FD FF EB 6B EA 
1e71: E3 EA 6D AD 5F EB F8 EF D1 5F FF FF FF F6 FB 75 
1e81: 51 65 E8 04 8C 1C 50 44 4B 31 1C 0C E0 ED 36 24 
1e91: 98 04 49 98 04 74 44 0C 42 0C 95 66 24 24 44 10 
1ea1: 46 63 7C 24 7B 08 02 10 26 36 08 C0 D1 10 96 76 
1eb1: 21 5E 18 52 E0 1E 54 40 D0 30 54 21 00 55 76 14 
1ec1: 95 04 0D 8C D3 00 C0 30 04 AE C0 44 10 86 5E 0E 
1ed1: 48 33 22 21 05 14 97 04 CC 00 12 04 60 19 A5 50 
1ee1: 91 08 14 02 26 01 18 5C A8 16 14 94 10 08 84 05 
1ef1: D4 00 00 94 3A 02 56 A1 C9 14 D4 97 1A D0 04 

GS_DO_?:
1f00: 2A 56 C4       LD    HL,($C456)
1f03: 7C             LD    A,H
1f04: B5             OR    A,L
1f05: C2 63 22       JP    NZ,$2263

1f08: 3A 24 C4       LD    A,(DIRECTION_CHOSEN_8D4U2R1L)
1f0b: B7             OR    A,A
1f0c: C2 4D 1F       JP    NZ,GS_DIRECTION_CHOSEN

GS_NO_DIRECTION_CHOSEN_YET:
1f0f: 3A 7B C4       LD    A,(IN_ATTRACT_MODE?)
1f12: B7             OR    A,A
1f13: 20 0A          JR    NZ,GS_TIMER_EXPIRED_AUTO_SELECT_GAME_DURL

1f15: CD 9F 70       CALL  PROCESS_GAME_SELECT_COUNTDOWN_TIMER
1f18: 3A 02 C4       LD    A,(COUNTDOWN_TIMER_SECONDS)
1f1b: B7             OR    A,A
1f1c: C2 67 21       JP    NZ,$2167

GS_TIMER_EXPIRED_AUTO_SELECT_GAME_DURL:
1f1f: 3A 23 C4       LD    A,(COMPLETED_GAMES_XXXXDURL)
1f22: 21 D8 22       LD    HL,$22D8
1f25: 47             LD    B,A
1f26: 87             ADD   A,A
1f27: 80             ADD   A,B
1f28: CD 00 6F       CALL  ADD_A_TO_HL_WITH_CARRY
1f2b: 7E             LD    A,(HL)
1f2c: 32 24 C4       LD    (DIRECTION_CHOSEN_8D4U2R1L),A
1f2f: 3A 7B C4       LD    A,(IN_ATTRACT_MODE?)
1f32: B7             OR    A,A
1f33: 28 07          JR    Z,$1F3C

1f35: 3A 24 C4       LD    A,(DIRECTION_CHOSEN_8D4U2R1L)
1f38: A8             XOR   A,B
1f39: 32 23 C4       LD    (COMPLETED_GAMES_XXXXDURL),A
1f3c: 23             INC   HL
1f3d: 5E             LD    E,(HL)
1f3e: 23             INC   HL
1f3f: 56             LD    D,(HL)
1f40: ED 53 58 C4    LD    ($C458),DE
1f44: 21 25 C4       LD    HL,ATTEMPTED_GAMES_XXXXDURL
1f47: 3A 24 C4       LD    A,(DIRECTION_CHOSEN_8D4U2R1L)
1f4a: B6             OR    A,(HL)
1f4b: 77             LD    (HL),A
1f4c: C9             RET   

GS_DIRECTION_CHOSEN:
1f4d: FD 21 04 F0    LD    IY,TANK_BODY_OR_LC_OR_IO_OR_MCP_TRON_AND_DISK_TORSO_LEGS_LEFT_DISK_RIGHT
1f51: DD 2A 58 C4    LD    IX,($C458)
1f55: 06 02          LD    B,#$02
1f57: 3A 00 C0       LD    A,(CPU_RAM_OR_GS_DISK_X_TANK_X_OR_MCP_TRON_LEGS-LC_TRAILS_TO_C1DF)
1f5a: DD BE 00       CP    A,(IX+$00)
1f5d: 28 07          JR    Z,$1F66

1f5f: 0E 01          LD    C,#$01
1f61: 38 02          JR    C,$1F65

1f63: 0E FF          LD    C,#$FF
1f65: 81             ADD   A,C
1f66: 32 00 C0       LD    (CPU_RAM_OR_GS_DISK_X_TANK_X_OR_MCP_TRON_LEGS-LC_TRAILS_TO_C1DF),A
1f69: FD 77 00       LD    (IY+$00),A
1f6c: 3A 02 C0       LD    A,(TANK_Y_OR_GS_DISK_Y)
1f6f: DD BE 01       CP    A,(IX+$01)
1f72: 28 07          JR    Z,$1F7B

1f74: 0E 01          LD    C,#$01
1f76: 38 02          JR    C,$1F7A

1f78: 0E FF          LD    C,#$FF
1f7a: 81             ADD   A,C
1f7b: 32 02 C0       LD    (TANK_Y_OR_GS_DISK_Y),A
1f7e: CD 59 71       CALL  ADJUST_SPRITE_X_IF_FLIPPED_SCREEN
1f81: FD 77 02       LD    (IY+$02),A
1f84: 3A 02 C0       LD    A,(TANK_Y_OR_GS_DISK_Y)
1f87: DD BE 01       CP    A,(IX+$01)
1f8a: 20 08          JR    NZ,$1F94

1f8c: 3A 00 C0       LD    A,(CPU_RAM_OR_GS_DISK_X_TANK_X_OR_MCP_TRON_LEGS-LC_TRAILS_TO_C1DF)
1f8f: DD BE 00       CP    A,(IX+$00)
1f92: 28 03          JR    Z,START_GAME

1f94: 10 C1          DJNZ  $1F57

1f96: C9             RET   

START_GAME:
1f97: 3A 1E C4       LD    A,(MAX_DISKS_AT_A_TIME)
1f9a: 32 1D C4       LD    (REMAINING_DISKS_AT_A_TIME),A
1f9d: DD 7E 02       LD    A,(IX+$02)
1fa0: 21 26 C4       LD    HL,VECTOR_OF_GAMES_TO_C42D
1fa3: CD 00 6F       CALL  ADD_A_TO_HL_WITH_CARRY
1fa6: 7E             LD    A,(HL)
1fa7: 23             INC   HL
1fa8: 66             LD    H,(HL)
1fa9: 6F             LD    L,A
1faa: 5E             LD    E,(HL)
1fab: 23             INC   HL
1fac: 56             LD    D,(HL)
1fad: 3E 01          LD    A,#$01
1faf: 32 5E C4       LD    ($C45E),A
1fb2: ED 53 58 C4    LD    ($C458),DE
1fb6: 3A 7B C4       LD    A,(IN_ATTRACT_MODE?)
1fb9: B7             OR    A,A
1fba: 20 06          JR    NZ,$1FC2

1fbc: 3A 22 C4       LD    A,(USER_LEVEL)
1fbf: B7             OR    A,A

*** if level > 0, skip game instructions
1fc0: 20 0D          JR    NZ,$1FCF


*** pick GS instructions to print
1fc2: 11 03 00       LD    DE,$0003
1fc5: 19             ADD   HL,DE
1fc6: 5E             LD    E,(HL)
1fc7: 23             INC   HL
1fc8: 56             LD    D,(HL)
1fc9: 21 96 00       LD    HL,$0096
1fcc: 22 56 C4       LD    ($C456),HL
1fcf: EB             EX    DE,HL
1fd0: E9             JP    (HL)
DRAW_GAME_SELECT_SCREEN?:
1fd1: AF             XOR   A,A
1fd2: 32 07 C4       LD    ($C407),A
1fd5: 32 24 C4       LD    (DIRECTION_CHOSEN_8D4U2R1L),A
1fd8: 32 5E C4       LD    ($C45E),A
1fdb: 3E 78          LD    A,#$78
1fdd: 32 6E C4       LD    ($C46E),A
1fe0: 21 00 00       LD    HL,$0000
1fe3: 22 56 C4       LD    ($C456),HL
1fe6: 3E 09          LD    A,#$09
1fe8: 32 02 C4       LD    (COUNTDOWN_TIMER_SECONDS),A
1feb: 3E 1E          LD    A,#$1E
1fed: 32 03 C4       LD    (COUNTDOWN_TIMER_FRAMES),A
1ff0: 3E 01          LD    A,#$01
1ff2: 32 08 C4       LD    ($C408),A
1ff5: CD 49 70       CALL  INITIALIZE_SPRITES
1ff8: 21 4A 23       LD    HL,BACKGROUND_PICK_A_GAME
1ffb: CD 35 70       CALL  BACKGROUND_RAM_FILL_FROM_HL_0780_BYTES_TO_F800
1ffe: 21 CA 2A       LD    HL,GS_COLOR_PALETTE
2001: CD 35 6F       CALL  COPY_20_FROM_HL_TO_FF80
2004: 21 CA 2A       LD    HL,GS_COLOR_PALETTE
2007: DD 21 E0 FF    LD    IX,$FFE0
200b: 06 10          LD    B,#$10
200d: CD 3B 6F       CALL  $6F3B
2010: CD 07 22       CALL  DRAW_SPRITES_FOR_GAME_SELECTION_SCREEN
2013: FD 21 04 F0    LD    IY,TANK_BODY_OR_LC_OR_IO_OR_MCP_TRON_AND_DISK_TORSO_LEGS_LEFT_DISK_RIGHT
2017: 3E 80          LD    A,#$80
2019: 32 00 C0       LD    (CPU_RAM_OR_GS_DISK_X_TANK_X_OR_MCP_TRON_LEGS-LC_TRAILS_TO_C1DF),A
201c: FD 77 00       LD    (IY+$00),A
201f: 3E A4          LD    A,#$A4
2021: 32 02 C0       LD    (TANK_Y_OR_GS_DISK_Y),A
2024: CD 59 71       CALL  ADJUST_SPRITE_X_IF_FLIPPED_SCREEN
2027: FD 77 02       LD    (IY+$02),A
202a: FD 36 01 06    LD    (IY+$01),#$06
202e: 3E 01          LD    A,#$01
2030: 32 5B C4       LD    (GS_DIRECTION:1=DOWN,2=?,3=?,5=?,OTHER=?),A
2033: CD AC 70       CALL  PUT_GAME_SELECT_COUNTDOWN_DIGIT_MESSAGE_IN_Q2
2036: 3A 22 C4       LD    A,(USER_LEVEL)
2039: FE 0C          CP    A,#$0C
203b: 38 02          JR    C,$203F

203d: 3E 0B          LD    A,#$0B
203f: 87             ADD   A,A
2040: 21 26 B1       LD    HL,VECTOR_OF_USER_LEVEL_STRINGS
2043: CD 00 6F       CALL  ADD_A_TO_HL_WITH_CARRY
2046: 5E             LD    E,(HL)
2047: 23             INC   HL
2048: 56             LD    D,(HL)
2049: 01 FC FB       LD    BC,$FBFC
204c: C3 FF 6F       JP    ADD_A_MESSAGE_TO_Q

204f: CD 20 70       CALL  ZERO_RAM_C000-C418
2052: 3A 24 C4       LD    A,(DIRECTION_CHOSEN_8D4U2R1L)
2055: 21 23 C4       LD    HL,COMPLETED_GAMES_XXXXDURL
2058: AE             XOR   A,(HL)
2059: 77             LD    (HL),A
205a: 20 3C          JR    NZ,$2098


*** Finished level so set up for the next level (to 2097)
205c: CD 15 21       CALL  INITIALIZE_LEVEL?
205f: 21 2E C4       LD    HL,NUMBER_OF_ROUNDS_WHEN_WRAPS_AROUND_DISKS_MAY_GO_TO_1???
2062: 7E             LD    A,(HL)
2063: FE 03          CP    A,#$03
2065: 28 01          JR    Z,$2068

2067: 34             INC   (HL)
2068: 21 22 C4       LD    HL,USER_LEVEL
206b: 7E             LD    A,(HL)
206c: FE FF          CP    A,#$FF
206e: 28 01          JR    Z,$2071


*** Increment user level (C422)
2070: 34             INC   (HL)
2071: 3A 19 C4       LD    A,(HARDNESS_(OR_USER_LEVEL/CURRENT_PLAYER_DATA?))
2074: FE 14          CP    A,#$14
2076: 30 18          JR    NC,$2090

2078: 3A F6 C4       LD    A,(DIFFICULTY_LEVEL)
207b: 87             ADD   A,A
207c: 6F             LD    L,A
207d: 26 00          LD    H,#$00
207f: 11 A5 20       LD    DE,VECTOR_OF_DIFFICULTY_TO_HARDNESS_MAPS_(STARTS_AT_20A7)
2082: 19             ADD   HL,DE
2083: 5E             LD    E,(HL)
2084: 23             INC   HL
2085: 56             LD    D,(HL)
2086: 3A 22 C4       LD    A,(USER_LEVEL)
2089: 6F             LD    L,A
208a: 26 00          LD    H,#$00
208c: 19             ADD   HL,DE
208d: 7E             LD    A,(HL)
208e: 18 05          JR    $2095

2090: FE FF          CP    A,#$FF
2092: 28 01          JR    Z,$2095

2094: 3C             INC   A
2095: 32 19 C4       LD    (HARDNESS_(OR_USER_LEVEL/CURRENT_PLAYER_DATA?)),A
2098: 3A 5B C4       LD    A,(GS_DIRECTION:1=DOWN,2=?,3=?,5=?,OTHER=?)
209b: FE 04          CP    A,#$04
209d: 3A 2E C4       LD    A,(NUMBER_OF_ROUNDS_WHEN_WRAPS_AROUND_DISKS_MAY_GO_TO_1???)
20a0: 20 01          JR    NZ,$20A3

20a2: 3C             INC   A

*** This increment gives the next game an extra disk! Is it a feature or a bug?
20a3: 32 1E C4       LD    (MAX_DISKS_AT_A_TIME),A
20a6: C9             RET   


*** Map of Difficulty level settings (picked by operator in settings) to how hard
*** each user level is set.  The hardness values range from 0 (easy) to 20 (hard)
*** Difficulty 1 moves from 0 to 20 one at a time.  Difficulty 9 moves 0,4,10,15,20
20a7: B9 20 CE 20 DD 20 EA 20 F4 20 FC 20 03 21 0A 21 
20b7: 10 21 


*** Maps for difficulty 1 to 9 to how hard the levels progress. 21,15,13,10,8,7,7,6,5 bytes
20b9: 00 01 02 03 04 05 06 07 08 09 0A 0B 0C 0D 0E 0F 
20c9: 10 11 12 13 14 

20ce: 00 01 03 05 07 09 0B 0D 0E 0F 10 11 12 13 14 

20dd: 00 02 04 06 08 0A 0C 0E 10 11 12 13 14 

20ea: 00 02 05 08 0B 0D 10 12 13 14 

20f4: 00 02 07 0A 0E 12 13 14 

20fc: 00 03 07 0B 0F 13 14 

2103: 00 03 08 0C 10 13 14 

210a: 00 04 09 0D 11 14 

2110: 00 04 0A 0F 14 

INITIALIZE_LEVEL?:
2115: 21 08 23       LD    HL,$2308
2118: 11 04 C0       LD    DE,$C004
211b: 01 08 00       LD    BC,$0008
211e: ED B0          LDIR  
2120: 06 04          LD    B,#$04
2122: DD 21 26 C4    LD    IX,VECTOR_OF_GAMES_TO_C42D
2126: CD 05 6F       CALL  PSEUDO_RANDOM_VALUE_IN_A_AND_C47A
2129: CB 3F          SRL   A
212b: CB 3F          SRL   A
212d: E6 03          AND   A,#$03
212f: B8             CP    A,B
2130: 38 03          JR    C,$2135

2132: 90             SUB   A,B
2133: 18 FA          JR    $212F

2135: 4F             LD    C,A
2136: 87             ADD   A,A
2137: 21 04 C0       LD    HL,$C004
213a: CD 00 6F       CALL  ADD_A_TO_HL_WITH_CARRY
213d: 54             LD    D,H
213e: 5D             LD    E,L
213f: 7E             LD    A,(HL)
2140: 23             INC   HL
2141: DD 77 00       LD    (IX+$00),A
2144: 7E             LD    A,(HL)
2145: 23             INC   HL
2146: DD 77 01       LD    (IX+$01),A
2149: DD 23          INC   IX
214b: DD 23          INC   IX
214d: 3E 03          LD    A,#$03
214f: 91             SUB   A,C
2150: 87             ADD   A,A
2151: 28 08          JR    Z,$215B

2153: 4F             LD    C,A
2154: 7E             LD    A,(HL)
2155: 12             LD    (DE),A
2156: 23             INC   HL
2157: 13             INC   DE
2158: 0D             DEC   C
2159: 20 F9          JR    NZ,$2154

215b: 10 C9          DJNZ  $2126

215d: 3E 0F          LD    A,#$0F
215f: 32 23 C4       LD    (COMPLETED_GAMES_XXXXDURL),A

*** show games on game selection screen
2162: AF             XOR   A,A
2163: 32 25 C4       LD    (ATTEMPTED_GAMES_XXXXDURL),A
2166: C9             RET   

2167: DB 02          IN    A,(IO_2)
2169: 2F             CPL   
216a: 4F             LD    C,A
216b: 3A 87 C6       LD    A,(FLIP_SCREEN_IF_VALUE_IS_01)
216e: B7             OR    A,A
216f: 79             LD    A,C
2170: 28 08          JR    Z,$217A

2172: CB 3F          SRL   A
2174: CB 3F          SRL   A
2176: CB 3F          SRL   A
2178: CB 3F          SRL   A
217a: E6 0F          AND   A,#$0F
217c: C8             RET   Z

217d: 21 B8 22       LD    HL,$22B8
2180: 87             ADD   A,A
2181: CD 00 6F       CALL  ADD_A_TO_HL_WITH_CARRY
2184: 3A 00 C0       LD    A,(CPU_RAM_OR_GS_DISK_X_TANK_X_OR_MCP_TRON_LEGS-LC_TRAILS_TO_C1DF)
2187: 86             ADD   A,(HL)
2188: 47             LD    B,A
2189: 23             INC   HL
218a: 3A 02 C0       LD    A,(TANK_Y_OR_GS_DISK_Y)
218d: 86             ADD   A,(HL)
218e: 4F             LD    C,A
218f: C5             PUSH  BC
2190: D6 A4          SUB   A,#$A4
2192: 16 08          LD    D,#$08
2194: 30 04          JR    NC,$219A

2196: ED 44          NEG   
2198: 16 04          LD    D,#$04
219a: 4F             LD    C,A
219b: 78             LD    A,B
219c: D6 80          SUB   A,#$80
219e: 1E 02          LD    E,#$02
21a0: 30 04          JR    NC,$21A6

21a2: ED 44          NEG   
21a4: 1E 01          LD    E,#$01
21a6: D5             PUSH  DE
21a7: 47             LD    B,A
21a8: 21 6E 22       LD    HL,$226E
21ab: 87             ADD   A,A
21ac: CD 00 6F       CALL  ADD_A_TO_HL_WITH_CARRY
21af: 5E             LD    E,(HL)
21b0: 23             INC   HL
21b1: 56             LD    D,(HL)
21b2: 79             LD    A,C
21b3: 87             ADD   A,A
21b4: 21 6E 22       LD    HL,$226E
21b7: CD 00 6F       CALL  ADD_A_TO_HL_WITH_CARRY
21ba: 7E             LD    A,(HL)
21bb: 23             INC   HL
21bc: 66             LD    H,(HL)
21bd: 6F             LD    L,A
21be: 19             ADD   HL,DE
21bf: D1             POP   DE
21c0: 7C             LD    A,H
21c1: FE 00          CP    A,#$00
21c3: 38 2F          JR    C,$21F4

21c5: 20 2D          JR    NZ,$21F4

21c7: 7D             LD    A,L
21c8: FE C5          CP    A,#$C5
21ca: 38 28          JR    C,$21F4

21cc: 79             LD    A,C
21cd: B8             CP    A,B
21ce: 7A             LD    A,D
21cf: 30 01          JR    NC,$21D2

21d1: 7B             LD    A,E
21d2: C1             POP   BC
21d3: 21 23 C4       LD    HL,COMPLETED_GAMES_XXXXDURL
21d6: A6             AND   A,(HL)
21d7: C8             RET   Z

21d8: 32 24 C4       LD    (DIRECTION_CHOSEN_8D4U2R1L),A
21db: 57             LD    D,A
21dc: 21 25 C4       LD    HL,ATTEMPTED_GAMES_XXXXDURL
21df: B6             OR    A,(HL)
21e0: 77             LD    (HL),A
21e1: 7A             LD    A,D
21e2: 87             ADD   A,A
21e3: 82             ADD   A,D
21e4: 21 D8 22       LD    HL,$22D8
21e7: CD 00 6F       CALL  ADD_A_TO_HL_WITH_CARRY
21ea: 23             INC   HL
21eb: 7E             LD    A,(HL)
21ec: 23             INC   HL
21ed: 66             LD    H,(HL)
21ee: 6F             LD    L,A
21ef: 22 58 C4       LD    ($C458),HL
21f2: 18 01          JR    $21F5

21f4: C1             POP   BC
21f5: 78             LD    A,B
21f6: 32 00 C0       LD    (CPU_RAM_OR_GS_DISK_X_TANK_X_OR_MCP_TRON_LEGS-LC_TRAILS_TO_C1DF),A
21f9: 32 04 F0       LD    (TANK_BODY_OR_LC_OR_IO_OR_MCP_TRON_AND_DISK_TORSO_LEGS_LEFT_DISK_RIGHT),A
21fc: 79             LD    A,C
21fd: 32 02 C0       LD    (TANK_Y_OR_GS_DISK_Y),A
2200: CD 59 71       CALL  ADJUST_SPRITE_X_IF_FLIPPED_SCREEN
2203: 32 06 F0       LD    ($F006),A
2206: C9             RET   


*** Modify game selection screen to disable completed and show type of game if already attempted
DRAW_SPRITES_FOR_GAME_SELECTION_SCREEN:
2207: 3A 25 C4       LD    A,(ATTEMPTED_GAMES_XXXXDURL)
220a: 47             LD    B,A
220b: 3A 23 C4       LD    A,(COMPLETED_GAMES_XXXXDURL)
220e: 4F             LD    C,A
220f: FD 21 08 F0    LD    IY,TANK_TURRET_OR_LC_ENEMIES

*** 4x(3 bytes: ? ? ?). I think it's used to draw the sprites on the game selection screen
2213: DD 21 3E 23    LD    IX,$233E
2217: 21 26 C4       LD    HL,VECTOR_OF_GAMES_TO_C42D
221a: 78             LD    A,B
221b: B7             OR    A,A
221c: C8             RET   Z

221d: CB 38          SRL   B
221f: 30 2D          JR    NC,$224E

2221: E5             PUSH  HL
2222: 7E             LD    A,(HL)
2223: 23             INC   HL
2224: 66             LD    H,(HL)
2225: 6F             LD    L,A
2226: 23             INC   HL
2227: 23             INC   HL
2228: 7E             LD    A,(HL)
2229: 23             INC   HL
222a: 66             LD    H,(HL)
222b: 6F             LD    L,A
222c: 7E             LD    A,(HL)
222d: DD 86 01       ADD   A,(IX+$01)
2230: FD 77 00       LD    (IY+$00),A
2233: 23             INC   HL
2234: 7E             LD    A,(HL)
2235: DD 86 02       ADD   A,(IX+$02)
2238: CD 59 71       CALL  ADJUST_SPRITE_X_IF_FLIPPED_SCREEN
223b: FD 77 02       LD    (IY+$02),A
223e: 23             INC   HL
223f: 7E             LD    A,(HL)
2240: FD 77 01       LD    (IY+$01),A
2243: 23             INC   HL
2244: 11 04 00       LD    DE,$0004
2247: FD 19          ADD   IY,DE
2249: 7E             LD    A,(HL)
224a: B7             OR    A,A
224b: 20 E0          JR    NZ,$222D

224d: E1             POP   HL
224e: CB 39          SRL   C
2250: 38 08          JR    C,$225A

2252: 11 E0 FF       LD    DE,$FFE0
2255: DD 5E 00       LD    E,(IX+$00)
2258: AF             XOR   A,A
2259: 12             LD    (DE),A
225a: 23             INC   HL
225b: 23             INC   HL
225c: 11 03 00       LD    DE,$0003
225f: DD 19          ADD   IX,DE
2261: 18 B7          JR    $221A

2263: 2B             DEC   HL
2264: 22 56 C4       LD    ($C456),HL
2267: 7C             LD    A,H
2268: B5             OR    A,L
2269: C0             RET   NZ

226a: 2A 58 C4       LD    HL,($C458)
226d: E9             JP    (HL)

*** Data used at 21a8 and 21b4
226e: 00 00 01 00 04 00 09 00 10 00 19 00 24 00 31 00 
227e: 40 00 51 00 64 00 79 00 90 00 A9 00 C4 00 E1 00 
228e: 00 01 21 01 44 01 69 01 90 01 B9 01 E4 01 11 02 
229e: 40 02 71 02 A4 02 D9 02 10 03 49 03 84 03 

*** 4x3 bytes for auto game selection: disk X, disk Y,
*** what to add to VECTOR_OF_GAMES to use correct 2310 data structure
*** The X or Y position is checked against to start that game
22ac: 40 A4 00 
22af: C0 A4 02 
22b2: 80 74 04 
22b5: 80 D4 06 


*** Data used at 217d
22b8: 00 00 FF 00 01 00 00 00 00 FF FF FF 01 FF 00 00 
22c8: 00 01 FF 01 01 01 00 00 00 00 00 00 00 00 00 00 

*** 15x3: Direction, vector to data
*** Vectors are: 22b5, 22ac, 22af, 22b2
*** Data used at 1f22
*** I have a hard time understanding why use 15 data structures
*** to point to 4 data structures of directions.  Anyone know?
22d8: 00 B5 22 
22db: 01 AC 22 
22de: 02 AF 22 
22e1: 01 AC 22 
22e4: 04 B2 22 
22e7: 04 B2 22 
22ea: 04 B2 22 
22ed: 04 B2 22 
22f0: 08 B5 22 
22f3: 08 B5 22 
22f6: 08 B5 22 
22f9: 08 B5 22 
22fc: 08 B5 22 
22ff: 08 B5 22 
2302: 08 B5 22 

2305: 08             EX    AF,AF'
2306: B5             OR    A,L
2307: 22 10 23       LD    ($2310),HL
Error: missed a comment line at 2308, line=230B
230a: 16 23 1C 23 22 23 


*** Vector of games to quadrants at C426 points to these blocks of data
*** 3 vectors: game start, draw sprite(s) for game selection , instructions
*** MCP
2310: 12 2D 28 23 7E 2C 


*** IO Tower (Grid Bugs)
2316: 00 5D 32 23 36 5E 


*** LC
231c: 00 50 36 23 03 51 


*** Tank
2322: 00 3A 3A 23 DF 3C 


*** X offset, Y offset, picture, 00 end otherwise loop to next sprite
*** Draw MCP for game selection screen (3 sprites!  The others are just 1 sprite)
2328: 00 F0 39 F8 00 31 08 00 36 00 


*** Draw Grid Bug (IO Tower) for game selection screen
2332: 00 00 11 00 


*** Draw LC for game selection screen
2336: 00 00 2F 00 


*** Draw Tank for game selection screen
233a: 00 00 08 00 


*** Locations to draw sprites on game selection screen (LRUD)
*** 4x: ?, X, Y
233e: F2 40 A4 F4 C0 A4 E2 80 74 F6 80 D4 

BACKGROUND_PICK_A_GAME:
234a: 4B 41 4B 41 4B 41 4B 41 4B 41 4B 41 4B 41 4B 41 
235a: 4B 41 4B 59 4B 5B 4B 5B 4B 5B 4B 5B 4B 5B 4B 5B 
236a: 4B 5B 4B 5B 4B 5B 4B 5B 4B 5B 4B 5B 4B 5B 4B 5B 
237a: 4B 5B 4B 5B 4B 5B 4B 5B 4B 5B 4B 5B 4B 59 4B 59 
238a: 4B 41 4B 41 4B 41 4B 41 4B 41 4B 41 4B 41 4B 41 
239a: 4B 41 4B 59 4B 59 4B 59 4B 59 4B 59 4B 59 4B 59 
23aa: 4B 59 4B 59 3A 5D 4B 59 4B 59 4B 59 4B 59 4B 59 
23ba: 4B 59 4B 59 4B 59 4B 59 4B 59 4B 59 4B 59 4B 59 
23ca: 4B 41 4B 41 4B 41 4B 41 4B 41 4B 41 4B 41 4B 41 
23da: 4B 41 4B 59 4B 59 4B 59 4B 59 4B 59 4B 59 4B 59 
23ea: 4B 59 4B 59 38 59 38 59 3A 5D 3A 5D 3A 5D 3A 5D 
23fa: 4B 59 4B 59 4B 59 4B 59 4B 59 4B 59 4B 59 4B 59 
240a: 4B 41 4B 41 4B 41 4B 41 4B 41 4B 41 4B 41 4B 41 
241a: 4B 41 4B 59 4B 59 4B 59 4B 59 4B 59 4B 59 4B 59 
242a: 37 5F 4B 59 4B 59 39 59 38 59 38 5D 38 59 38 5D 
243a: 4B 59 3A 5D 3A 5D 4B 59 4B 59 4B 59 4B 59 4B 59 
244a: 4B 41 4B 41 4B 41 4B 41 4B 41 4B 41 4B 41 4B 41 
245a: 4B 41 4B 59 4B 59 4B 59 4B 59 4B 59 4B 59 38 5B 
246a: 37 59 4B 59 37 5F 39 59 3B 59 38 5B 38 59 4B 59 
247a: 4B 59 37 5B 4B 59 38 59 4B 59 4B 59 4B 59 4B 59 
248a: 4B 41 4B 41 4B 41 4B 41 4B 41 2D 41 2E 41 25 41 
249a: 2F 41 4B 59 4B 59 4B 59 4B 59 4B 59 38 5B 37 59 
24aa: 4B 59 39 5D 39 59 38 59 3B 59 37 5B 37 59 38 5B 
24ba: 38 59 4B 59 38 59 37 5F 4B 59 4B 59 4B 59 4B 59 
24ca: 4B 41 4B 41 4B 41 4B 41 4B 41 23 41 24 41 26 41 
24da: 27 41 4B 59 4B 59 4B 59 4B 59 37 59 38 5B 4B 59 
24ea: 37 59 4B 59 37 5D 4B 59 4B 59 39 5D 39 5D 37 5D 
24fa: 4B 59 37 5D 4B 59 4B 59 4B 59 4B 59 4B 59 4B 59 
250a: 4B 41 4B 41 4B 41 4B 41 4B 41 4B 41 29 41 28 41 
251a: 4B 41 4B 59 4B 59 4B 59 37 59 4B 59 38 59 4B 59 
252a: 38 59 4B 59 37 5F 4B 59 4B 59 38 59 38 5B 4B 59 
253a: 38 59 37 5F 4B 59 37 59 38 59 4B 59 4B 59 4B 59 
254a: 4B 41 4B 41 4B 41 4B 41 4B 41 22 41 2A 41 4F 41 
255a: 0C 41 4B 59 4B 59 4B 59 38 59 38 5B 38 59 38 59 
256a: 4B 59 38 59 37 5D 4B 59 37 5F 37 5B 37 59 37 5D 
257a: 4B 59 4B 59 37 5F 4B 5F 38 5B 4B 59 4B 59 4B 59 
258a: 4B 41 4B 41 4B 41 4B 41 4B 41 21 41 2B 41 1B 41 
259a: 0B 41 4B 59 4B 59 30 5D 32 5B 30 5D 31 59 39 59 
25aa: 3B 5B 38 59 39 59 4B 59 38 59 4B 59 4B 59 38 5B 
25ba: 41 5D 41 59 38 59 38 5D 4B 59 42 5B 4B 59 4B 59 
25ca: 4B 41 4B 41 4B 41 4B 41 4B 41 20 41 15 45 16 45 
25da: 19 41 4B 59 4B 59 31 59 32 5F 31 59 31 5B 31 5B 
25ea: 30 5F 38 59 3A 59 3A 59 38 59 38 59 38 5B 41 5B 
25fa: 4B 59 41 5B 4B 59 4B 59 42 5B 42 5D 4B 59 4B 59 
260a: 4B 41 4B 41 4B 41 4B 41 4B 41 1E 41 4E 41 17 41 
261a: 1A 41 4B 59 4B 59 4B 59 31 5B 36 5B 31 5B 34 5D 
262a: 4B 59 31 59 38 59 4B 59 4B 59 38 59 4B 59 43 5B 
263a: 41 5B 42 59 42 59 4B 59 42 5F 4B 59 4B 59 4B 59 
264a: 4B 41 4B 41 4B 41 4B 41 4B 41 1C 41 50 41 4D 41 
265a: 04 41 4B 59 4B 59 32 59 35 5D 31 5D 31 5D 34 5D 
266a: 34 59 31 59 31 59 3A 59 37 5D 38 5D 4B 59 41 59 
267a: 43 5F 41 59 43 59 4B 59 42 5B 41 5F 4B 59 4B 59 
268a: 4B 41 4B 41 4B 41 4B 41 4B 41 1D 41 4E 45 18 41 
269a: 1A 45 4B 59 4B 59 32 5D 32 5F 34 59 31 5B 30 5D 
26aa: 36 59 31 59 30 5F 49 5F 4A 5F 4A 5D 49 5D 4B 59 
26ba: 4B 59 4B 59 41 59 41 59 41 5B 41 5B 42 59 4B 59 
26ca: 4B 41 4B 41 4B 41 4B 41 4B 41 1F 41 15 41 16 41 
26da: 12 41 4B 59 4B 59 4B 59 30 5D 31 59 31 59 31 59 
26ea: 36 59 31 5B 32 5B 40 47 4B 59 4B 59 40 45 3C 59 
26fa: 3C 59 41 59 41 5B 41 59 41 5B 4B 59 42 5F 4B 59 
270a: 4B 41 4B 41 4B 41 4B 41 4B 41 20 41 15 45 4B 41 
271a: 11 41 4B 59 36 59 31 59 31 59 30 5B 33 5F 31 59 
272a: 32 5B 4B 59 32 5D 40 43 4B 59 4B 59 40 41 3C 5D 
273a: 3C 5D 41 5B 41 5F 41 59 4B 59 3C 59 42 5B 4B 59 
274a: 4B 41 4B 41 4B 41 4B 41 4B 41 1E 41 13 41 4C 41 
275a: 10 41 4B 59 36 59 4B 59 31 59 32 59 32 5F 35 59 
276a: 35 5B 30 5B 30 5F 49 5B 4A 5B 4A 59 49 59 4B 59 
277a: 42 5D 41 5B 41 59 41 59 4B 59 3C 5D 42 5D 4B 59 
278a: 4B 41 4B 41 4B 41 4B 41 4B 41 09 41 4B 41 0E 41 
279a: 0F 41 4B 59 4B 59 34 59 34 59 33 59 4B 59 30 5B 
27aa: 31 59 31 59 31 5D 45 5D 45 5D 4B 5D 47 5D 47 59 
27ba: 4B 59 4B 59 4B 59 4B 59 3E 59 3E 5B 4B 59 4B 59 
27ca: 4B 41 4B 41 4B 41 4B 41 4B 41 09 41 4B 41 0D 41 
27da: 0C 41 4B 59 4B 59 30 5B 30 59 36 59 32 5B 34 59 
27ea: 31 59 31 59 4B 59 47 59 47 5D 4B 5D 45 59 45 59 
27fa: 4B 59 4B 59 3D 5F 41 59 3D 59 3D 5B 4B 59 4B 59 
280a: 4B 41 4B 41 4B 41 4B 41 4B 41 08 41 4B 41 0A 41 
281a: 0B 41 4B 59 4B 59 30 59 30 5D 36 59 35 59 31 59 
282a: 4B 59 34 59 4B 59 4B 5B 47 5B 46 5B 47 59 4B 5B 
283a: 47 5B 47 59 41 59 41 5B 41 59 41 5B 4B 59 4B 59 
284a: 4B 41 4B 41 4B 41 4B 41 4B 41 00 45 4B 41 4B 41 
285a: 4B 41 4B 59 4B 59 4B 59 4B 59 31 5B 4B 59 4B 59 
286a: 30 59 46 59 44 59 4B 59 47 59 46 5F 44 5D 47 59 
287a: 45 59 45 59 4B 59 47 5B 47 59 4B 59 4B 59 4B 59 
288a: 4B 41 4B 41 4B 41 4B 41 4B 41 01 45 07 45 06 45 
289a: 05 45 4B 59 4B 59 4B 59 4B 59 30 59 31 5D 31 59 
28aa: 31 5D 46 5D 4B 59 44 59 4B 59 46 59 4B 59 47 5B 
28ba: 47 5B 47 59 47 5B 4B 59 47 5B 4B 59 4B 59 4B 59 
28ca: 4B 41 4B 41 4B 41 4B 41 4B 41 FF 40 02 41 03 41 
28da: 04 41 4B 59 4B 59 4B 59 4B 59 4B 59 47 5B 47 59 
28ea: 46 59 47 59 47 59 4B 59 44 59 46 59 47 5B 47 5B 
28fa: 4B 59 4B 59 4B 59 47 5B 4B 59 4B 59 4B 59 4B 59 
290a: 4B 41 4B 41 4B 41 4B 41 4B 41 01 41 07 41 06 41 
291a: 05 41 4B 59 4B 59 4B 59 4B 59 4B 59 47 59 4B 59 
292a: 46 5B 44 59 47 59 47 59 44 5B 4B 59 4B 59 47 59 
293a: 47 5B 47 59 47 5B 47 5B 47 59 4B 59 4B 59 4B 59 
294a: 4B 41 4B 41 4B 41 4B 41 4B 41 00 41 4B 41 4B 41 
295a: 4B 41 4B 59 4B 59 4B 59 4B 59 4B 59 4B 59 47 59 
296a: 46 5B 45 5D 48 59 45 5D 46 59 45 59 45 59 47 59 
297a: 47 5B 47 59 47 5B 47 5B 45 59 4B 59 4B 59 4B 59 
298a: 4B 41 4B 41 4B 41 4B 41 4B 41 4B 41 4B 41 4B 41 
299a: 4B 41 4B 59 4B 59 4B 59 4B 59 4B 59 4B 59 4B 59 
29aa: 4B 59 44 5F 4B 59 46 59 46 59 4B 59 44 5B 47 59 
29ba: 47 5B 47 59 47 5B 4B 59 4B 59 4B 59 4B 59 4B 59 
29ca: 4B 41 4B 41 4B 41 4B 41 4B 41 4B 41 4B 41 4B 41 
29da: 4B 41 4B 59 4B 59 4B 59 4B 59 4B 59 4B 59 4B 59 
29ea: 4B 59 4B 59 47 59 44 5B 46 59 45 5D 46 5B 4B 59 
29fa: 4B 59 4B 59 4B 59 4B 59 4B 59 4B 59 4B 59 4B 59 
2a0a: 4B 41 4B 41 4B 41 4B 41 4B 41 4B 41 4B 41 4B 41 
2a1a: 4B 41 4B 59 4B 59 4B 59 4B 59 4B 59 4B 59 4B 59 
2a2a: 4B 59 4B 59 4B 59 4B 59 4B 59 4B 59 4B 59 4B 59 
2a3a: 4B 59 4B 59 4B 59 4B 59 4B 59 4B 59 4B 59 4B 59 
2a4a: 4B 41 4B 41 4B 41 4B 41 4B 41 4B 41 4B 41 4B 41 
2a5a: 4B 41 4B 59 4B 59 4B 59 4B 59 4B 59 4B 59 4B 59 
2a6a: 4B 59 4B 59 4B 59 4B 59 4B 59 4B 59 4B 59 4B 59 
2a7a: 4B 59 4B 59 4B 59 4B 59 4B 59 4B 59 4B 59 4B 59 
2a8a: 4B 41 4B 41 4B 41 4B 41 4B 41 4B 41 4B 41 4B 41 
2a9a: 4B 41 4B 59 4B 59 4B 59 4B 59 4B 59 4B 59 4B 59 
2aaa: 4B 59 4B 59 4B 59 4B 59 4B 59 4B 59 4B 59 4B 59 
2aba: 4B 59 4B 59 4B 59 4B 59 4B 59 4B 59 4B 59 4B 59 

GS_COLOR_PALETTE:
2aca: 00 00 01 48 00 10 00 10 00 18 00 21 01 7D 01 F4 
2ada: 01 C3 01 CA 00 30 00 05 00 00 00 00 00 00 01 6D 


*** Appears to be data to 2BFF?
2aea: 00 00 00 28 01 80 00 18 01 D4 01 EA 01 C2 01 C5 
2afa: 00 04 00 7E 01 FF 01 78 00 00 00 08 00 28 01 C0 
2b0a: 36 BB 58 BA 18 79 26 48 2B FA 28 78 A7 1E 46 11 
2b1a: 68 70 12 58 F1 12 7E D1 71 38 B0 8C 7A 31 F2 70 
2b2a: 3F 26 7E 86 78 5A 62 0C 18 50 78 74 00 78 60 51 
2b3a: 3E B2 29 1A 32 5E 22 E2 68 7A BF B2 78 77 18 7A 
2b4a: F9 FE A8 3E D8 EE 58 5A EC 3C 4F 52 BD 46 52 7D 
2b5a: DA 5E 73 7A 5C 20 3E 18 18 70 60 5A 43 D2 B0 D0 
2b6a: BB 3E 67 1E 73 F9 AA FC 10 76 02 6A 74 BA 6C F8 
2b7a: 77 FE EA BA BA 7E 83 CD C9 87 89 43 DB BE AB 74 
2b8a: B1 F7 01 C0 F5 9F 85 C1 EE 89 61 CB C5 0D 93 89 
2b9a: BF 8F C3 61 F6 E1 44 63 FB D5 C5 87 E1 8D 94 5F 
2baa: 87 A0 AB 1A C5 AE B0 87 8A 4D C0 C5 95 D6 D7 85 
2bba: 94 83 EF 8C F1 AF 13 83 CD 8D 81 8D 1D 81 20 CB 
2bca: C5 0F C1 28 02 3F C7 97 3F 05 8F 27 CF 88 BF 87 
2bda: C5 C6 67 81 CD A7 E7 A5 5F C3 55 15 87 B7 7A 8A 
2bea: CF C7 99 2D 23 87 E9 17 65 53 C5 6D C3 C4 25 0F 
2bfa: 8D D7 ED A7 85 AD 

2c00: CD BB 2D       CALL  $2DBB
2c03: CD 25 30       CALL  MCP_PROCESS_DISK_POSITION(S)?
2c06: CD 8B 31       CALL  $318B
2c09: 3A 05 C0       LD    A,($C005)
2c0c: E6 02          AND   A,#$02
2c0e: C0             RET   NZ

2c0f: 3A E3 C0       LD    A,(MCP_BLOCKS_REMAINING_COUNT)
2c12: B7             OR    A,A
2c13: C0             RET   NZ

2c14: 3A 05 C0       LD    A,($C005)
2c17: E6 84          AND   A,#$84
2c19: FE 80          CP    A,#$80
2c1b: C0             RET   NZ

2c1c: 3E 82          LD    A,#$82
2c1e: 32 05 C0       LD    ($C005),A
2c21: 0E 41          LD    C,#$41
2c23: CD B8 6F       CALL  PUT_C_ON_STACK_TO_SEND_TO_AUDIO
2c26: 3E 26          LD    A,#$26
2c28: 32 EA C0       LD    ($C0EA),A
2c2b: 3E 60          LD    A,#$60
2c2d: 32 0E C0       LD    (INFINITE_TIME_CHEAT),A
2c30: 11 4D 2C       LD    DE,1000_BONUS_ALL_BLOCKS_HIT_S
2c33: 01 90 FE       LD    BC,$FE90
2c36: CD 5D 70       CALL  ADD_MESSAGE_TO_Q
2c39: 11 67 2C       LD    DE,1000_FOR_ENTERING_CONE_S
2c3c: 01 92 FE       LD    BC,$FE92
2c3f: CD 5D 70       CALL  ADD_MESSAGE_TO_Q
2c42: 21 48 2C       LD    HL,DATA_TO_2C4C?_USED_STARTING_AT_6F68
2c45: C3 52 6F       JP    PROCESS_HIT_ON_TANK_SPIDER_MCP_BLOCK_OR_LC


*** Not sure if all 5 bytes are data or how they're used starting at 6F68
DATA_TO_2C4C?_USED_STARTING_AT_6F68:
2c48: 00 00 00 02 00 

1000_BONUS_ALL_BLOCKS_HIT_S:
2c4d: 1000 BONUS ALL BLOCKS HIT

1000_FOR_ENTERING_CONE_S:
2c67: 1000 FOR ENTERING CONE

MCP_INSTRUCTIONS:
2c7e: 21 26 39       LD    HL,MCP_COLOR_PALETTE_ALL_ZEROS
2c81: CD 35 6F       CALL  COPY_20_FROM_HL_TO_FF80
2c84: CD 20 70       CALL  ZERO_RAM_C000-C418
2c87: 3E 01          LD    A,#$01
2c89: 32 08 C4       LD    ($C408),A
2c8c: CD 49 70       CALL  INITIALIZE_SPRITES
2c8f: CD C7 6F       CALL  CLEAR_BACKGROUND
2c92: 3E 01          LD    A,#$01
2c94: 32 65 C4       LD    ($C465),A
2c97: 3E 56          LD    A,#$56
2c99: 32 DD C0       LD    (MCP_TOWER_X),A
2c9c: 0E 80          LD    C,#$80
2c9e: FD 21 A0 F0    LD    IY,MCP_TOWER_TO_F133
2ca2: 21 B3 35       LD    HL,MCP_CONE_RELATIVEX_RELATIVEY_SPRITE_NUMBER_TO_35D9
2ca5: 06 0D          LD    B,#$0D
2ca7: 11 04 00       LD    DE,$0004
2caa: 3A DD C0       LD    A,(MCP_TOWER_X)
2cad: 86             ADD   A,(HL)
2cae: FD 77 00       LD    (IY+$00),A
2cb1: 79             LD    A,C
2cb2: 23             INC   HL
2cb3: 86             ADD   A,(HL)
2cb4: CD 59 71       CALL  ADJUST_SPRITE_X_IF_FLIPPED_SCREEN
2cb7: FD 77 02       LD    (IY+$02),A
2cba: 23             INC   HL
2cbb: 7E             LD    A,(HL)
2cbc: FD 77 01       LD    (IY+$01),A
2cbf: 23             INC   HL
2cc0: FD 19          ADD   IY,DE
2cc2: 10 E6          DJNZ  $2CAA

2cc4: DD 21 EE 2C    LD    IX,DATA_FOR_???_TO_2CF7
2cc8: DD 4E 00       LD    C,(IX+$00)
2ccb: DD 46 01       LD    B,(IX+$01)
2cce: 78             LD    A,B
2ccf: B1             OR    A,C
2cd0: 28 10          JR    Z,$2CE2

2cd2: DD 5E 02       LD    E,(IX+$02)
2cd5: DD 56 03       LD    D,(IX+$03)
2cd8: CD 5D 70       CALL  ADD_MESSAGE_TO_Q
2cdb: 11 04 00       LD    DE,$0004
2cde: DD 19          ADD   IX,DE
2ce0: 18 E6          JR    $2CC8

2ce2: CD D9 2F       CALL  $2FD9
2ce5: 21 7A 36       LD    HL,$367A
2ce8: 22 10 C0       LD    (TANKS_DISKS?/BULLETS?_IN_RAM_STARTS_AT_C020),HL
2ceb: C3 AD 2E       JP    $2EAD

DATA_FOR_???_TO_2CF7:
2cee: CC FC F8 2C CE FC 05 2D 00 00 

TRY_TO_ENTER_S:
2cf8: TRY TO ENTER

THE_MCP_CONE_S:
2d05: THE MCP CONE

PLAY_MCP:
2d12: 21 26 39       LD    HL,MCP_COLOR_PALETTE_ALL_ZEROS
2d15: CD 35 6F       CALL  COPY_20_FROM_HL_TO_FF80
2d18: CD 20 70       CALL  ZERO_RAM_C000-C418
2d1b: 3E 03          LD    A,#$03
2d1d: 32 5B C4       LD    (GS_DIRECTION:1=DOWN,2=?,3=?,5=?,OTHER=?),A
2d20: 3E 01          LD    A,#$01
2d22: 32 08 C4       LD    ($C408),A
2d25: CD 49 70       CALL  INITIALIZE_SPRITES
2d28: CD C7 6F       CALL  CLEAR_BACKGROUND
2d2b: 3E 01          LD    A,#$01
2d2d: 32 65 C4       LD    ($C465),A
2d30: 3A 19 C4       LD    A,(HARDNESS_(OR_USER_LEVEL/CURRENT_PLAYER_DATA?))

*** MCP info: C001 gets number of rows (3,4,or 5 based on hardness 0,1-10,11+)
*** Each row has C0E6 number of blocks
*** Register c contains 1C, 1E, or 1F (why? visibility of blocks?)
*** C0E3 ends up with the total number of blocks (C001*0x10)
2d33: 21 01 C0       LD    HL,TANK_PIC_OR_MCP_ROWS_OF_BLOCKS
2d36: 36 03          LD    (HL),#$03
2d38: 0E 1C          LD    C,#$1C
2d3a: B7             OR    A,A
2d3b: 28 10          JR    Z,$2D4D

2d3d: 36 04          LD    (HL),#$04
2d3f: 0E 1E          LD    C,#$1E
2d41: FE 0A          CP    A,#$0A
2d43: 38 08          JR    C,$2D4D


*** Ensure Hardness for MCP is below $0A
2d45: D6 06          SUB   A,#$06
2d47: 36 05          LD    (HL),#$05
2d49: 0E 1F          LD    C,#$1F
2d4b: 18 F4          JR    $2D41

2d4d: 87             ADD   A,A
2d4e: 87             ADD   A,A
2d4f: 21 66 39       LD    HL,DATA_FOR_MCP_SETUP_TO_398D
2d52: CD 00 6F       CALL  ADD_A_TO_HL_WITH_CARRY
2d55: 7E             LD    A,(HL)
2d56: 32 E9 C0       LD    (MCP_DIRECTION_0_IS_RIGHT),A
2d59: 23             INC   HL
2d5a: 7E             LD    A,(HL)
2d5b: 32 E6 C0       LD    (MCP_BLOCKS_PER_ROW),A
2d5e: 23             INC   HL
2d5f: 5E             LD    E,(HL)
2d60: 16 00          LD    D,#$00
2d62: ED 53 E7 C0    LD    (MCP_Y_SPEED_LOWER_IS_SLOWER),DE
2d66: 23             INC   HL
2d67: 7E             LD    A,(HL)
2d68: 32 E5 C0       LD    (MCP_ROTATION_SPEED_LOWER_IS_FASTER),A
2d6b: 21 3A C0       LD    HL,MCP_DATA_TO_C0D9?
2d6e: 3A E6 C0       LD    A,(MCP_BLOCKS_PER_ROW)
2d71: 57             LD    D,A
2d72: 3A 01 C0       LD    A,(TANK_PIC_OR_MCP_ROWS_OF_BLOCKS)
2d75: 47             LD    B,A
2d76: AF             XOR   A,A
2d77: 82             ADD   A,D
2d78: 10 FD          DJNZ  $2D77

2d7a: 32 E3 C0       LD    (MCP_BLOCKS_REMAINING_COUNT),A
2d7d: 42             LD    B,D
2d7e: 71             LD    (HL),C
2d7f: 23             INC   HL
2d80: 10 FC          DJNZ  $2D7E


*** Set MCP tower at 40x and 56y
2d82: 3E 56          LD    A,#$56
2d84: 32 DD C0       LD    (MCP_TOWER_X),A
2d87: 3E 40          LD    A,#$40
2d89: 32 DC C0       LD    (MCP_TOWER_Y),A

*** Fill $05x$1E of RAM $C063-C0DB with $80 or $00.  Why?
*** Column (6) x Row (5) x 4: 4= X, Y, ?, ? (starts as 80.  Lowest bit set when hit)
*** If a row is empty, the 4 bytes for it are all 00
2d8c: 11 04 00       LD    DE,$0004
2d8f: DD 21 63 C0    LD    IX,$C063
2d93: 06 1E          LD    B,#$1E
2d95: 3A 01 C0       LD    A,(TANK_PIC_OR_MCP_ROWS_OF_BLOCKS)
2d98: 0E 05          LD    C,#$05
2d9a: DD 36 03 80    LD    (IX+$03),#$80
2d9e: D6 01          SUB   A,#$01
2da0: F2 A7 2D       JP    P,$2DA7

2da3: DD 36 03 00    LD    (IX+$03),#$00
2da7: DD 19          ADD   IX,DE
2da9: 10 02          DJNZ  $2DAD

2dab: 18 05          JR    $2DB2

2dad: 0D             DEC   C
2dae: 20 EA          JR    NZ,$2D9A

2db0: 18 E3          JR    $2D95


*** 
2db2: 3A E5 C0       LD    A,(MCP_ROTATION_SPEED_LOWER_IS_FASTER)
2db5: 32 DE C0       LD    ($C0DE),A
2db8: C3 D9 2F       JP    $2FD9

2dbb: 3A 05 C0       LD    A,($C005)
2dbe: E6 84          AND   A,#$84
2dc0: C8             RET   Z

2dc1: E6 04          AND   A,#$04
2dc3: C2 8C 2F       JP    NZ,$2F8C

2dc6: CD 43 2E       CALL  $2E43
2dc9: 3A 05 C0       LD    A,($C005)
2dcc: E6 02          AND   A,#$02
2dce: 20 09          JR    NZ,$2DD9

2dd0: CD DF 2D       CALL  $2DDF
2dd3: CD 6A 2E       CALL  $2E6A
2dd6: C3 AD 2E       JP    $2EAD

2dd9: CD ED 2F       CALL  $2FED
2ddc: C3 AD 2E       JP    $2EAD

2ddf: 3A 7B C4       LD    A,(IN_ATTRACT_MODE?)
2de2: B7             OR    A,A
2de3: C0             RET   NZ

2de4: DB 02          IN    A,(IO_2)
2de6: 2F             CPL   
2de7: 4F             LD    C,A
2de8: 3A 87 C6       LD    A,(FLIP_SCREEN_IF_VALUE_IS_01)
2deb: B7             OR    A,A
2dec: 79             LD    A,C
2ded: 28 08          JR    Z,$2DF7

2def: CB 3F          SRL   A
2df1: CB 3F          SRL   A
2df3: CB 3F          SRL   A
2df5: CB 3F          SRL   A
2df7: E6 0F          AND   A,#$0F
2df9: 87             ADD   A,A
2dfa: 87             ADD   A,A
2dfb: 21 3A 36       LD    HL,$363A
2dfe: CD 00 6F       CALL  ADD_A_TO_HL_WITH_CARRY
2e01: 11 0A C0       LD    DE,$C00A
2e04: 01 04 00       LD    BC,$0004
2e07: ED B0          LDIR  
2e09: 2A 06 C0       LD    HL,($C006)
2e0c: ED 5B 0A C0    LD    DE,($C00A)
2e10: 19             ADD   HL,DE
2e11: 22 06 C0       LD    ($C006),HL
2e14: 7C             LD    A,H
2e15: FE 21          CP    A,#$21
2e17: 30 04          JR    NC,$2E1D


*** MCP: Tron has gone too far left. Set him to 21 x
2e19: 3E 21          LD    A,#$21
2e1b: 18 06          JR    $2E23

2e1d: FE E8          CP    A,#$E8
2e1f: 38 05          JR    C,$2E26


*** MCP: Tron has gone too far right. Set him to E7 x
2e21: 3E E7          LD    A,#$E7
2e23: 32 07 C0       LD    (MCP_TRON_X_TANKS_DATA_VECTOR_x_1),A
2e26: 2A 08 C0       LD    HL,($C008)
2e29: ED 5B 0C C0    LD    DE,($C00C)
2e2d: 19             ADD   HL,DE
2e2e: 22 08 C0       LD    ($C008),HL
2e31: 7C             LD    A,H
2e32: FE E0          CP    A,#$E0
2e34: 38 04          JR    C,$2E3A

2e36: 3E DF          LD    A,#$DF
2e38: 18 05          JR    $2E3F

2e3a: FE 25          CP    A,#$25
2e3c: D0             RET   NC

2e3d: 3E 25          LD    A,#$25
2e3f: 32 09 C0       LD    (MCP_TRON_Y_TANKS_DATA_VECTOR_x_2),A
2e42: C9             RET   

2e43: 3A 7B C4       LD    A,(IN_ATTRACT_MODE?)
2e46: B7             OR    A,A
2e47: 3E 19          LD    A,#$19
2e49: 20 0A          JR    NZ,$2E55

2e4b: 3A 05 C4       LD    A,(MCP_TRON_ARM_OR_TANK_TURRET_ROTATION)
2e4e: B7             OR    A,A
2e4f: 28 04          JR    Z,$2E55

2e51: D6 24          SUB   A,#$24
2e53: ED 44          NEG   
2e55: 6F             LD    L,A
2e56: 26 00          LD    H,#$00
2e58: 29             ADD   HL,HL
2e59: 29             ADD   HL,HL
2e5a: 29             ADD   HL,HL
2e5b: 29             ADD   HL,HL
2e5c: 5F             LD    E,A
2e5d: 16 00          LD    D,#$00
2e5f: 19             ADD   HL,DE
2e60: 19             ADD   HL,DE
2e61: 19             ADD   HL,DE
2e62: 11 7A 36       LD    DE,$367A
2e65: 19             ADD   HL,DE
2e66: 22 10 C0       LD    (TANKS_DISKS?/BULLETS?_IN_RAM_STARTS_AT_C020),HL
2e69: C9             RET   

2e6a: 3A 7B C4       LD    A,(IN_ATTRACT_MODE?)
2e6d: B7             OR    A,A
2e6e: 20 18          JR    NZ,$2E88

2e70: 3A 87 C6       LD    A,(FLIP_SCREEN_IF_VALUE_IS_01)
2e73: B7             OR    A,A
2e74: 28 06          JR    Z,$2E7C

2e76: DB 03          IN    A,(IO_3)
2e78: E6 80          AND   A,#$80
2e7a: 18 04          JR    $2E80

2e7c: DB 00          IN    A,(IO_0)
2e7e: E6 10          AND   A,#$10
2e80: 21 04 C0       LD    HL,$C004
2e83: BE             CP    A,(HL)
2e84: C8             RET   Z

2e85: 77             LD    (HL),A
2e86: 18 0A          JR    $2E92

2e88: 21 03 C0       LD    HL,$C003
2e8b: 7E             LD    A,(HL)
2e8c: B7             OR    A,A
2e8d: 28 03          JR    Z,$2E92

2e8f: 35             DEC   (HL)
2e90: 3E 10          LD    A,#$10
2e92: B7             OR    A,A
2e93: C0             RET   NZ

2e94: 3E 04          LD    A,#$04
2e96: 32 03 C0       LD    ($C003),A
2e99: 21 1D C4       LD    HL,REMAINING_DISKS_AT_A_TIME
2e9c: 7E             LD    A,(HL)
2e9d: B7             OR    A,A
2e9e: C8             RET   Z

2e9f: 35             DEC   (HL)
2ea0: 21 05 C0       LD    HL,$C005
2ea3: CB C6          SET   0,(HL)
2ea5: 0E 08          LD    C,#$08
2ea7: CD B8 6F       CALL  PUT_C_ON_STACK_TO_SEND_TO_AUDIO
2eaa: C3 D6 30       JP    $30D6

2ead: DD 2A 10 C0    LD    IX,(TANKS_DISKS?/BULLETS?_IN_RAM_STARTS_AT_C020)
2eb1: 3A 07 C0       LD    A,(MCP_TRON_X_TANKS_DATA_VECTOR_x_1)
2eb4: 32 04 F0       LD    (TANK_BODY_OR_LC_OR_IO_OR_MCP_TRON_AND_DISK_TORSO_LEGS_LEFT_DISK_RIGHT),A
2eb7: 32 08 F0       LD    (TANK_TURRET_OR_LC_ENEMIES),A
2eba: 47             LD    B,A
2ebb: 3A 09 C0       LD    A,(MCP_TRON_Y_TANKS_DATA_VECTOR_x_2)
2ebe: CD 59 71       CALL  ADJUST_SPRITE_X_IF_FLIPPED_SCREEN
2ec1: 4F             LD    C,A
2ec2: 32 06 F0       LD    ($F006),A
2ec5: C6 10          ADD   A,#$10
2ec7: 32 0A F0       LD    ($F00A),A
2eca: 3A 0B C0       LD    A,($C00B)
2ecd: 21 0D C0       LD    HL,IO_TOWER_TIMER_VALUE_REVERSED_TO_C010
2ed0: B6             OR    A,(HL)
2ed1: 21 00 C0       LD    HL,CPU_RAM_OR_GS_DISK_X_TANK_X_OR_MCP_TRON_LEGS-LC_TRAILS_TO_C1DF
2ed4: 28 06          JR    Z,$2EDC

2ed6: 35             DEC   (HL)
2ed7: F2 DC 2E       JP    P,$2EDC

2eda: 36 08          LD    (HL),#$08
2edc: 7E             LD    A,(HL)
2edd: FE 04          CP    A,#$04
2edf: DD 7E 00       LD    A,(IX+$00)
2ee2: DD 66 01       LD    H,(IX+$01)
2ee5: 30 06          JR    NC,$2EED

2ee7: DD 7E 02       LD    A,(IX+$02)
2eea: DD 66 03       LD    H,(IX+$03)
2eed: 32 05 F0       LD    ($F005),A
2ef0: 7C             LD    A,H
2ef1: 32 09 F0       LD    ($F009),A
2ef4: 78             LD    A,B
2ef5: DD 86 0B       ADD   A,(IX+$0B)
2ef8: 32 14 F0       LD    ($F014),A
2efb: 79             LD    A,C
2efc: DD 86 0C       ADD   A,(IX+$0C)
2eff: 32 16 F0       LD    ($F016),A
2f02: DD 7E 0A       LD    A,(IX+$0A)
2f05: 32 15 F0       LD    ($F015),A
2f08: 21 05 C0       LD    HL,$C005
2f0b: CB 46          BIT   0,(HL)
2f0d: 28 1C          JR    Z,$2F2B

2f0f: CB 86          RES   0,(HL)
2f11: 78             LD    A,B
2f12: DD 86 08       ADD   A,(IX+$08)
2f15: 32 0C F0       LD    (TANK_DISKS_F00C_TO_F01B(SPRITES_3_TO_6)),A
2f18: 79             LD    A,C
2f19: DD 86 09       ADD   A,(IX+$09)
2f1c: 32 0E F0       LD    ($F00E),A
2f1f: DD 7E 07       LD    A,(IX+$07)
2f22: 32 0D F0       LD    ($F00D),A
2f25: 3E 00          LD    A,#$00
2f27: 32 10 F0       LD    ($F010),A
2f2a: C9             RET   

2f2b: 78             LD    A,B
2f2c: DD 86 05       ADD   A,(IX+$05)
2f2f: 32 0C F0       LD    (TANK_DISKS_F00C_TO_F01B(SPRITES_3_TO_6)),A
2f32: 79             LD    A,C
2f33: DD 86 06       ADD   A,(IX+$06)
2f36: 32 0E F0       LD    ($F00E),A
2f39: DD 7E 04       LD    A,(IX+$04)
2f3c: 32 0D F0       LD    ($F00D),A
2f3f: 3A 1D C4       LD    A,(REMAINING_DISKS_AT_A_TIME)
2f42: B7             OR    A,A
2f43: 28 14          JR    Z,$2F59

2f45: 78             LD    A,B
2f46: DD 86 0D       ADD   A,(IX+$0D)
2f49: 32 10 F0       LD    ($F010),A
2f4c: 79             LD    A,C
2f4d: DD 86 0E       ADD   A,(IX+$0E)
2f50: 32 12 F0       LD    ($F012),A
2f53: 3E 07          LD    A,#$07
2f55: 32 11 F0       LD    ($F011),A
2f58: C9             RET   

2f59: 3E 00          LD    A,#$00
2f5b: 32 10 F0       LD    ($F010),A
2f5e: C9             RET   

2f5f: 3E 3A          LD    A,#$3A
2f61: 32 05 F0       LD    ($F005),A
2f64: 3E 3B          LD    A,#$3B
2f66: 32 09 F0       LD    ($F009),A
2f69: 3E 04          LD    A,#$04
2f6b: 32 0F C0       LD    ($C00F),A
2f6e: 3E 40          LD    A,#$40
2f70: 32 0E C0       LD    (INFINITE_TIME_CHEAT),A
2f73: 3E 84          LD    A,#$84
2f75: 32 05 C0       LD    ($C005),A
2f78: AF             XOR   A,A
2f79: 32 08 C4       LD    ($C408),A
2f7c: 3E 00          LD    A,#$00
2f7e: 32 0C F0       LD    (TANK_DISKS_F00C_TO_F01B(SPRITES_3_TO_6)),A
2f81: 32 14 F0       LD    ($F014),A
2f84: 32 18 F0       LD    (IO_OR_MCP_OR_TANK_DISKS_1_TO_4),A
2f87: 0E 30          LD    C,#$30
2f89: C3 B8 6F       JP    PUT_C_ON_STACK_TO_SEND_TO_AUDIO

2f8c: 21 0E C0       LD    HL,INFINITE_TIME_CHEAT
2f8f: 7E             LD    A,(HL)
2f90: B7             OR    A,A
2f91: 20 11          JR    NZ,$2FA4

2f93: 3A 7B C4       LD    A,(IN_ATTRACT_MODE?)
2f96: B7             OR    A,A
2f97: 20 05          JR    NZ,$2F9E

2f99: 21 02 C0       LD    HL,TANK_Y_OR_GS_DISK_Y
2f9c: 35             DEC   (HL)
2f9d: C0             RET   NZ

2f9e: 3E 02          LD    A,#$02
2fa0: 32 7C C4       LD    (NEXT_SLOT_IN_SCREEN_MESSAGE_QUEUE_2),A
2fa3: C9             RET   

2fa4: 21 0F C0       LD    HL,$C00F
2fa7: 35             DEC   (HL)
2fa8: 20 12          JR    NZ,$2FBC

2faa: 36 04          LD    (HL),#$04
2fac: 3A 05 F0       LD    A,($F005)
2faf: EE 80          XOR   A,#$80
2fb1: 32 05 F0       LD    ($F005),A
2fb4: 3A 09 F0       LD    A,($F009)
2fb7: EE 80          XOR   A,#$80
2fb9: 32 09 F0       LD    ($F009),A
2fbc: 21 0E C0       LD    HL,INFINITE_TIME_CHEAT
2fbf: 35             DEC   (HL)
2fc0: C0             RET   NZ

2fc1: 0E 22          LD    C,#$22
2fc3: CD B8 6F       CALL  PUT_C_ON_STACK_TO_SEND_TO_AUDIO
2fc6: 0E 27          LD    C,#$27
2fc8: CD B8 6F       CALL  PUT_C_ON_STACK_TO_SEND_TO_AUDIO
2fcb: 3E 80          LD    A,#$80
2fcd: 32 02 C0       LD    (TANK_Y_OR_GS_DISK_Y),A
2fd0: 3E 00          LD    A,#$00
2fd2: 32 04 F0       LD    (TANK_BODY_OR_LC_OR_IO_OR_MCP_TRON_AND_DISK_TORSO_LEGS_LEFT_DISK_RIGHT),A
2fd5: 32 08 F0       LD    (TANK_TURRET_OR_LC_ENEMIES),A
2fd8: C9             RET   


*** Set initial position and arm rotation of Tron sprites
2fd9: 3E 80          LD    A,#$80
2fdb: 32 07 C0       LD    (MCP_TRON_X_TANKS_DATA_VECTOR_x_1),A
2fde: 3E C0          LD    A,#$C0
2fe0: 32 09 C0       LD    (MCP_TRON_Y_TANKS_DATA_VECTOR_x_2),A
2fe3: 3E 80          LD    A,#$80
2fe5: 32 05 C0       LD    ($C005),A
2fe8: AF             XOR   A,A
2fe9: 32 05 C4       LD    (MCP_TRON_ARM_OR_TANK_TURRET_ROTATION),A
2fec: C9             RET   

2fed: 3A DD C0       LD    A,(MCP_TOWER_X)
2ff0: C6 24          ADD   A,#$24
2ff2: 21 07 C0       LD    HL,MCP_TRON_X_TANKS_DATA_VECTOR_x_1
2ff5: BE             CP    A,(HL)
2ff6: 28 06          JR    Z,$2FFE

2ff8: 38 03          JR    C,$2FFD

2ffa: 34             INC   (HL)
2ffb: 18 01          JR    $2FFE

2ffd: 35             DEC   (HL)
2ffe: 3A DC C0       LD    A,(MCP_TOWER_Y)
3001: D6 20          SUB   A,#$20
3003: 21 09 C0       LD    HL,MCP_TRON_Y_TANKS_DATA_VECTOR_x_2
3006: BE             CP    A,(HL)
3007: 28 01          JR    Z,$300A

3009: 35             DEC   (HL)
300a: 3A EA C0       LD    A,($C0EA)
300d: B7             OR    A,A
300e: 28 0A          JR    Z,$301A

3010: 3D             DEC   A
3011: 32 EA C0       LD    ($C0EA),A
3014: C0             RET   NZ

3015: 0E 25          LD    C,#$25
3017: CD B8 6F       CALL  PUT_C_ON_STACK_TO_SEND_TO_AUDIO
301a: 21 0E C0       LD    HL,INFINITE_TIME_CHEAT
301d: 35             DEC   (HL)
301e: C0             RET   NZ

301f: 3E 01          LD    A,#$01
3021: 32 7C C4       LD    (NEXT_SLOT_IN_SCREEN_MESSAGE_QUEUE_2),A
3024: C9             RET   

MCP_PROCESS_DISK_POSITION(S)?:
3025: DD 21 12 C0    LD    IX,MCP_DISK_1_DATA/IO_TOWER_TIMER_DIGITS_TO_C019
3029: FD 21 18 F0    LD    IY,IO_OR_MCP_OR_TANK_DISKS_1_TO_4
302d: 3A 1E C4       LD    A,(MAX_DISKS_AT_A_TIME)
3030: 32 06 C4       LD    (MCP_DISK_NUMBER_BEING_PROCESSED),A
3033: DD CB 09 7E    BIT   7,(IX+$09)
3037: CA C4 30       JP    Z,$30C4

303a: DD 35 08       DEC   (IX+$08)
303d: 20 06          JR    NZ,$3045

303f: CD 7E 31       CALL  MCP_DISK_END_FLIGHT
3042: C3 C4 30       JP    $30C4

3045: DD 6E 00       LD    L,(IX+$00)
3048: DD 66 01       LD    H,(IX+$01)
304b: DD 5E 04       LD    E,(IX+$04)
304e: DD 56 05       LD    D,(IX+$05)
3051: 19             ADD   HL,DE
3052: DD 75 00       LD    (IX+$00),L
3055: DD 74 01       LD    (IX+$01),H
3058: 3A DD C0       LD    A,(MCP_TOWER_X)
305b: 47             LD    B,A
305c: C6 4C          ADD   A,#$4C
305e: 4F             LD    C,A
305f: 7C             LD    A,H
3060: B8             CP    A,B
3061: 30 07          JR    NC,$306A

3063: EB             EX    DE,HL
3064: CD 25 6F       CALL  $6F25
3067: 78             LD    A,B
3068: 18 09          JR    $3073

306a: B9             CP    A,C
306b: 38 0F          JR    C,$307C

306d: EB             EX    DE,HL
306e: CD 25 6F       CALL  $6F25
3071: 79             LD    A,C
3072: 3D             DEC   A
3073: DD 77 01       LD    (IX+$01),A
3076: DD 75 04       LD    (IX+$04),L
3079: DD 74 05       LD    (IX+$05),H
307c: DD 7E 01       LD    A,(IX+$01)
307f: FD 77 00       LD    (IY+$00),A
3082: DD 6E 02       LD    L,(IX+$02)
3085: DD 66 03       LD    H,(IX+$03)
3088: DD 5E 06       LD    E,(IX+$06)
308b: DD 56 07       LD    D,(IX+$07)
308e: 19             ADD   HL,DE
308f: DD 75 02       LD    (IX+$02),L
3092: DD 74 03       LD    (IX+$03),H
3095: 7C             LD    A,H
3096: FE F7          CP    A,#$F7
3098: 38 08          JR    C,$30A2

309a: EB             EX    DE,HL
309b: CD 25 6F       CALL  $6F25
309e: 3E F6          LD    A,#$F6
30a0: 18 0D          JR    $30AF

30a2: 21 DC C0       LD    HL,MCP_TOWER_Y
30a5: BE             CP    A,(HL)
30a6: 30 10          JR    NC,$30B8

30a8: EB             EX    DE,HL
30a9: CD 25 6F       CALL  $6F25
30ac: 3A DC C0       LD    A,(MCP_TOWER_Y)
30af: DD 77 03       LD    (IX+$03),A
30b2: DD 75 06       LD    (IX+$06),L
30b5: DD 74 07       LD    (IX+$07),H
30b8: DD 7E 03       LD    A,(IX+$03)
30bb: CD 59 71       CALL  ADJUST_SPRITE_X_IF_FLIPPED_SCREEN
30be: FD 77 02       LD    (IY+$02),A
30c1: CD 49 31       CALL  $3149
30c4: 11 0A 00       LD    DE,$000A
30c7: DD 19          ADD   IX,DE
30c9: 11 04 00       LD    DE,$0004
30cc: FD 19          ADD   IY,DE
30ce: 21 06 C4       LD    HL,MCP_DISK_NUMBER_BEING_PROCESSED
30d1: 35             DEC   (HL)
30d2: C2 33 30       JP    NZ,$3033

30d5: C9             RET   

30d6: DD 21 12 C0    LD    IX,MCP_DISK_1_DATA/IO_TOWER_TIMER_DIGITS_TO_C019
30da: FD 21 18 F0    LD    IY,IO_OR_MCP_OR_TANK_DISKS_1_TO_4
30de: DD 7E 09       LD    A,(IX+$09)
30e1: B7             OR    A,A
30e2: 28 0C          JR    Z,$30F0

30e4: 11 0A 00       LD    DE,$000A
30e7: DD 19          ADD   IX,DE
30e9: 11 04 00       LD    DE,$0004
30ec: FD 19          ADD   IY,DE
30ee: 18 EE          JR    $30DE

30f0: FD E5          PUSH  IY
30f2: FD 2A 10 C0    LD    IY,(TANKS_DISKS?/BULLETS?_IN_RAM_STARTS_AT_C020)
30f6: FD 6E 0F       LD    L,(IY+$0F)
30f9: FD 66 10       LD    H,(IY+$10)
30fc: DD 74 05       LD    (IX+$05),H
30ff: DD 75 04       LD    (IX+$04),L
3102: FD 7E 0B       LD    A,(IY+$0B)
3105: B7             OR    A,A
3106: 3E 03          LD    A,#$03
3108: F2 0D 31       JP    P,$310D

310b: 3E FF          LD    A,#$FF
310d: 21 07 C0       LD    HL,MCP_TRON_X_TANKS_DATA_VECTOR_x_1
3110: 86             ADD   A,(HL)
3111: DD 77 01       LD    (IX+$01),A
3114: DD 36 00 00    LD    (IX+$00),#$00
3118: 47             LD    B,A
3119: 3A 09 C0       LD    A,(MCP_TRON_Y_TANKS_DATA_VECTOR_x_2)
311c: C6 FD          ADD   A,#$FD
311e: FD 6E 11       LD    L,(IY+$11)
3121: FD 66 12       LD    H,(IY+$12)
3124: DD 74 07       LD    (IX+$07),H
3127: DD 75 06       LD    (IX+$06),L
312a: DD 77 03       LD    (IX+$03),A
312d: DD 36 02 00    LD    (IX+$02),#$00
3131: DD 36 09 81    LD    (IX+$09),#$81
3135: DD 36 08 18    LD    (IX+$08),#$18
3139: FD E1          POP   IY
313b: FD 70 00       LD    (IY+$00),B
313e: CD 59 71       CALL  ADJUST_SPRITE_X_IF_FLIPPED_SCREEN
3141: FD 77 02       LD    (IY+$02),A
3144: FD 36 01 07    LD    (IY+$01),#$07
3148: C9             RET   

3149: 3A 07 C0       LD    A,(MCP_TRON_X_TANKS_DATA_VECTOR_x_1)
314c: DD 96 01       SUB   A,(IX+$01)
314f: 30 08          JR    NC,$3159

3151: ED 44          NEG   
3153: FE 0A          CP    A,#$0A
3155: 30 22          JR    NC,$3179

3157: 18 04          JR    $315D

3159: FE 11          CP    A,#$11
315b: 30 1C          JR    NC,$3179

315d: 3A 09 C0       LD    A,(MCP_TRON_Y_TANKS_DATA_VECTOR_x_2)
3160: DD 96 03       SUB   A,(IX+$03)
3163: 30 08          JR    NC,$316D

3165: ED 44          NEG   
3167: FE 12          CP    A,#$12
3169: 30 0E          JR    NC,$3179

316b: 18 04          JR    $3171

316d: FE 08          CP    A,#$08
316f: 30 08          JR    NC,$3179

3171: DD CB 09 46    BIT   0,(IX+$09)
3175: C0             RET   NZ

3176: C3 7E 31       JP    MCP_DISK_END_FLIGHT

3179: DD CB 09 86    RES   0,(IX+$09)
317d: C9             RET   

MCP_DISK_END_FLIGHT:
317e: DD 36 09 00    LD    (IX+$09),#$00
3182: FD 36 00 00    LD    (IY+$00),#$00
3186: 21 1D C4       LD    HL,REMAINING_DISKS_AT_A_TIME
3189: 34             INC   (HL)
318a: C9             RET   

318b: 3A 05 C0       LD    A,($C005)
318e: E6 02          AND   A,#$02
3190: CC A1 31       CALL  Z,$31A1
3193: CD D6 32       CALL  $32D6
3196: 3A 05 C0       LD    A,($C005)
3199: E6 86          AND   A,#$86
319b: FE 80          CP    A,#$80
319d: CC FA 33       CALL  Z,$33FA
31a0: C9             RET   

31a1: 21 DE C0       LD    HL,$C0DE
31a4: 35             DEC   (HL)
31a5: C0             RET   NZ

31a6: 3A E5 C0       LD    A,(MCP_ROTATION_SPEED_LOWER_IS_FASTER)
31a9: 77             LD    (HL),A
31aa: 3A E9 C0       LD    A,(MCP_DIRECTION_0_IS_RIGHT)
31ad: B7             OR    A,A
31ae: 20 18          JR    NZ,MCP_ROTATE_LEFT

MCP_ROTATE_RIGHT:
31b0: CD 13 32       CALL  $3213
31b3: CD FA 31       CALL  $31FA
31b6: 21 62 C0       LD    HL,MCP_POSITION_OF_BLOCKS_0_TO_F
31b9: 34             INC   (HL)
31ba: 3A E6 C0       LD    A,(MCP_BLOCKS_PER_ROW)
31bd: 3D             DEC   A
31be: BE             CP    A,(HL)
31bf: 30 02          JR    NC,$31C3

31c1: 36 00          LD    (HL),#$00
31c3: CD 42 32       CALL  $3242
31c6: 18 15          JR    $31DD

MCP_ROTATE_LEFT:
31c8: CD 81 32       CALL  $3281
31cb: CD 68 32       CALL  $3268
31ce: 21 62 C0       LD    HL,MCP_POSITION_OF_BLOCKS_0_TO_F
31d1: 35             DEC   (HL)
31d2: F2 DA 31       JP    P,$31DA

31d5: 3A E6 C0       LD    A,(MCP_BLOCKS_PER_ROW)
31d8: 3D             DEC   A
31d9: 77             LD    (HL),A
31da: CD A7 32       CALL  $32A7
31dd: 3A 62 C0       LD    A,(MCP_POSITION_OF_BLOCKS_0_TO_F)
31e0: 21 E6 C0       LD    HL,MCP_BLOCKS_PER_ROW
31e3: 96             SUB   A,(HL)
31e4: ED 44          NEG   
31e6: 87             ADD   A,A
31e7: 21 DA 35       LD    HL,_???_
31ea: CD 00 6F       CALL  ADD_A_TO_HL_WITH_CARRY
31ed: 22 10 C4       LD    (MCP_BLOCKS_COLORS_STARTPOINT_VECTOR_INTO_0E55),HL
31f0: 3E 01          LD    A,#$01
31f2: 32 0F C4       LD    (ATTRACT_MCP_ROTATE_COLORS_IF_NON_ZERO),A
31f5: 0E 39          LD    C,#$39
31f7: C3 B8 6F       JP    PUT_C_ON_STACK_TO_SEND_TO_AUDIO

31fa: DD 21 C3 C0    LD    IX,$C0C3
31fe: 11 FC FF       LD    DE,$FFFC
3201: 06 19          LD    B,#$19
3203: DD 7E 03       LD    A,(IX+$03)
3206: FE 80          CP    A,#$80
3208: 28 01          JR    Z,$320B

320a: AF             XOR   A,A
320b: DD 77 17       LD    (IX+$17),A
320e: DD 19          ADD   IX,DE
3210: 10 F1          DJNZ  $3203

3212: C9             RET   

3213: 06 05          LD    B,#$05
3215: 0E 00          LD    C,#$00
3217: DD 21 C7 C0    LD    IX,$C0C7
321b: 11 04 00       LD    DE,$0004
321e: CB 21          SLA   C
3220: DD 7E 03       LD    A,(IX+$03)
3223: E6 81          AND   A,#$81
3225: FE 80          CP    A,#$80
3227: 20 01          JR    NZ,$322A

3229: 0C             INC   C
322a: DD 19          ADD   IX,DE
322c: 10 F0          DJNZ  $321E

322e: 3A 62 C0       LD    A,(MCP_POSITION_OF_BLOCKS_0_TO_F)
3231: D6 05          SUB   A,#$05
3233: F2 3A 32       JP    P,$323A

3236: 21 E6 C0       LD    HL,MCP_BLOCKS_PER_ROW
3239: 86             ADD   A,(HL)
323a: 21 3A C0       LD    HL,MCP_DATA_TO_C0D9?
323d: CD 00 6F       CALL  ADD_A_TO_HL_WITH_CARRY
3240: 71             LD    (HL),C
3241: C9             RET   

3242: DD 21 73 C0    LD    IX,$C073
3246: 3A 62 C0       LD    A,(MCP_POSITION_OF_BLOCKS_0_TO_F)
3249: 21 3A C0       LD    HL,MCP_DATA_TO_C0D9?
324c: CD 00 6F       CALL  ADD_A_TO_HL_WITH_CARRY
324f: 7E             LD    A,(HL)
3250: 06 05          LD    B,#$05
3252: 11 FC FF       LD    DE,$FFFC
3255: CB 3F          SRL   A
3257: 30 06          JR    NC,$325F

3259: DD 36 03 80    LD    (IX+$03),#$80
325d: 18 04          JR    $3263

325f: DD 36 03 00    LD    (IX+$03),#$00
3263: DD 19          ADD   IX,DE
3265: 10 EE          DJNZ  $3255

3267: C9             RET   

3268: DD 21 63 C0    LD    IX,$C063
326c: 11 04 00       LD    DE,$0004
326f: 06 19          LD    B,#$19
3271: DD 7E 17       LD    A,(IX+$17)
3274: FE 80          CP    A,#$80
3276: 28 01          JR    Z,$3279

3278: AF             XOR   A,A
3279: DD 77 03       LD    (IX+$03),A
327c: DD 19          ADD   IX,DE
327e: 10 F1          DJNZ  $3271

3280: C9             RET   

3281: 06 05          LD    B,#$05
3283: 0E 00          LD    C,#$00
3285: DD 21 63 C0    LD    IX,$C063
3289: 11 04 00       LD    DE,$0004
328c: CB 21          SLA   C
328e: DD 7E 03       LD    A,(IX+$03)
3291: E6 81          AND   A,#$81
3293: FE 80          CP    A,#$80
3295: 20 01          JR    NZ,$3298

3297: 0C             INC   C
3298: DD 19          ADD   IX,DE
329a: 10 F0          DJNZ  $328C

329c: 3A 62 C0       LD    A,(MCP_POSITION_OF_BLOCKS_0_TO_F)
329f: 21 3A C0       LD    HL,MCP_DATA_TO_C0D9?
32a2: CD 00 6F       CALL  ADD_A_TO_HL_WITH_CARRY
32a5: 71             LD    (HL),C
32a6: C9             RET   

32a7: DD 21 D7 C0    LD    IX,$C0D7
32ab: 3A 62 C0       LD    A,(MCP_POSITION_OF_BLOCKS_0_TO_F)
32ae: D6 05          SUB   A,#$05
32b0: F2 B7 32       JP    P,$32B7

32b3: 21 E6 C0       LD    HL,MCP_BLOCKS_PER_ROW
32b6: 86             ADD   A,(HL)
32b7: 21 3A C0       LD    HL,MCP_DATA_TO_C0D9?
32ba: CD 00 6F       CALL  ADD_A_TO_HL_WITH_CARRY
32bd: 7E             LD    A,(HL)
32be: 06 05          LD    B,#$05
32c0: 11 FC FF       LD    DE,$FFFC
32c3: CB 3F          SRL   A
32c5: 30 06          JR    NC,$32CD

32c7: DD 36 03 80    LD    (IX+$03),#$80
32cb: 18 04          JR    $32D1

32cd: DD 36 03 00    LD    (IX+$03),#$00
32d1: DD 19          ADD   IX,DE
32d3: 10 EE          DJNZ  $32C3

32d5: C9             RET   

32d6: 3A 07 C0       LD    A,(MCP_TRON_X_TANKS_DATA_VECTOR_x_1)
32d9: 21 DD C0       LD    HL,MCP_TOWER_X
32dc: BE             CP    A,(HL)
32dd: 30 03          JR    NC,$32E2

32df: 77             LD    (HL),A
32e0: 18 0D          JR    $32EF

32e2: C6 10          ADD   A,#$10
32e4: 47             LD    B,A
32e5: 7E             LD    A,(HL)
32e6: C6 54          ADD   A,#$54
32e8: 90             SUB   A,B
32e9: 30 04          JR    NC,$32EF

32eb: ED 44          NEG   
32ed: 86             ADD   A,(HL)
32ee: 77             LD    (HL),A
32ef: 2A DB C0       LD    HL,($C0DB)
32f2: 3A 05 C0       LD    A,($C005)
32f5: E6 02          AND   A,#$02
32f7: 20 0D          JR    NZ,$3306

32f9: ED 5B E7 C0    LD    DE,(MCP_Y_SPEED_LOWER_IS_SLOWER)
32fd: 7C             LD    A,H
32fe: FE F8          CP    A,#$F8
3300: 30 04          JR    NC,$3306

3302: 19             ADD   HL,DE
3303: 22 DB C0       LD    ($C0DB),HL
3306: 7C             LD    A,H
3307: 4F             LD    C,A
MCP_DRAW_CONE:
3308: CD 59 71       CALL  ADJUST_SPRITE_X_IF_FLIPPED_SCREEN
330b: FD 21 A0 F0    LD    IY,MCP_TOWER_TO_F133
330f: 21 B3 35       LD    HL,MCP_CONE_RELATIVEX_RELATIVEY_SPRITE_NUMBER_TO_35D9
3312: 06 0D          LD    B,#$0D
3314: 11 04 00       LD    DE,$0004
3317: 3A DD C0       LD    A,(MCP_TOWER_X)
331a: 86             ADD   A,(HL)
331b: FD 77 00       LD    (IY+$00),A
331e: 79             LD    A,C
331f: 23             INC   HL
3320: 86             ADD   A,(HL)
3321: CD 59 71       CALL  ADJUST_SPRITE_X_IF_FLIPPED_SCREEN
3324: FD 77 02       LD    (IY+$02),A
3327: 23             INC   HL
3328: 7E             LD    A,(HL)
3329: FD 77 01       LD    (IY+$01),A
332c: 23             INC   HL
332d: FD 19          ADD   IY,DE
332f: 10 E6          DJNZ  $3317

MCP_DRAW_WALLS:
3331: 11 08 00       LD    DE,$0008
3334: 3A DC C0       LD    A,(MCP_TOWER_Y)
3337: C6 00          ADD   A,#$00
3339: 67             LD    H,A
333a: FE F8          CP    A,#$F8
333c: 30 25          JR    NC,MCP_HIDE_SPRITES_33_AND_34

333e: CD 59 71       CALL  ADJUST_SPRITE_X_IF_FLIPPED_SCREEN
3341: FD 77 02       LD    (IY+$02),A
3344: FD 77 06       LD    (IY+$06),A
3347: 3A DD C0       LD    A,(MCP_TOWER_X)
334a: C6 F7          ADD   A,#$F7
334c: FD 77 00       LD    (IY+$00),A
334f: C6 5A          ADD   A,#$5A
3351: FD 77 04       LD    (IY+$04),A
3354: FD 36 01 0D    LD    (IY+$01),#$0D
3358: FD 36 05 8D    LD    (IY+$05),#$8D
335c: FD 19          ADD   IY,DE
335e: 7C             LD    A,H
335f: C6 10          ADD   A,#$10
3361: 30 D6          JR    NC,$3339

MCP_HIDE_SPRITES_33_AND_34:
3363: FD 36 00 00    LD    (IY+$00),#$00
3367: FD 36 02 00    LD    (IY+$02),#$00
336b: FD 36 01 3F    LD    (IY+$01),#$3F
336f: FD 36 04 00    LD    (IY+$04),#$00
3373: FD 36 06 00    LD    (IY+$06),#$00
3377: FD 36 05 3F    LD    (IY+$05),#$3F
MCP_DRAW_BLOCKS:
337b: 06 1E          LD    B,#$1E
337d: DD 21 63 C0    LD    IX,$C063
3381: FD 21 28 F0    LD    IY,MCP_BLOCKS_TOP_LEFT_MOVING_DOWN_AND_WRAP_TO_TOP_RIGHT_TO_F09F
3385: 21 59 35       LD    HL,MCP_BLOCKS_DATA_TO_35B2
3388: AF             XOR   A,A
3389: 32 01 C0       LD    (TANK_PIC_OR_MCP_ROWS_OF_BLOCKS),A
338c: DD CB 03 7E    BIT   7,(IX+$03)
3390: 28 43          JR    Z,$33D5

3392: 3A DD C0       LD    A,(MCP_TOWER_X)
3395: 86             ADD   A,(HL)
3396: 23             INC   HL
3397: FD 77 00       LD    (IY+$00),A
339a: DD 77 00       LD    (IX+$00),A
339d: 79             LD    A,C
339e: 86             ADD   A,(HL)
339f: 23             INC   HL
33a0: 38 0D          JR    C,MCP_HIDE_SPRITE_GOING_OFF_BOTTOM_OF_SCREEN

33a2: DD 77 01       LD    (IX+$01),A
33a5: CD 59 71       CALL  ADJUST_SPRITE_X_IF_FLIPPED_SCREEN
33a8: FD 77 02       LD    (IY+$02),A
33ab: FE F8          CP    A,#$F8
33ad: 38 12          JR    C,$33C1

MCP_HIDE_SPRITE_GOING_OFF_BOTTOM_OF_SCREEN:
33af: DD 36 03 00    LD    (IX+$03),#$00
33b3: FD 36 00 00    LD    (IY+$00),#$00
33b7: FD 36 01 3F    LD    (IY+$01),#$3F
33bb: FD 36 02 00    LD    (IY+$02),#$00
33bf: 18 22          JR    $33E3

33c1: DD CB 03 46    BIT   0,(IX+$03)
33c5: 20 09          JR    NZ,$33D0

33c7: 7E             LD    A,(HL)
33c8: FD 77 01       LD    (IY+$01),A
33cb: CD 86 34       CALL  $3486
33ce: 18 13          JR    $33E3

33d0: CD 0D 35       CALL  $350D
33d3: 18 0E          JR    $33E3

33d5: FD 36 00 00    LD    (IY+$00),#$00
33d9: FD 36 02 00    LD    (IY+$02),#$00
33dd: FD 36 01 3F    LD    (IY+$01),#$3F
33e1: 23             INC   HL
33e2: 23             INC   HL
33e3: 23             INC   HL
33e4: 11 04 00       LD    DE,$0004
33e7: FD 19          ADD   IY,DE
33e9: 11 04 00       LD    DE,$0004
33ec: DD 19          ADD   IX,DE
33ee: 3A 01 C0       LD    A,(TANK_PIC_OR_MCP_ROWS_OF_BLOCKS)
33f1: 3C             INC   A
33f2: FE 05          CP    A,#$05
33f4: 38 01          JR    C,$33F7

33f6: AF             XOR   A,A
33f7: 10 90          DJNZ  $3389

33f9: C9             RET   

33fa: 3A DC C0       LD    A,(MCP_TOWER_Y)
33fd: 4F             LD    C,A
33fe: 3A 09 C0       LD    A,(MCP_TRON_Y_TANKS_DATA_VECTOR_x_2)
3401: C6 18          ADD   A,#$18
3403: B9             CP    A,C
3404: 30 1E          JR    NC,$3424

3406: 3E 82          LD    A,#$82
3408: 32 05 C0       LD    ($C005),A
340b: 3E 60          LD    A,#$60
340d: 32 0E C0       LD    (INFINITE_TIME_CHEAT),A
3410: 0E 25          LD    C,#$25
3412: CD B8 6F       CALL  PUT_C_ON_STACK_TO_SEND_TO_AUDIO
3415: 11 67 2C       LD    DE,1000_FOR_ENTERING_CONE_S
3418: 01 92 FE       LD    BC,$FE92
341b: CD 5D 70       CALL  ADD_MESSAGE_TO_Q
341e: 21 81 34       LD    HL,DATA_FOR_???_TO_3485
3421: C3 52 6F       JP    PROCESS_HIT_ON_TANK_SPIDER_MCP_BLOCK_OR_LC

3424: 79             LD    A,C
3425: C6 42          ADD   A,#$42
3427: 38 09          JR    C,$3432

3429: FE F8          CP    A,#$F8
342b: 30 05          JR    NC,$3432

342d: 21 09 C0       LD    HL,MCP_TRON_Y_TANKS_DATA_VECTOR_x_2
3430: BE             CP    A,(HL)
3431: D8             RET   C

3432: DD 21 63 C0    LD    IX,$C063
3436: FD 21 59 35    LD    IY,MCP_BLOCKS_DATA_TO_35B2
343a: 06 1E          LD    B,#$1E
343c: DD 7E 03       LD    A,(IX+$03)
343f: B7             OR    A,A
3440: 28 32          JR    Z,$3474

3442: 3A 07 C0       LD    A,(MCP_TRON_X_TANKS_DATA_VECTOR_x_1)
3445: DD 96 00       SUB   A,(IX+$00)
3448: 30 08          JR    NC,$3452

344a: ED 44          NEG   
344c: FE 0F          CP    A,#$0F
344e: 30 24          JR    NC,$3474

3450: 18 0C          JR    $345E

3452: 4F             LD    C,A
3453: FD 7E 0F       LD    A,(IY+$0F)
3456: FD 96 00       SUB   A,(IY+$00)
3459: D6 02          SUB   A,#$02
345b: B9             CP    A,C
345c: 38 16          JR    C,$3474

345e: 3A 09 C0       LD    A,(MCP_TRON_Y_TANKS_DATA_VECTOR_x_2)
3461: DD 96 01       SUB   A,(IX+$01)
3464: 30 09          JR    NC,$346F

3466: ED 44          NEG   
3468: FE 17          CP    A,#$17
346a: 30 08          JR    NC,$3474       ;Invincibility MCP Game = 18 (JR *)

346c: C3 5F 2F       JP    $2F5F

346f: FE 0E          CP    A,#$0E
3471: DA 5F 2F       JP    C,$2F5F        ;Invincibility MCP Game = 11 (LD DE, **)

3474: 11 04 00       LD    DE,$0004
3477: DD 19          ADD   IX,DE
3479: 11 03 00       LD    DE,$0003
347c: FD 19          ADD   IY,DE
347e: 10 BC          DJNZ  $343C

3480: C9             RET   

DATA_FOR_???_TO_3485:
3481: 00 00 00 01 00 

3486: E5             PUSH  HL
3487: C5             PUSH  BC
3488: FD 22 09 C4    LD    (MCP_SPRITE_BLOCK_HIT_BY_DISK),IY
348c: DD 22 0B C4    LD    (MCP_RAM_DATA_OF_BLOCK_HIT_BY_DISK),IX
3490: 2B             DEC   HL
3491: 2B             DEC   HL
3492: E5             PUSH  HL
3493: FD E1          POP   IY
3495: DD 66 00       LD    H,(IX+$00)
3498: FD 7E 0F       LD    A,(IY+$0F)
349b: FD 96 00       SUB   A,(IY+$00)
349e: C6 FC          ADD   A,#$FC
34a0: 6F             LD    L,A
34a1: 22 DF C0       LD    ($C0DF),HL
34a4: DD 66 01       LD    H,(IX+$01)
34a7: 2E 0A          LD    L,#$0A
34a9: 22 E1 C0       LD    ($C0E1),HL
34ac: DD 21 12 C0    LD    IX,MCP_DISK_1_DATA/IO_TOWER_TIMER_DIGITS_TO_C019
34b0: FD 21 18 F0    LD    IY,IO_OR_MCP_OR_TANK_DISKS_1_TO_4
34b4: 3A 1E C4       LD    A,(MAX_DISKS_AT_A_TIME)
34b7: 47             LD    B,A
34b8: DD CB 09 7E    BIT   7,(IX+$09)
34bc: 28 38          JR    Z,$34F6

34be: 2A DF C0       LD    HL,($C0DF)
34c1: DD 7E 01       LD    A,(IX+$01)
34c4: 94             SUB   A,H
34c5: 30 08          JR    NC,$34CF

34c7: ED 44          NEG   
34c9: FE 0A          CP    A,#$0A
34cb: 30 29          JR    NC,$34F6

34cd: 18 03          JR    $34D2

34cf: BD             CP    A,L
34d0: 30 24          JR    NC,$34F6

34d2: 2A E1 C0       LD    HL,($C0E1)
34d5: DD 7E 03       LD    A,(IX+$03)
34d8: 94             SUB   A,H
34d9: 30 08          JR    NC,$34E3

34db: ED 44          NEG   
34dd: FE 0A          CP    A,#$0A
34df: 30 15          JR    NC,$34F6

34e1: 18 03          JR    $34E6

34e3: BD             CP    A,L
34e4: 30 10          JR    NC,$34F6

34e6: CD 7E 31       CALL  MCP_DISK_END_FLIGHT
34e9: DD 2A 0B C4    LD    IX,(MCP_RAM_DATA_OF_BLOCK_HIT_BY_DISK)
34ed: FD 2A 09 C4    LD    IY,(MCP_SPRITE_BLOCK_HIT_BY_DISK)
34f1: CD 2A 35       CALL  MCP_PROCESS_HIT_BLOCK
34f4: 18 14          JR    $350A

34f6: 11 04 00       LD    DE,$0004
34f9: FD 19          ADD   IY,DE
34fb: 11 0A 00       LD    DE,$000A
34fe: DD 19          ADD   IX,DE
3500: 10 B6          DJNZ  $34B8

3502: FD 2A 09 C4    LD    IY,(MCP_SPRITE_BLOCK_HIT_BY_DISK)
3506: DD 2A 0B C4    LD    IX,(MCP_RAM_DATA_OF_BLOCK_HIT_BY_DISK)
350a: C1             POP   BC
350b: E1             POP   HL
350c: C9             RET   

350d: DD 35 02       DEC   (IX+$02)
3510: C0             RET   NZ

3511: FD 7E 01       LD    A,(IY+$01)
3514: FE 03          CP    A,#$03
3516: CA 21 35       JP    Z,$3521

3519: FD 34 01       INC   (IY+$01)
351c: DD 36 02 02    LD    (IX+$02),#$02
3520: C9             RET   

3521: DD 36 03 00    LD    (IX+$03),#$00
3525: FD 36 00 00    LD    (IY+$00),#$00
3529: C9             RET   


*** Decrement blocks remaining, change block sprite to explosion (00)
MCP_PROCESS_HIT_BLOCK:
352a: 21 E3 C0       LD    HL,MCP_BLOCKS_REMAINING_COUNT
352d: 35             DEC   (HL)
352e: FD 36 01 00    LD    (IY+$01),#$00
3532: 21 54 35       LD    HL,MCP_BLOCK_DATA_TO_PROCESS_HIT
3535: C5             PUSH  BC
3536: CD 52 6F       CALL  PROCESS_HIT_ON_TANK_SPIDER_MCP_BLOCK_OR_LC
3539: C1             POP   BC
353a: DD 36 02 02    LD    (IX+$02),#$02
353e: DD 36 03 81    LD    (IX+$03),#$81
3542: 3A 01 C0       LD    A,(TANK_PIC_OR_MCP_ROWS_OF_BLOCKS)
3545: 21 4F 35       LD    HL,MCP_BLOCK_HIT_AUDIO
3548: CD 00 6F       CALL  ADD_A_TO_HL_WITH_CARRY
354b: 4E             LD    C,(HL)
354c: C3 B8 6F       JP    PUT_C_ON_STACK_TO_SEND_TO_AUDIO


*** Audio to play for block hit. Number of rows dictates sound used?
*** When you get to 5 rows, is the wrong sound (@3554) played?
MCP_BLOCK_HIT_AUDIO:
354f: 34 33 32 31 31 


*** Data used at 3532 for processing MCP block hit
MCP_BLOCK_DATA_TO_PROCESS_HIT:
3554: 05 02 00 00 00 


*** 5 rows (max) by 6 columns (always) by 3 bytes:
*** relative X, relative Y, picture number
MCP_BLOCKS_DATA_TO_35B2:
3559: 00 00 31 00 0C 31 00 18 31 00 24 31 00 30 31 0C 
3569: 03 32 0C 0F 32 0C 1B 32 0C 27 32 0C 33 32 1C 05 
3579: 33 1C 11 33 1C 1D 33 1C 29 33 1C 35 33 2C 05 34 
3589: 2C 11 34 2C 1D 34 2C 29 34 2C 35 34 3C 03 35 3C 
3599: 0F 35 3C 1B 35 3C 27 35 3C 33 35 48 00 36 48 0C 
35a9: 36 48 18 36 48 24 36 48 30 36 

MCP_CONE_RELATIVEX_RELATIVEY_SPRITE_NUMBER_TO_35D9:
35b3: 08 F4 38 18 F4 37 28 F4 37 38 F4 37 42 F4 B8 10 
35c3: E8 38 20 E8 37 30 E8 37 3C E8 B8 18 DC 38 28 DC 
35d3: 37 34 DC B8 24 D0 39 


*** MCP colors?
_???_:
35da: 01 C0 00 38 00 07 01 C7 01 F8 00 3F 01 C0 00 38 
35ea: 00 07 01 C7 01 F8 00 3F 01 C0 00 38 00 07 01 C7 
35fa: 01 F8 00 3F 01 C0 00 38 00 07 01 C7 01 F8 00 3F 
360a: 01 C0 00 38 00 07 01 C7 01 F8 00 3F 01 C0 00 38 
361a: 00 07 01 C7 01 F8 00 3F 01 C0 00 38 00 07 01 C7 
362a: 01 F8 00 3F 0F 00 00 F0 00 0F 0F 0F 0F F0 00 FF 
363a: 00 00 00 00 00 FE 00 00 00 02 00 00 00 00 00 00 
364a: 00 00 00 FE 00 FE 00 FE 00 02 00 FE 00 00 00 00 
365a: 00 00 00 02 00 FE 00 02 00 02 00 02 00 00 00 00 
366a: 00 00 00 00 00 00 00 00 00 00 00 00 00 00 00 00 
367a: 9D 9E 9F A0 AB 00 01 AC 00 02 AA 07 F9 FA 03 00 
368a: 04 00 00 9D 9E 9F A0 AB 00 01 AC 00 02 E9 07 03 
369a: FA 03 D8 03 AC 00 9D 9E 9F A0 AB 00 01 AC 00 02 
36aa: E8 07 03 FA 03 AC 03 58 01 9D 9E 9F A0 AB 00 01 
36ba: AC 00 02 E7 07 03 FA 03 64 03 F4 01 9D 9E 9F A0 
36ca: AB 00 01 AC 00 02 E6 07 03 FA 03 00 03 84 02 9D 
36da: 9E 9F A0 AB 00 01 AC 00 02 E5 07 03 FA 03 84 02 
36ea: 00 03 9D 9E 9F A0 AB 00 01 AC 00 02 E4 07 03 FA 
36fa: 03 F4 01 64 03 9D 9E 9F A0 AB 00 01 AC 00 02 E3 
370a: 07 03 FA 03 58 01 AC 03 9D 9E 9F A0 AB 00 01 AC 
371a: 00 02 E2 07 03 FA 03 AC 00 D8 03 9D 9E 9F A0 AB 
372a: 00 01 AC 00 02 E1 07 03 FA 03 00 00 00 04 1D 1E 
373a: 1F 20 2B 00 01 2C 00 02 62 FA 02 06 03 54 FF D8 
374a: 03 1D 1E 1F 20 2B 00 01 2C 00 02 63 FA 02 06 03 
375a: A8 FE AC 03 1D 1E 1F 20 2B 00 01 2C 00 02 64 FA 
376a: 02 06 03 0C FE 64 03 1D 1E 1F 20 2B 00 01 2C 00 
377a: 02 65 FA 02 06 03 7C FD 00 03 1D 1E 1F 20 2B 00 
378a: 01 2C 00 02 66 FA 02 06 03 00 FD 84 02 1D 1E 1F 
379a: 20 2B 00 01 2C 00 02 67 FA 02 06 03 9C FC F4 01 
37aa: 1D 1E 1F 20 2B 00 01 2C 00 02 68 FA 02 06 03 54 
37ba: FC 58 01 1D 1E 1F 20 2B 00 01 2C 00 02 69 FA 02 
37ca: 06 03 28 FC AC 00 1D 1E 1F 20 2B 00 01 2C 00 02 
37da: 2A FA F9 06 03 00 FC 00 00 1D 1E 1F 20 2B 00 01 
37ea: 2C 00 02 29 FA F9 06 03 28 FC 54 FF 1D 1E 1F 20 
37fa: 2B 00 01 2C 00 02 28 FA F9 06 03 54 FC A8 FE 1D 
380a: 1E 1F 20 2B 00 01 2C 00 02 27 FA F9 06 03 9C FC 
381a: 0C FE 1D 1E 1F 20 2B 00 01 2C 00 02 26 FA F9 06 
382a: 03 00 FD 7C FD 1D 1E 1F 20 2B 00 01 2C 00 02 25 
383a: FA F9 06 03 7C FD 00 FD 1D 1E 1F 20 2B 00 01 2C 
384a: 00 02 24 FA F9 06 03 0C FE 9C FC 1D 1E 1F 20 2B 
385a: 00 01 2C 00 02 23 FA F9 06 03 A8 FE 54 FC 1D 1E 
386a: 1F 20 2B 00 01 2C 00 02 22 FA F9 06 03 54 FF 28 
387a: FC 1D 1E 1F 20 2B 00 01 2C 00 02 21 FA F9 06 03 
388a: 00 00 00 FC 9D 9E 9F A0 AB 00 01 AC 00 02 A2 07 
389a: F9 FA 03 AC 00 28 FC 9D 9E 9F A0 AB 00 01 AC 00 
38aa: 02 A3 07 F9 FA 03 58 01 54 FC 9D 9E 9F A0 AB 00 
38ba: 01 AC 00 02 A4 07 F9 FA 03 F4 01 9C FC 9D 9E 9F 
38ca: A0 AB 00 01 AC 00 02 A5 07 F9 FA 03 84 02 00 FD 
38da: 9D 9E 9F A0 AB 00 01 AC 00 02 A6 07 F9 FA 03 00 
38ea: 03 7C FD 9D 9E 9F A0 AB 00 01 AC 00 02 A7 07 F9 
38fa: FA 03 64 03 0C FE 9D 9E 9F A0 AB 00 01 AC 00 02 
390a: A8 07 F9 FA 03 AC 03 A8 FE 9D 9E 9F A0 AB 00 01 
391a: AC 00 02 A9 07 F9 FA 03 D8 03 54 FF 

MCP_COLOR_PALETTE_ALL_ZEROS:
3926: 00 00 00 00 00 00 00 00 00 00 00 00 00 00 00 00 
3936: 00 00 00 00 00 00 00 00 00 00 00 00 00 00 00 00 


*** Data used where for what?
3946: 00 00 01 C0 01 80 00 38 01 D4 00 07 01 C2 01 C5 
3956: 00 00 00 7E 00 04 01 C7 00 00 01 F8 00 38 00 3F 


*** Data for setting up MCP cone game.
*** 10x4: 4= direction, blocks per row, Y move delay, rotation delay
*** plugged into C0E9, C0E6, C0E7, C0E5
DATA_FOR_MCP_SETUP_TO_398D:
3966: 00 10 32 20 00 18 28 20 00 20 24 20 01 28 28 18 
3976: 00 28 32 10 01 28 60 40 00 28 C0 0E 01 28 60 0E 
3986: 01 28 C0 0E 01 28 32 10 


*** Data used where for what?
398e: C2 F0 E4 AD 29 0E F1 81 EF 52 9F 40 72 E6 9A 18 
399e: 25 0C 16 7D E0 02 22 90 EC 14 31 E3 E4 96 F1 44 
39ae: A0 52 50 01 3F 84 A9 11 B8 06 70 5C 36 F0 42 71 
39be: 14 7A D1 AD 3D BF BD 3A 5A 77 1F F0 DB 56 BF 9F 
39ce: 77 86 BF CA 6B F6 9F 4E 1F 8E 5E 07 47 AE F9 CD 
39de: FE 47 B9 AF 97 D1 EF AF 52 D6 A5 D9 24 E7 C1 AF 
39ee: DF 62 EB BF DE BE F4 9F A5 D6 AF 0F 0F CD 9B F9 
39fe: 6D 4B 

PLAY_TANKS:
3a00: CD 20 70       CALL  ZERO_RAM_C000-C418
3a03: CD 49 70       CALL  INITIALIZE_SPRITES
3a06: 3E 02          LD    A,#$02
3a08: 32 5B C4       LD    (GS_DIRECTION:1=DOWN,2=?,3=?,5=?,OTHER=?),A
3a0b: 3E 10          LD    A,#$10
3a0d: 32 4E C1       LD    ($C14E),A
3a10: 21 00 72       LD    HL,BACKGROUND_TANK_GAME
3a13: CD 35 70       CALL  BACKGROUND_RAM_FILL_FROM_HL_0780_BYTES_TO_F800
3a16: 21 80 79       LD    HL,TANK_COLOR_PALETTE
3a19: CD 35 6F       CALL  COPY_20_FROM_HL_TO_FF80
3a1c: AF             XOR   A,A
3a1d: 32 05 C4       LD    (MCP_TRON_ARM_OR_TANK_TURRET_ROTATION),A
3a20: 21 2C 01       LD    HL,$012C
3a23: 22 48 C1       LD    ($C148),HL
3a26: 3E 01          LD    A,#$01
3a28: 32 08 C4       LD    ($C408),A

*** Set up disks (up to 4) in sprites 3-6 (F00C-F01B)
3a2b: 3A 1E C4       LD    A,(MAX_DISKS_AT_A_TIME)
3a2e: 4F             LD    C,A
3a2f: 06 00          LD    B,#$00
3a31: 21 0C F0       LD    HL,TANK_DISKS_F00C_TO_F01B(SPRITES_3_TO_6)
3a34: 11 10 00       LD    DE,$0010
3a37: FD 21 01 C0    LD    IY,TANK_PIC_OR_MCP_ROWS_OF_BLOCKS
3a3b: FD 19          ADD   IY,DE
3a3d: FD 36 00 00    LD    (IY+$00),#$00
3a41: FD 36 08 00    LD    (IY+$08),#$00
3a45: FD 36 09 00    LD    (IY+$09),#$00
3a49: FD 75 0B       LD    (IY+$0B),L
3a4c: FD 74 0C       LD    (IY+$0C),H
3a4f: FD 70 0F       LD    (IY+$0F),B
3a52: E5             PUSH  HL
3a53: CD C7 47       CALL  $47C7
3a56: E1             POP   HL
3a57: 3E 04          LD    A,#$04
3a59: CD 00 6F       CALL  ADD_A_TO_HL_WITH_CARRY
3a5c: 0D             DEC   C
3a5d: 20 DC          JR    NZ,$3A3B

3a5f: 21 1C F0       LD    HL,IO_OR_MCP_OR_TANK_DISKS_2
3a62: 11 04 00       LD    DE,$0004
3a65: 36 00          LD    (HL),#$00
3a67: 19             ADD   HL,DE
3a68: 36 00          LD    (HL),#$00
3a6a: 19             ADD   HL,DE
3a6b: 36 00          LD    (HL),#$00
3a6d: 19             ADD   HL,DE
3a6e: 36 00          LD    (HL),#$00
3a70: 0E 00          LD    C,#$00
3a72: 3A 19 C4       LD    A,(HARDNESS_(OR_USER_LEVEL/CURRENT_PLAYER_DATA?))
3a75: FE 0B          CP    A,#$0B
3a77: 38 05          JR    C,$3A7E


*** If hardness above 0x0B (11), subtract 5 from hardness until hardness for
*** this game is =< 0x0B. Increment C for each subtraction. Cap C at 4.
*** Multiply C times 32 and place into C15F
3a79: D6 05          SUB   A,#$05
3a7b: 0C             INC   C
3a7c: 18 F7          JR    $3A75

3a7e: 87             ADD   A,A
3a7f: 87             ADD   A,A
3a80: 21 7E 4F       LD    HL,TANK_SET_UP_DATA
3a83: CD 00 6F       CALL  ADD_A_TO_HL_WITH_CARRY
3a86: 79             LD    A,C
3a87: FE 04          CP    A,#$04
3a89: 38 02          JR    C,$3A8D

3a8b: 3E 04          LD    A,#$04
3a8d: CB 27          SLA   A
3a8f: CB 27          SLA   A
3a91: CB 27          SLA   A
3a93: CB 27          SLA   A
3a95: CB 27          SLA   A
3a97: 32 5F C1       LD    (TANK_IF_HARDNESS>0X0B_SEE_COMMENT_AT_3A79),A
3a9a: 7E             LD    A,(HL)
3a9b: 32 5B C1       LD    (TANKS_SHOT_SPEED),A
3a9e: 23             INC   HL
3a9f: 7E             LD    A,(HL)
3aa0: E6 7F          AND   A,#$7F
3aa2: 32 4A C1       LD    (TANKS_NUMBER_OF_ENEMIES),A
3aa5: 32 59 C1       LD    (TANKS_NUMBER_OF_ENEMY_BULLETS?),A
3aa8: 4F             LD    C,A
3aa9: 7E             LD    A,(HL)
3aaa: E6 80          AND   A,#$80
3aac: 28 02          JR    Z,$3AB0


*** If bit 7 in number of tanks is set, C15C=0x35
3aae: 3E 35          LD    A,#$35
3ab0: 32 5C C1       LD    ($C15C),A
3ab3: 06 00          LD    B,#$00
3ab5: 23             INC   HL
3ab6: 5E             LD    E,(HL)
3ab7: 23             INC   HL
3ab8: 56             LD    D,(HL)
3ab9: D5             PUSH  DE
3aba: FD E1          POP   IY
3abc: 21 2C F0       LD    HL,TANK_ENEMIES
3abf: DD 21 51 C0    LD    IX,INFO_FOR_TANK_GAME_SEE_3ABF_TO_C05A_FOR_A_SINGLE_TANK
3ac3: FD 7E 00       LD    A,(IY+$00)
3ac6: DD 77 00       LD    (IX+$00),A
3ac9: FD 7E 01       LD    A,(IY+$01)
3acc: DD 77 01       LD    (IX+$01),A
3acf: FD 7E 02       LD    A,(IY+$02)
3ad2: DD 77 02       LD    (IX+$02),A
3ad5: FD 7E 03       LD    A,(IY+$03)
3ad8: DD 77 03       LD    (IX+$03),A
3adb: FD 7E 04       LD    A,(IY+$04)
3ade: DD 77 03       LD    (IX+$03),A
3ae1: FD 7E 05       LD    A,(IY+$05)
3ae4: DD 77 05       LD    (IX+$05),A
3ae7: FD 7E 06       LD    A,(IY+$06)
3aea: DD 77 06       LD    (IX+$06),A
3aed: FD 7E 07       LD    A,(IY+$07)
3af0: DD 77 07       LD    (IX+$07),A
3af3: FD 7E 08       LD    A,(IY+$08)
3af6: DD 77 08       LD    (IX+$08),A
3af9: E5             PUSH  HL
3afa: FD E5          PUSH  IY
3afc: FD 7E 09       LD    A,(IY+$09)
3aff: B7             OR    A,A
3b00: 20 05          JR    NZ,$3B07

3b02: CD 14 44       CALL  TANK_PROCESS_ENEMY_TANKS_ON_STARTUP_SOMEHOW?_USES_IX
3b05: 18 03          JR    $3B0A

3b07: CD 43 44       CALL  $4443
3b0a: FD E1          POP   IY
3b0c: DD 7E 08       LD    A,(IX+$08)
3b0f: FE 01          CP    A,#$01
3b11: 20 06          JR    NZ,$3B19

3b13: 85             ADD   A,L
3b14: 30 07          JR    NC,$3B1D

3b16: 24             INC   H
3b17: 18 04          JR    $3B1D

3b19: 85             ADD   A,L
3b1a: 38 01          JR    C,$3B1D

3b1c: 25             DEC   H
3b1d: 6F             LD    L,A
3b1e: 7E             LD    A,(HL)
3b1f: DD 77 0E       LD    (IX+$0E),A
3b22: DD 7E 0D       LD    A,(IX+$0D)
3b25: DD 86 08       ADD   A,(IX+$08)
3b28: DD 77 0D       LD    (IX+$0D),A
3b2b: DD 70 0A       LD    (IX+$0A),B
3b2e: 78             LD    A,B
3b2f: CB 27          SLA   A
3b31: CB 27          SLA   A
3b33: 6F             LD    L,A
3b34: CB 27          SLA   A
3b36: 85             ADD   A,L
3b37: 21 5C F0       LD    HL,$F05C
3b3a: 85             ADD   A,L
3b3b: 30 01          JR    NC,$3B3E

3b3d: 24             INC   H
3b3e: 6F             LD    L,A
3b3f: DD 75 18       LD    (IX+$18),L
3b42: DD 74 19       LD    (IX+$19),H
3b45: 36 00          LD    (HL),#$00
3b47: 11 04 00       LD    DE,$0004
3b4a: 19             ADD   HL,DE
3b4b: 36 00          LD    (HL),#$00
3b4d: 19             ADD   HL,DE
3b4e: 36 00          LD    (HL),#$00
3b50: DD 36 11 03    LD    (IX+$11),#$03
3b54: E1             POP   HL
3b55: DD 75 16       LD    (IX+$16),L
3b58: DD 74 17       LD    (IX+$17),H
3b5b: E5             PUSH  HL
3b5c: CD E2 47       CALL  TANK_POSITION_THE_ONE_AT_IX
3b5f: E1             POP   HL
3b60: 7D             LD    A,L
3b61: C6 04          ADD   A,#$04
3b63: 30 01          JR    NC,$3B66

3b65: 24             INC   H
3b66: 6F             LD    L,A
3b67: 04             INC   B
3b68: 11 20 00       LD    DE,$0020
3b6b: DD 19          ADD   IX,DE
3b6d: 11 0A 00       LD    DE,$000A
3b70: FD 19          ADD   IY,DE
3b72: 0D             DEC   C
3b73: C2 C3 3A       JP    NZ,$3AC3


*** Setup of enemy tank bullets
*** Sprite is explosion and X=0 and Y=4?
3b76: 3A 59 C1       LD    A,(TANKS_NUMBER_OF_ENEMY_BULLETS?)
3b79: 4F             LD    C,A
3b7a: 21 44 F0       LD    HL,TANK_ENEMY_BULLETS
3b7d: FD 21 08 C1    LD    IY,TANKS_ENEMY_BULLETS_IN_RAM_AT_C111?
3b81: 11 09 00       LD    DE,$0009
3b84: FD 19          ADD   IY,DE
3b86: FD 36 07 00    LD    (IY+$07),#$00
3b8a: FD 36 00 00    LD    (IY+$00),#$00
3b8e: FD 75 03       LD    (IY+$03),L
3b91: FD 74 04       LD    (IY+$04),H
3b94: E5             PUSH  HL
3b95: CD 70 4B       CALL  TANK_BULLET?_DRAW_USES_IY
3b98: E1             POP   HL
3b99: 7D             LD    A,L
3b9a: C6 04          ADD   A,#$04
3b9c: 30 01          JR    NC,$3B9F

3b9e: 24             INC   H
3b9f: 6F             LD    L,A
3ba0: 0D             DEC   C
3ba1: 20 DE          JR    NZ,$3B81


*** Set up Tron tank (the playa'!)
3ba3: 21 00 C0       LD    HL,CPU_RAM_OR_GS_DISK_X_TANK_X_OR_MCP_TRON_LEGS-LC_TRAILS_TO_C1DF
3ba6: 3E 61          LD    A,#$61
3ba8: 77             LD    (HL),A
3ba9: C6 08          ADD   A,#$08
3bab: 47             LD    B,A
3bac: 23             INC   HL
3bad: 36 4B          LD    (HL),#$4B
3baf: 23             INC   HL
3bb0: 3E 88          LD    A,#$88
3bb2: 77             LD    (HL),A
3bb3: C6 08          ADD   A,#$08
3bb5: 4F             LD    C,A
3bb6: 23             INC   HL
3bb7: 36 00          LD    (HL),#$00
3bb9: 23             INC   HL
3bba: 36 0E          LD    (HL),#$0E
3bbc: 23             INC   HL
3bbd: 36 01          LD    (HL),#$01
3bbf: 23             INC   HL
3bc0: 36 0E          LD    (HL),#$0E
3bc2: CD A5 40       CALL  $40A5
3bc5: 22 07 C0       LD    (MCP_TRON_X_TANKS_DATA_VECTOR_x_1),HL
3bc8: ED 43 09 C0    LD    (MCP_TRON_Y_TANKS_DATA_VECTOR_x_2),BC
3bcc: CD D0 40       CALL  TANK_UPDATE_POSITION_AND_PIC_OF_TANK_FROM_C000_TO_C002
3bcf: 3E 35          LD    A,#$35
3bd1: 32 50 C1       LD    ($C150),A
3bd4: 32 51 C1       LD    ($C151),A
3bd7: 4F             LD    C,A
3bd8: CD B8 6F       CALL  PUT_C_ON_STACK_TO_SEND_TO_AUDIO
3bdb: 0E 2E          LD    C,#$2E
3bdd: C3 B8 6F       JP    PUT_C_ON_STACK_TO_SEND_TO_AUDIO

3be0: 3A 47 C1       LD    A,($C147)
3be3: CB 47          BIT   0,A
3be5: 20 61          JR    NZ,$3C48

3be7: 3A 07 C4       LD    A,($C407)
3bea: E6 02          AND   A,#$02
3bec: 20 5D          JR    NZ,$3C4B

3bee: CD B5 3D       CALL  TANK_PROCESS_CONTROLS_INPUT
3bf1: CD C8 49       CALL  TANK_TURRET_DRAW
3bf4: 3A 47 C1       LD    A,($C147)
3bf7: E6 80          AND   A,#$80
3bf9: 20 50          JR    NZ,$3C4B

3bfb: AF             XOR   A,A
3bfc: 32 53 C1       LD    ($C153),A
3bff: CD FF 47       CALL  $47FF
3c02: CD 0D 42       CALL  $420D
3c05: CD 3E 3F       CALL  $3F3E
3c08: 3A 5C C1       LD    A,($C15C)
3c0b: B7             OR    A,A
3c0c: 28 11          JR    Z,$3C1F

3c0e: 21 5D C1       LD    HL,$C15D
3c11: 3E 80          LD    A,#$80
3c13: 86             ADD   A,(HL)
3c14: 77             LD    (HL),A
3c15: 30 34          JR    NC,$3C4B

3c17: CD 0D 42       CALL  $420D
3c1a: CD 3E 3F       CALL  $3F3E
3c1d: 18 2C          JR    $3C4B

3c1f: 21 5E C1       LD    HL,$C15E
3c22: 3A 5F C1       LD    A,(TANK_IF_HARDNESS>0X0B_SEE_COMMENT_AT_3A79)
3c25: 86             ADD   A,(HL)
3c26: 77             LD    (HL),A
3c27: DC 0D 42       CALL  C,$420D
3c2a: CD 54 4A       CALL  $4A54
3c2d: 21 54 C1       LD    HL,$C154
3c30: 3A 53 C1       LD    A,($C153)
3c33: B7             OR    A,A
3c34: 3E 2A          LD    A,#$2A
3c36: 28 02          JR    Z,$3C3A

3c38: 3E 29          LD    A,#$29
3c3a: BE             CP    A,(HL)
3c3b: 28 0E          JR    Z,$3C4B

3c3d: 77             LD    (HL),A
3c3e: FE 2A          CP    A,#$2A
3c40: 28 09          JR    Z,$3C4B

3c42: 4F             LD    C,A
3c43: CD B8 6F       CALL  PUT_C_ON_STACK_TO_SEND_TO_AUDIO
3c46: 18 03          JR    $3C4B

3c48: CD A8 3C       CALL  $3CA8
3c4b: CD 6D 45       CALL  $456D
3c4e: 21 5A C1       LD    HL,$C15A
3c51: 3A 5B C1       LD    A,(TANKS_SHOT_SPEED)
3c54: 86             ADD   A,(HL)
3c55: 77             LD    (HL),A
3c56: DC 90 4B       CALL  C,$4B90
3c59: 21 5E C1       LD    HL,$C15E
3c5c: 3A 5F C1       LD    A,(TANK_IF_HARDNESS>0X0B_SEE_COMMENT_AT_3A79)
3c5f: 86             ADD   A,(HL)
3c60: 77             LD    (HL),A
3c61: DC 90 4B       CALL  C,$4B90
3c64: 2A 48 C1       LD    HL,($C148)
3c67: 2B             DEC   HL
3c68: 22 48 C1       LD    ($C148),HL
3c6b: 7C             LD    A,H
3c6c: B5             OR    A,L
3c6d: 20 1D          JR    NZ,$3C8C

3c6f: 21 2C 01       LD    HL,$012C
3c72: 22 48 C1       LD    ($C148),HL
3c75: DD 21 51 C0    LD    IX,INFO_FOR_TANK_GAME_SEE_3ABF_TO_C05A_FOR_A_SINGLE_TANK
3c79: 3A 59 C1       LD    A,(TANKS_NUMBER_OF_ENEMY_BULLETS?)
3c7c: 47             LD    B,A
3c7d: 11 20 00       LD    DE,$0020
3c80: DD 7E 07       LD    A,(IX+$07)
3c83: EE 03          XOR   A,#$03
3c85: DD 77 07       LD    (IX+$07),A
3c88: DD 19          ADD   IX,DE
3c8a: 10 F4          DJNZ  $3C80

3c8c: 3A 47 C1       LD    A,($C147)
3c8f: FE 80          CP    A,#$80
3c91: C0             RET   NZ

3c92: 3A 7B C4       LD    A,(IN_ATTRACT_MODE?)
3c95: B7             OR    A,A
3c96: 20 09          JR    NZ,$3CA1

3c98: 21 52 C1       LD    HL,$C152
3c9b: 7E             LD    A,(HL)
3c9c: B7             OR    A,A
3c9d: 28 02          JR    Z,$3CA1

3c9f: 35             DEC   (HL)
3ca0: C9             RET   

3ca1: 3A 07 C4       LD    A,($C407)
3ca4: 32 7C C4       LD    (NEXT_SLOT_IN_SCREEN_MESSAGE_QUEUE_2),A
3ca7: C9             RET   

3ca8: 21 4C C1       LD    HL,$C14C
3cab: 35             DEC   (HL)
3cac: C0             RET   NZ

3cad: FD 21 04 F0    LD    IY,TANK_BODY_OR_LC_OR_IO_OR_MCP_TRON_AND_DISK_TORSO_LEGS_LEFT_DISK_RIGHT
3cb1: FD 7E 01       LD    A,(IY+$01)
3cb4: FE 03          CP    A,#$03
3cb6: 28 06          JR    Z,$3CBE

3cb8: FD 34 01       INC   (IY+$01)
3cbb: 36 04          LD    (HL),#$04
3cbd: C9             RET   

3cbe: FD 36 00 00    LD    (IY+$00),#$00
3cc2: FD 36 02 00    LD    (IY+$02),#$00
3cc6: FD 36 01 3F    LD    (IY+$01),#$3F
3cca: 0E 27          LD    C,#$27
3ccc: CD B8 6F       CALL  PUT_C_ON_STACK_TO_SEND_TO_AUDIO
3ccf: 3E 80          LD    A,#$80
3cd1: 32 52 C1       LD    ($C152),A
3cd4: 21 07 C4       LD    HL,$C407
3cd7: CB CE          SET   1,(HL)
3cd9: 21 47 C1       LD    HL,$C147
3cdc: 36 80          LD    (HL),#$80
3cde: C9             RET   

TANKS_INSTRUCTIONS:
3cdf: CD 20 70       CALL  ZERO_RAM_C000-C418
3ce2: CD 49 70       CALL  INITIALIZE_SPRITES
3ce5: CD C7 6F       CALL  CLEAR_BACKGROUND
3ce8: 21 80 79       LD    HL,TANK_COLOR_PALETTE
3ceb: CD 35 6F       CALL  COPY_20_FROM_HL_TO_FF80
3cee: AF             XOR   A,A
3cef: 32 05 C4       LD    (MCP_TRON_ARM_OR_TANK_TURRET_ROTATION),A
3cf2: 3E 01          LD    A,#$01
3cf4: 32 08 C4       LD    ($C408),A
3cf7: 21 00 C0       LD    HL,CPU_RAM_OR_GS_DISK_X_TANK_X_OR_MCP_TRON_LEGS-LC_TRAILS_TO_C1DF
3cfa: 3E 61          LD    A,#$61
3cfc: 77             LD    (HL),A
3cfd: C6 08          ADD   A,#$08
3cff: 47             LD    B,A
3d00: 23             INC   HL
3d01: 36 4B          LD    (HL),#$4B
3d03: 23             INC   HL
3d04: 3E 88          LD    A,#$88
3d06: 77             LD    (HL),A
3d07: C6 08          ADD   A,#$08
3d09: 4F             LD    C,A
3d0a: 23             INC   HL
3d0b: 36 00          LD    (HL),#$00
3d0d: 23             INC   HL
3d0e: 36 0E          LD    (HL),#$0E
3d10: 23             INC   HL
3d11: 36 01          LD    (HL),#$01
3d13: 23             INC   HL
3d14: 36 0E          LD    (HL),#$0E
3d16: CD A5 40       CALL  $40A5
3d19: 22 07 C0       LD    (MCP_TRON_X_TANKS_DATA_VECTOR_x_1),HL
3d1c: ED 43 09 C0    LD    (MCP_TRON_Y_TANKS_DATA_VECTOR_x_2),BC
3d20: CD D0 40       CALL  TANK_UPDATE_POSITION_AND_PIC_OF_TANK_FROM_C000_TO_C002
3d23: 11 35 3D       LD    DE,DESTROY_ALL_S
3d26: 01 CC FD       LD    BC,$FDCC
3d29: CD 5D 70       CALL  ADD_MESSAGE_TO_Q
3d2c: 11 41 3D       LD    DE,ENEMY_TANKS_S
3d2f: 01 CE FD       LD    BC,$FDCE
3d32: C3 5D 70       JP    ADD_MESSAGE_TO_Q

DESTROY_ALL_S:
3d35: DESTROY ALL

ENEMY_TANKS_S:
3d41: ENEMY TANKS

TANK_JOYSTICK_INPUT_TABLE?:
3d4d: 00 00 00 00 00 00 00 00 FF 00 8A 03 00 2B 00 00 
3d5d: 01 00 0A 00 00 2B 00 00 00 00 00 00 00 00 00 00 
3d6d: 00 FF 0B 02 02 35 00 00 02 00 20 40 10 00 00 00 
3d7d: 02 00 20 40 08 00 00 00 00 00 00 00 00 00 00 00 
3d8d: 00 01 4B 02 FE 35 00 00 02 00 40 20 10 00 00 00 
3d9d: 02 00 40 20 08 00 00 00 08 20 40 10 10 20 40 08 
3dad: 20 10 08 40 40 10 08 20 

TANK_PROCESS_CONTROLS_INPUT:
3db5: 3A 7B C4       LD    A,(IN_ATTRACT_MODE?)
3db8: B7             OR    A,A
3db9: 28 1F          JR    Z,$3DDA


*** Attract mode input processing ...
3dbb: 21 55 C1       LD    HL,$C155
3dbe: 34             INC   (HL)
3dbf: 7E             LD    A,(HL)
3dc0: FE 90          CP    A,#$90
3dc2: 38 02          JR    C,$3DC6

3dc4: 36 00          LD    (HL),#$00
3dc6: 3A 4E C1       LD    A,($C14E)
3dc9: 21 A5 3D       LD    HL,$3DA5
3dcc: 11 04 00       LD    DE,$0004
3dcf: BE             CP    A,(HL)
3dd0: 28 03          JR    Z,$3DD5

3dd2: 19             ADD   HL,DE
3dd3: 18 FA          JR    $3DCF

3dd5: 22 56 C1       LD    ($C156),HL
3dd8: 18 1E          JR    $3DF8


*** User input processing ...
3dda: DB 02          IN    A,(IO_2)
3ddc: 2F             CPL   
3ddd: 4F             LD    C,A
3dde: 3A 87 C6       LD    A,(FLIP_SCREEN_IF_VALUE_IS_01)
3de1: B7             OR    A,A
3de2: 79             LD    A,C
3de3: 28 08          JR    Z,$3DED

3de5: CB 3F          SRL   A
3de7: CB 3F          SRL   A
3de9: CB 3F          SRL   A
3deb: CB 3F          SRL   A
3ded: E6 0F          AND   A,#$0F
3def: FE 0B          CP    A,#$0B
3df1: D0             RET   NC

3df2: CB 27          SLA   A
3df4: CB 27          SLA   A
3df6: CB 27          SLA   A
3df8: 32 4D C1       LD    ($C14D),A
3dfb: 21 4D 3D       LD    HL,TANK_JOYSTICK_INPUT_TABLE?
3dfe: 85             ADD   A,L
3dff: 30 01          JR    NC,$3E02

3e01: 24             INC   H
3e02: 6F             LD    L,A
3e03: 7E             LD    A,(HL)
3e04: 4F             LD    C,A
3e05: 23             INC   HL
3e06: B6             OR    A,(HL)
3e07: C8             RET   Z

3e08: FE 02          CP    A,#$02
3e0a: CA 05 3F       JP    Z,$3F05

3e0d: 56             LD    D,(HL)
3e0e: 23             INC   HL
3e0f: 7E             LD    A,(HL)
3e10: 32 0F C0       LD    ($C00F),A
3e13: 23             INC   HL
3e14: 7E             LD    A,(HL)
3e15: 32 0D C0       LD    (IO_TOWER_TIMER_VALUE_REVERSED_TO_C010),A
3e18: 23             INC   HL
3e19: 7E             LD    A,(HL)
3e1a: 32 0E C0       LD    (INFINITE_TIME_CHEAT),A
3e1d: 23             INC   HL
3e1e: 7E             LD    A,(HL)
3e1f: B7             OR    A,A
3e20: 28 03          JR    Z,$3E25

3e22: 32 50 C1       LD    ($C150),A
3e25: 3A 00 C0       LD    A,(CPU_RAM_OR_GS_DISK_X_TANK_X_OR_MCP_TRON_LEGS-LC_TRAILS_TO_C1DF)
3e28: 47             LD    B,A
3e29: 3A 03 C0       LD    A,($C003)
3e2c: 80             ADD   A,B
3e2d: 81             ADD   A,C
3e2e: 47             LD    B,A
3e2f: 3A 02 C0       LD    A,(TANK_Y_OR_GS_DISK_Y)
3e32: 4F             LD    C,A
3e33: 3A 05 C0       LD    A,($C005)
3e36: 81             ADD   A,C
3e37: 82             ADD   A,D
3e38: 4F             LD    C,A
3e39: CD 77 4D       CALL  TANK_PROCESS_?_USING_DATA_4CFF_AND_THE_DATA_VECTORS_IN_THERE
3e3c: D2 E8 3E       JP    NC,$3EE8

3e3f: 3A 04 C0       LD    A,($C004)
3e42: CB 2F          SRA   A
3e44: 80             ADD   A,B
3e45: 47             LD    B,A
3e46: CD 77 4D       CALL  TANK_PROCESS_?_USING_DATA_4CFF_AND_THE_DATA_VECTORS_IN_THERE
3e49: D2 E8 3E       JP    NC,$3EE8

3e4c: 3A 04 C0       LD    A,($C004)
3e4f: CB 2F          SRA   A
3e51: 80             ADD   A,B
3e52: 47             LD    B,A
3e53: CD 77 4D       CALL  TANK_PROCESS_?_USING_DATA_4CFF_AND_THE_DATA_VECTORS_IN_THERE
3e56: D2 E8 3E       JP    NC,$3EE8

3e59: 3A 06 C0       LD    A,($C006)
3e5c: CB 2F          SRA   A
3e5e: 81             ADD   A,C
3e5f: 4F             LD    C,A
3e60: CD 77 4D       CALL  TANK_PROCESS_?_USING_DATA_4CFF_AND_THE_DATA_VECTORS_IN_THERE
3e63: D2 E8 3E       JP    NC,$3EE8

3e66: 3A 06 C0       LD    A,($C006)
3e69: CB 2F          SRA   A
3e6b: 81             ADD   A,C
3e6c: 4F             LD    C,A
3e6d: CD 77 4D       CALL  TANK_PROCESS_?_USING_DATA_4CFF_AND_THE_DATA_VECTORS_IN_THERE
3e70: 30 76          JR    NC,$3EE8

3e72: 3A 04 C0       LD    A,($C004)
3e75: CB 2F          SRA   A
3e77: 57             LD    D,A
3e78: 78             LD    A,B
3e79: 92             SUB   A,D
3e7a: 47             LD    B,A
3e7b: CD 77 4D       CALL  TANK_PROCESS_?_USING_DATA_4CFF_AND_THE_DATA_VECTORS_IN_THERE
3e7e: 30 68          JR    NC,$3EE8

3e80: 3A 04 C0       LD    A,($C004)
3e83: CB 2F          SRA   A
3e85: 57             LD    D,A
3e86: 78             LD    A,B
3e87: 92             SUB   A,D
3e88: 47             LD    B,A
3e89: CD 77 4D       CALL  TANK_PROCESS_?_USING_DATA_4CFF_AND_THE_DATA_VECTORS_IN_THERE
3e8c: 30 5A          JR    NC,$3EE8

3e8e: 3A 06 C0       LD    A,($C006)
3e91: CB 2F          SRA   A
3e93: 57             LD    D,A
3e94: 79             LD    A,C
3e95: 92             SUB   A,D
3e96: 4F             LD    C,A
3e97: CD 77 4D       CALL  TANK_PROCESS_?_USING_DATA_4CFF_AND_THE_DATA_VECTORS_IN_THERE
3e9a: 30 4C          JR    NC,$3EE8

3e9c: 78             LD    A,B
3e9d: 21 03 C0       LD    HL,$C003
3ea0: 96             SUB   A,(HL)
3ea1: 32 00 C0       LD    (CPU_RAM_OR_GS_DISK_X_TANK_X_OR_MCP_TRON_LEGS-LC_TRAILS_TO_C1DF),A
3ea4: C6 08          ADD   A,#$08
3ea6: 47             LD    B,A
3ea7: 3A 06 C0       LD    A,($C006)
3eaa: CB 2F          SRA   A
3eac: 57             LD    D,A
3ead: 79             LD    A,C
3eae: 92             SUB   A,D
3eaf: 21 05 C0       LD    HL,$C005
3eb2: 96             SUB   A,(HL)
3eb3: 32 02 C0       LD    (TANK_Y_OR_GS_DISK_Y),A
3eb6: C6 08          ADD   A,#$08
3eb8: 4F             LD    C,A
3eb9: CD A5 40       CALL  $40A5
3ebc: 22 07 C0       LD    (MCP_TRON_X_TANKS_DATA_VECTOR_x_1),HL
3ebf: ED 43 09 C0    LD    (MCP_TRON_Y_TANKS_DATA_VECTOR_x_2),BC
3ec3: CD EA 40       CALL  TANK_UPDATE_POSITION
3ec6: DA F8 3D       JP    C,$3DF8

3ec9: 3A 0F C0       LD    A,($C00F)
3ecc: 32 01 C0       LD    (TANK_PIC_OR_MCP_ROWS_OF_BLOCKS),A
3ecf: CD 21 3F       CALL  $3F21
3ed2: CD D0 40       CALL  TANK_UPDATE_POSITION_AND_PIC_OF_TANK_FROM_C000_TO_C002
3ed5: 3A 0D C0       LD    A,(IO_TOWER_TIMER_VALUE_REVERSED_TO_C010)
3ed8: 32 0B C0       LD    ($C00B),A
3edb: 3A 0E C0       LD    A,(INFINITE_TIME_CHEAT)
3ede: 32 0C C0       LD    ($C00C),A
3ee1: 3A 4D C1       LD    A,($C14D)
3ee4: 32 4E C1       LD    ($C14E),A
3ee7: C9             RET   

3ee8: 3A 7B C4       LD    A,(IN_ATTRACT_MODE?)
3eeb: B7             OR    A,A
3eec: 28 0B          JR    Z,$3EF9

3eee: 2A 56 C1       LD    HL,($C156)
3ef1: 23             INC   HL
3ef2: 22 56 C1       LD    ($C156),HL
3ef5: 7E             LD    A,(HL)
3ef6: C3 F8 3D       JP    $3DF8

3ef9: 3A 4D C1       LD    A,($C14D)
3efc: 47             LD    B,A
3efd: 3A 4E C1       LD    A,($C14E)
3f00: B8             CP    A,B
3f01: C2 F8 3D       JP    NZ,$3DF8

3f04: C9             RET   

3f05: 3A 4E C1       LD    A,($C14E)
3f08: 47             LD    B,A
3f09: 3A 4D C1       LD    A,($C14D)
3f0c: A8             XOR   A,B
3f0d: FE 48          CP    A,#$48
3f0f: DA F8 3D       JP    C,$3DF8

3f12: 3A 4E C1       LD    A,($C14E)
3f15: 23             INC   HL
3f16: BE             CP    A,(HL)
3f17: 23             INC   HL
3f18: 7E             LD    A,(HL)
3f19: CA F8 3D       JP    Z,$3DF8

3f1c: 23             INC   HL
3f1d: 7E             LD    A,(HL)
3f1e: C3 F8 3D       JP    $3DF8

3f21: 21 50 C1       LD    HL,$C150
3f24: 3A 51 C1       LD    A,($C151)
3f27: BE             CP    A,(HL)
3f28: C8             RET   Z

3f29: FE 2B          CP    A,#$2B
3f2b: 0E 2C          LD    C,#$2C
3f2d: 28 02          JR    Z,$3F31

3f2f: 0E 36          LD    C,#$36
3f31: CD B8 6F       CALL  PUT_C_ON_STACK_TO_SEND_TO_AUDIO
3f34: 3A 50 C1       LD    A,($C150)
3f37: 32 51 C1       LD    ($C151),A
3f3a: 4F             LD    C,A
3f3b: C3 B8 6F       JP    PUT_C_ON_STACK_TO_SEND_TO_AUDIO

3f3e: 3A 59 C1       LD    A,(TANKS_NUMBER_OF_ENEMY_BULLETS?)
3f41: 11 20 00       LD    DE,$0020
3f44: DD 21 31 C0    LD    IX,$C031
3f48: 4F             LD    C,A
3f49: DD 19          ADD   IX,DE
3f4b: DD 7E 00       LD    A,(IX+$00)
3f4e: B7             OR    A,A
3f4f: 28 45          JR    Z,$3F96

3f51: DD 7E 05       LD    A,(IX+$05)
3f54: 32 10 C0       LD    (TANKS_DISKS?/BULLETS?_IN_RAM_STARTS_AT_C020),A
3f57: 3A 00 C0       LD    A,(CPU_RAM_OR_GS_DISK_X_TANK_X_OR_MCP_TRON_LEGS-LC_TRAILS_TO_C1DF)
3f5a: 21 03 C0       LD    HL,$C003
3f5d: 86             ADD   A,(HL)
3f5e: 47             LD    B,A
3f5f: DD 7E 03       LD    A,(IX+$03)
3f62: DD 86 00       ADD   A,(IX+$00)
3f65: 21 04 C0       LD    HL,$C004
3f68: 90             SUB   A,B
3f69: 30 04          JR    NC,$3F6F

3f6b: 2F             CPL   
3f6c: 21 10 C0       LD    HL,TANKS_DISKS?/BULLETS?_IN_RAM_STARTS_AT_C020
3f6f: BE             CP    A,(HL)
3f70: 30 24          JR    NC,$3F96

3f72: DD 7E 06       LD    A,(IX+$06)
3f75: 32 10 C0       LD    (TANKS_DISKS?/BULLETS?_IN_RAM_STARTS_AT_C020),A
3f78: 3A 02 C0       LD    A,(TANK_Y_OR_GS_DISK_Y)
3f7b: 21 05 C0       LD    HL,$C005
3f7e: 86             ADD   A,(HL)
3f7f: 47             LD    B,A
3f80: DD 7E 04       LD    A,(IX+$04)
3f83: DD 86 02       ADD   A,(IX+$02)
3f86: 21 06 C0       LD    HL,$C006
3f89: 90             SUB   A,B
3f8a: 30 04          JR    NC,$3F90

3f8c: 2F             CPL   
3f8d: 21 10 C0       LD    HL,TANKS_DISKS?/BULLETS?_IN_RAM_STARTS_AT_C020
3f90: BE             CP    A,(HL)
3f91: 30 03          JR    NC,$3F96       ;Invincibility TANK Game = 18 (JR *) (tank collision?)

3f93: C3 09 4C       JP    $4C09

3f96: 0D             DEC   C
3f97: 20 B0          JR    NZ,$3F49

3f99: C9             RET   


*** 18? data blocks used by tanks
3f9a: 00 

3f9b: 28 E0 E8 F8 00 28 38 48 58 70 80 A0 B0 D0 E0 E8 
3fab: F8 00 28 B0 B8 F8 00 28 38 40 50 58 68 70 80 88 
3fbb: 98 A0 B0 B8 C8 D0 E0 E8 F8 00 28 38 40 E0 E8 F8 
3fcb: 00 28 38 58 68 70 80 A0 B0 B8 C8 D0 F8 00 28 C8 
3fdb: D0 F8 00 28 C8 D0 E0 E8 F8 00 28 38 40 50 58 68 
3feb: 70 80 A0 B0 B8 C8 D0 E0 E8 F8 00 28 80 A0 F8 00 
3ffb: 28 88 98 F8 00 28 38 40 50 58 68 70 88 98 B0 B8 
400b: C8 D0 E0 E8 F8 00 


*** Data used where for what?
4011: 28 50 58 68 70 80 A0 B0 B8 C8 D0 E0 E8 F8 00 28 
4021: 38 40 F8 00 28 38 40 50 58 68 70 80 A0 B0 B8 C8 
4031: D0 E0 E8 F8 00 28 38 40 68 70 B0 B8 E0 E8 F8 00 
4041: 28 38 40 50 70 80 88 98 B8 C8 D0 E0 E8 F8 00 28 
4051: E0 E8 F8 00 40 50 58 68 88 98 A0 B0 B8 C8 E8 F8 
4061: 00 28 F8 00 00 


*** This data structure is used at 40C9
*** ??? 18?x3 bytes: ?, vector to other data
*** (they look like variable size 00 terminated data blocks)
4066: 18 9A 3F 27 9B 3F 30 A0 3F 3F AD 3F 48 B2 3F 57 
4076: C5 3F 60 CC 3F 67 D9 3F 6F DE 3F 78 E5 3F 87 F6 
4086: 3F 8F 00 40 9F 11 40 AF 20 40 B8 25 40 C7 36 40 
4096: D0 41 40 DF 50 40 E8 55 40 F7 62 40 FF 65 40 

40a5: DD 21 63 40    LD    IX,TANKS_DATA_FOR_x_STARTS_AT_4066
40a9: 11 03 00       LD    DE,$0003
40ac: DD 19          ADD   IX,DE
40ae: DD 7E 00       LD    A,(IX+$00)
40b1: B8             CP    A,B
40b2: 38 F8          JR    C,$40AC

40b4: DD 6E 01       LD    L,(IX+$01)
40b7: DD 66 02       LD    H,(IX+$02)
40ba: DD 21 FB 4C    LD    IX,TANK_DATA_FOR?_STARTS_AT_4CFF
40be: 11 04 00       LD    DE,$0004
40c1: DD 19          ADD   IX,DE
40c3: DD 7E 00       LD    A,(IX+$00)
40c6: B9             CP    A,C
40c7: 38 F8          JR    C,$40C1

40c9: DD 4E 02       LD    C,(IX+$02)
40cc: DD 46 03       LD    B,(IX+$03)
40cf: C9             RET   

TANK_UPDATE_POSITION_AND_PIC_OF_TANK_FROM_C000_TO_C002:
40d0: 21 04 F0       LD    HL,TANK_BODY_OR_LC_OR_IO_OR_MCP_TRON_AND_DISK_TORSO_LEGS_LEFT_DISK_RIGHT
40d3: 3A 00 C0       LD    A,(CPU_RAM_OR_GS_DISK_X_TANK_X_OR_MCP_TRON_LEGS-LC_TRAILS_TO_C1DF)
40d6: CD 65 71       CALL  ADJUST_SPRITE_Y_IF_FLIPPED_SCREEN
40d9: 77             LD    (HL),A
40da: 23             INC   HL
40db: 3A 01 C0       LD    A,(TANK_PIC_OR_MCP_ROWS_OF_BLOCKS)
40de: 77             LD    (HL),A
40df: 23             INC   HL
40e0: 3A 02 C0       LD    A,(TANK_Y_OR_GS_DISK_Y)
40e3: C6 04          ADD   A,#$04
40e5: CD 59 71       CALL  ADJUST_SPRITE_X_IF_FLIPPED_SCREEN
40e8: 77             LD    (HL),A
40e9: C9             RET   

TANK_UPDATE_POSITION:
40ea: 3A 00 C0       LD    A,(CPU_RAM_OR_GS_DISK_X_TANK_X_OR_MCP_TRON_LEGS-LC_TRAILS_TO_C1DF)
40ed: FE 81          CP    A,#$81         ;If tank's X position is not 81, skip warp
40ef: 20 33          JR    NZ,$4124

40f1: 3A 02 C0       LD    A,(TANK_Y_OR_GS_DISK_Y)
40f4: FE 7E          CP    A,#$7E         ;If tank's Y position is 7E (top warp), jump to warp
40f6: 28 04          JR    Z,TANK_WARP

40f8: FE 91          CP    A,#$91         ;If tank's Y position is not 91 (bottom warp), skip warp
40fa: 20 28          JR    NZ,$4124

TANK_WARP:
40fc: CD 05 6F       CALL  PSEUDO_RANDOM_VALUE_IN_A_AND_C47A
40ff: E6 0F          AND   A,#$0F
4101: 47             LD    B,A
4102: CB 27          SLA   A
4104: 80             ADD   A,B
4105: 21 AA 4F       LD    HL,$4FAA
4108: 85             ADD   A,L
4109: 30 01          JR    NC,$410C

410b: 24             INC   H
410c: 6F             LD    L,A
410d: 7E             LD    A,(HL)
410e: 32 00 C0       LD    (CPU_RAM_OR_GS_DISK_X_TANK_X_OR_MCP_TRON_LEGS-LC_TRAILS_TO_C1DF),A
4111: 23             INC   HL
4112: 7E             LD    A,(HL)
4113: 32 02 C0       LD    (TANK_Y_OR_GS_DISK_Y),A
4116: 23             INC   HL
4117: 7E             LD    A,(HL)
4118: F5             PUSH  AF
4119: 0E 37          LD    C,#$37
411b: CD B8 6F       CALL  PUT_C_ON_STACK_TO_SEND_TO_AUDIO
411e: CD D0 40       CALL  TANK_UPDATE_POSITION_AND_PIC_OF_TANK_FROM_C000_TO_C002
4121: F1             POP   AF
4122: 37             SCF   
4123: C9             RET   

4124: 37             SCF   
4125: 3F             CCF   
4126: C9             RET   

4127: 18 66          JR    $418F

4129: 41             LD    B,C
412a: 30 6C          JR    NC,$4198

412c: 41             LD    B,C
412d: 48             LD    C,B
412e: 78             LD    A,B
412f: 41             LD    B,C
4130: 58             LD    E,B
4131: 80             ADD   A,B
4132: 41             LD    B,C
4133: 60             LD    H,B
4134: 83             ADD   A,E
4135: 41             LD    B,C
4136: 78             LD    A,B
4137: 8A             ADC   A,D
4138: 41             LD    B,C
4139: 90             SUB   A,B
413a: 94             SUB   A,H
413b: 41             LD    B,C
413c: A0             AND   A,B
413d: 97             SUB   A,A
413e: 41             LD    B,C
413f: B8             CP    A,B
4140: 9F             SBC   A,A
4141: 41             LD    B,C
4142: D0             RET   NC

4143: A9             XOR   A,C
4144: 41             LD    B,C
TANK_DATA_FOR_?:
4145: E8             RET   PE

4146: B2             OR    A,D
4147: 41             LD    B,C
4148: 28 BA          JR    Z,$4104

414a: 41             LD    B,C
414b: 40             LD    B,B
414c: C1             POP   BC
414d: 41             LD    B,C
414e: 48             LD    C,B
414f: CC 41 58       CALL  Z,$5841

*** Data used by tanks around 4414?  The 3 below are educated guesses at this point
*** 11?x3: 3= Type, vector to next data structure
4152: CF 41 70 D9 41 88 E2 41 A0 E9 41 B8 F4 41 D0 FD 
4162: 41 E8 06 42 

4166: 00 28 48 70 A0 D0 00 28 40 48 58 70 88 A0 00 B8 
4176: D0 E8 00 40 58 70 88 A0 B8 D0 00 D0 E8 00 28 40 
4186: 58 70 A0 B8 00 28 40 58 70 00 A0 B8 D0 E8 00 28 
4196: 40 00 40 58 70 A0 B8 D0 E8 00 40 58 00 70 88 A0 
41a6: 00 B8 D0 00 28 40 58 70 88 A0 B8 D0 

41b2: 00 40 58 88 A0 B8 E8 00 00 18 30 60 78 90 D0 00 
41c2: 30 48 00 60 78 90 A0 B8 D0 E8 00 18 30 00 30 48 
41d2: 60 78 A0 B8 00 D0 E8 00 18 30 48 60 78 A0 B8 D0 
41e2: 00 30 48 00 B8 D0 E8 00 18 30 48 60 78 A0 B8 00 
41f2: D0 E8 00 30 48 60 78 A0 B8 D0 E8 00 18 30 48 58 
4202: 78 A0 B8 D0 00 30 58 78 A0 E8 00 

420d: 3A 59 C1       LD    A,(TANKS_NUMBER_OF_ENEMY_BULLETS?)
4210: 4F             LD    C,A
4211: DD 21 31 C0    LD    IX,$C031
4215: 11 20 00       LD    DE,$0020
4218: DD 19          ADD   IX,DE
421a: DD 7E 11       LD    A,(IX+$11)
421d: B7             OR    A,A
421e: CA 69 42       JP    Z,$4269

4221: FE 02          CP    A,#$02
4223: 30 1B          JR    NC,$4240

4225: CD 5A 45       CALL  $455A
4228: 11 04 00       LD    DE,$0004
422b: 19             ADD   HL,DE
422c: DD 7E 00       LD    A,(IX+$00)
422f: CD 65 71       CALL  ADJUST_SPRITE_Y_IF_FLIPPED_SCREEN
4232: 77             LD    (HL),A
4233: 23             INC   HL
4234: 7E             LD    A,(HL)
4235: EE 40          XOR   A,#$40
4237: 77             LD    (HL),A
4238: 23             INC   HL
4239: DD 7E 02       LD    A,(IX+$02)
423c: CD 59 71       CALL  ADJUST_SPRITE_X_IF_FLIPPED_SCREEN
423f: 77             LD    (HL),A
4240: C5             PUSH  BC
4241: CD B3 42       CALL  $42B3
4244: DD 7E 00       LD    A,(IX+$00)
4247: C6 08          ADD   A,#$08
4249: 47             LD    B,A
424a: DD 7E 02       LD    A,(IX+$02)
424d: C6 08          ADD   A,#$08
424f: 4F             LD    C,A
4250: DD E5          PUSH  IX
4252: CD A5 40       CALL  $40A5
4255: DD E1          POP   IX
4257: DD 75 12       LD    (IX+$12),L
425a: DD 74 13       LD    (IX+$13),H
425d: DD 71 14       LD    (IX+$14),C
4260: DD 70 15       LD    (IX+$15),B
4263: C1             POP   BC
4264: CD E2 47       CALL  TANK_POSITION_THE_ONE_AT_IX
4267: 18 45          JR    $42AE

4269: DD 7E 1A       LD    A,(IX+$1A)
426c: B7             OR    A,A
426d: 28 3F          JR    Z,$42AE

426f: DD 35 1A       DEC   (IX+$1A)
4272: 20 3A          JR    NZ,$42AE

4274: CD 5A 45       CALL  $455A
4277: 06 03          LD    B,#$03
4279: 36 00          LD    (HL),#$00
427b: 23             INC   HL
427c: 36 3F          LD    (HL),#$3F
427e: 23             INC   HL
427f: 36 00          LD    (HL),#$00
4281: 23             INC   HL
4282: 23             INC   HL
4283: 10 F4          DJNZ  $4279

4285: 3A 4A C1       LD    A,(TANKS_NUMBER_OF_ENEMIES)
4288: 3D             DEC   A
4289: 32 4A C1       LD    (TANKS_NUMBER_OF_ENEMIES),A
428c: 20 20          JR    NZ,$42AE

428e: 21 07 C4       LD    HL,$C407
4291: CB C6          SET   0,(HL)
4293: 3A 47 C1       LD    A,($C147)
4296: B7             OR    A,A
4297: 20 0F          JR    NZ,$42A8

4299: 0E 03          LD    C,#$03
429b: CD B8 6F       CALL  PUT_C_ON_STACK_TO_SEND_TO_AUDIO
429e: 0E 25          LD    C,#$25
42a0: CD B8 6F       CALL  PUT_C_ON_STACK_TO_SEND_TO_AUDIO
42a3: 3E 60          LD    A,#$60
42a5: 32 52 C1       LD    ($C152),A
42a8: 21 47 C1       LD    HL,$C147
42ab: CB FE          SET   7,(HL)
42ad: C9             RET   

42ae: 0D             DEC   C
42af: C2 15 42       JP    NZ,$4215

42b2: C9             RET   

42b3: DD 7E 09       LD    A,(IX+$09)
42b6: B7             OR    A,A
42b7: C2 69 43       JP    NZ,$4369

42ba: CD 08 45       CALL  $4508
42bd: DD 7E 00       LD    A,(IX+$00)
42c0: DD 86 08       ADD   A,(IX+$08)
42c3: DD 77 00       LD    (IX+$00),A
42c6: DD BE 0E       CP    A,(IX+$0E)
42c9: C0             RET   NZ

42ca: DD 7E 08       LD    A,(IX+$08)
42cd: FE 01          CP    A,#$01
42cf: 20 28          JR    NZ,$42F9

42d1: 3A 00 C0       LD    A,(CPU_RAM_OR_GS_DISK_X_TANK_X_OR_MCP_TRON_LEGS-LC_TRAILS_TO_C1DF)
42d4: D6 10          SUB   A,#$10
42d6: DD BE 00       CP    A,(IX+$00)
42d9: 38 28          JR    C,$4303

42db: DD 7E 0D       LD    A,(IX+$0D)
42de: DD 86 08       ADD   A,(IX+$08)
42e1: DD 77 0D       LD    (IX+$0D),A
42e4: B7             OR    A,A
42e5: 28 21          JR    Z,$4308

42e7: DD 86 0B       ADD   A,(IX+$0B)
42ea: DD 66 0C       LD    H,(IX+$0C)
42ed: 30 01          JR    NC,$42F0

42ef: 24             INC   H
42f0: 6F             LD    L,A
42f1: 7E             LD    A,(HL)
42f2: B7             OR    A,A
42f3: 28 13          JR    Z,$4308

42f5: DD 77 0E       LD    (IX+$0E),A
42f8: C9             RET   

42f9: 3A 00 C0       LD    A,(CPU_RAM_OR_GS_DISK_X_TANK_X_OR_MCP_TRON_LEGS-LC_TRAILS_TO_C1DF)
42fc: C6 10          ADD   A,#$10
42fe: DD BE 00       CP    A,(IX+$00)
4301: 38 D8          JR    C,$42DB

4303: CD 7E 44       CALL  $447E
4306: 38 D3          JR    C,$42DB

4308: CD 43 44       CALL  $4443
430b: 3A 00 C0       LD    A,(CPU_RAM_OR_GS_DISK_X_TANK_X_OR_MCP_TRON_LEGS-LC_TRAILS_TO_C1DF)
430e: DD 96 00       SUB   A,(IX+$00)
4311: 30 01          JR    NC,$4314

4313: 2F             CPL   
4314: FE 10          CP    A,#$10
4316: 38 12          JR    C,$432A

4318: DD 7E 07       LD    A,(IX+$07)
431b: FE 01          CP    A,#$01
431d: 28 0B          JR    Z,$432A

431f: 30 17          JR    NC,$4338

4321: CD 05 6F       CALL  PSEUDO_RANDOM_VALUE_IN_A_AND_C47A
4324: E6 02          AND   A,#$02
4326: 3D             DEC   A
4327: 47             LD    B,A
4328: 18 1E          JR    $4348

432a: 06 01          LD    B,#$01
432c: 3A 02 C0       LD    A,(TANK_Y_OR_GS_DISK_Y)
432f: DD BE 02       CP    A,(IX+$02)
4332: 30 14          JR    NC,$4348

4334: 06 FF          LD    B,#$FF
4336: 18 10          JR    $4348

4338: FE 03          CP    A,#$03
433a: 28 EE          JR    Z,$432A

433c: 06 FF          LD    B,#$FF
433e: 3A 02 C0       LD    A,(TANK_Y_OR_GS_DISK_Y)
4341: DD BE 02       CP    A,(IX+$02)
4344: 30 02          JR    NC,$4348

4346: 06 01          LD    B,#$01
4348: DD 70 10       LD    (IX+$10),B
434b: 78             LD    A,B
434c: FE 01          CP    A,#$01
434e: 20 06          JR    NZ,$4356

4350: 85             ADD   A,L
4351: 30 07          JR    NC,$435A

4353: 24             INC   H
4354: 18 04          JR    $435A

4356: 85             ADD   A,L
4357: 38 01          JR    C,$435A

4359: 25             DEC   H
435a: 6F             LD    L,A
435b: 7E             LD    A,(HL)
435c: B7             OR    A,A
435d: 20 06          JR    NZ,$4365

435f: 78             LD    A,B
4360: ED 44          NEG   
4362: DD 77 10       LD    (IX+$10),A
4365: CD BD 44       CALL  $44BD
4368: C9             RET   

4369: CD 31 45       CALL  $4531
436c: DD 7E 02       LD    A,(IX+$02)
436f: DD 86 08       ADD   A,(IX+$08)
4372: DD 77 02       LD    (IX+$02),A
4375: DD BE 0E       CP    A,(IX+$0E)
4378: C0             RET   NZ

4379: DD 7E 08       LD    A,(IX+$08)
437c: FE 01          CP    A,#$01
437e: 20 28          JR    NZ,$43A8

4380: 3A 02 C0       LD    A,(TANK_Y_OR_GS_DISK_Y)
4383: D6 10          SUB   A,#$10
4385: DD BE 02       CP    A,(IX+$02)
4388: 38 28          JR    C,$43B2

438a: DD 7E 0D       LD    A,(IX+$0D)
438d: DD 86 08       ADD   A,(IX+$08)
4390: DD 77 0D       LD    (IX+$0D),A
4393: B7             OR    A,A
4394: 28 21          JR    Z,$43B7

4396: DD 86 0B       ADD   A,(IX+$0B)
4399: DD 66 0C       LD    H,(IX+$0C)
439c: 30 01          JR    NC,$439F

439e: 24             INC   H
439f: 6F             LD    L,A
43a0: 7E             LD    A,(HL)
43a1: B7             OR    A,A
43a2: 28 13          JR    Z,$43B7

43a4: DD 77 0E       LD    (IX+$0E),A
43a7: C9             RET   

43a8: 3A 02 C0       LD    A,(TANK_Y_OR_GS_DISK_Y)
43ab: C6 10          ADD   A,#$10
43ad: DD BE 02       CP    A,(IX+$02)
43b0: 38 D8          JR    C,$438A

43b2: CD 7E 44       CALL  $447E
43b5: 38 D3          JR    C,$438A

43b7: CD 14 44       CALL  TANK_PROCESS_ENEMY_TANKS_ON_STARTUP_SOMEHOW?_USES_IX
43ba: 3A 02 C0       LD    A,(TANK_Y_OR_GS_DISK_Y)
43bd: DD 96 02       SUB   A,(IX+$02)
43c0: 30 01          JR    NC,$43C3

43c2: 2F             CPL   
43c3: FE 10          CP    A,#$10
43c5: 38 20          JR    C,$43E7

43c7: DD 7E 07       LD    A,(IX+$07)
43ca: FE 01          CP    A,#$01
43cc: 28 0B          JR    Z,$43D9

43ce: 30 17          JR    NC,$43E7

43d0: CD 05 6F       CALL  PSEUDO_RANDOM_VALUE_IN_A_AND_C47A
43d3: E6 02          AND   A,#$02
43d5: 3D             DEC   A
43d6: 47             LD    B,A
43d7: 18 1A          JR    $43F3

43d9: 06 FF          LD    B,#$FF
43db: 3A 00 C0       LD    A,(CPU_RAM_OR_GS_DISK_X_TANK_X_OR_MCP_TRON_LEGS-LC_TRAILS_TO_C1DF)
43de: DD BE 00       CP    A,(IX+$00)
43e1: 30 10          JR    NC,$43F3

43e3: 06 01          LD    B,#$01
43e5: 18 0C          JR    $43F3

43e7: 06 01          LD    B,#$01
43e9: 3A 00 C0       LD    A,(CPU_RAM_OR_GS_DISK_X_TANK_X_OR_MCP_TRON_LEGS-LC_TRAILS_TO_C1DF)
43ec: DD BE 00       CP    A,(IX+$00)
43ef: 30 02          JR    NC,$43F3

43f1: 06 FF          LD    B,#$FF
43f3: DD 70 10       LD    (IX+$10),B
43f6: 78             LD    A,B
43f7: FE 01          CP    A,#$01
43f9: 20 06          JR    NZ,$4401

43fb: 85             ADD   A,L
43fc: 30 07          JR    NC,$4405

43fe: 24             INC   H
43ff: 18 04          JR    $4405

4401: 85             ADD   A,L
4402: 38 01          JR    C,$4405

4404: 25             DEC   H
4405: 6F             LD    L,A
4406: 7E             LD    A,(HL)
4407: B7             OR    A,A
4408: 20 06          JR    NZ,$4410

440a: 78             LD    A,B
440b: ED 44          NEG   
440d: DD 77 10       LD    (IX+$10),A
4410: CD BD 44       CALL  $44BD
4413: C9             RET   

TANK_PROCESS_ENEMY_TANKS_ON_STARTUP_SOMEHOW?_USES_IX:
4414: DD 36 09 00    LD    (IX+$09),#$00
4418: DD 7E 02       LD    A,(IX+$02)
441b: FD 21 45 41    LD    IY,TANK_DATA_FOR_?
441f: 11 03 00       LD    DE,$0003
4422: FD 19          ADD   IY,DE
4424: FD BE 00       CP    A,(IY+$00)
4427: 20 F9          JR    NZ,$4422

4429: FD 6E 01       LD    L,(IY+$01)
442c: DD 75 0B       LD    (IX+$0B),L
442f: FD 66 02       LD    H,(IY+$02)
4432: DD 74 0C       LD    (IX+$0C),H
4435: 16 00          LD    D,#$00
4437: DD 7E 00       LD    A,(IX+$00)
443a: 14             INC   D
443b: 23             INC   HL
443c: BE             CP    A,(HL)
443d: 20 FB          JR    NZ,$443A

443f: DD 72 0D       LD    (IX+$0D),D
4442: C9             RET   

4443: DD 36 09 01    LD    (IX+$09),#$01
4447: DD 7E 00       LD    A,(IX+$00)
444a: FD 21 24 41    LD    IY,$4124
444e: 11 03 00       LD    DE,$0003
4451: FD 19          ADD   IY,DE
4453: FD BE 00       CP    A,(IY+$00)
4456: 20 F9          JR    NZ,$4451

4458: FD 6E 01       LD    L,(IY+$01)
445b: DD 75 0B       LD    (IX+$0B),L
445e: FD 66 02       LD    H,(IY+$02)
4461: DD 74 0C       LD    (IX+$0C),H
4464: 16 00          LD    D,#$00
4466: DD 7E 02       LD    A,(IX+$02)
4469: 14             INC   D
446a: 23             INC   HL
446b: BE             CP    A,(HL)
446c: 20 FB          JR    NZ,$4469

446e: DD 72 0D       LD    (IX+$0D),D
4471: C9             RET   

4472: CD 14 44       CALL  TANK_PROCESS_ENEMY_TANKS_ON_STARTUP_SOMEHOW?_USES_IX
4475: DD 7E 08       LD    A,(IX+$08)
4478: ED 44          NEG   
447a: DD 77 08       LD    (IX+$08),A
447d: C9             RET   

447e: DD 7E 09       LD    A,(IX+$09)
4481: 01 02 00       LD    BC,$0002
4484: B7             OR    A,A
4485: 20 03          JR    NZ,$448A

4487: 01 00 00       LD    BC,$0000
448a: 3A 59 C1       LD    A,(TANKS_NUMBER_OF_ENEMY_BULLETS?)
448d: 6F             LD    L,A
448e: 11 20 00       LD    DE,$0020
4491: FD 21 31 C0    LD    IY,$C031
4495: FD 19          ADD   IY,DE
4497: DD 7E 0A       LD    A,(IX+$0A)
449a: FD BE 0A       CP    A,(IY+$0A)
449d: 28 0E          JR    Z,$44AD

449f: DD 7E 0E       LD    A,(IX+$0E)
44a2: FD E5          PUSH  IY
44a4: FD 09          ADD   IY,BC
44a6: FD BE 00       CP    A,(IY+$00)
44a9: FD E1          POP   IY
44ab: 28 06          JR    Z,$44B3

44ad: 2D             DEC   L
44ae: 20 E5          JR    NZ,$4495

44b0: 37             SCF   
44b1: 3F             CCF   
44b2: C9             RET   

44b3: DD 7E 09       LD    A,(IX+$09)
44b6: FD AE 09       XOR   A,(IY+$09)
44b9: 28 F2          JR    Z,$44AD

44bb: 37             SCF   
44bc: C9             RET   

44bd: DD 7E 09       LD    A,(IX+$09)
44c0: B7             OR    A,A
44c1: DD 7E 10       LD    A,(IX+$10)
44c4: 20 10          JR    NZ,$44D6

44c6: FE 01          CP    A,#$01
44c8: 20 06          JR    NZ,$44D0

44ca: DD 36 01 08    LD    (IX+$01),#$08
44ce: 18 14          JR    $44E4

44d0: DD 36 01 88    LD    (IX+$01),#$88
44d4: 18 0E          JR    $44E4

44d6: FE 01          CP    A,#$01
44d8: 20 06          JR    NZ,$44E0

44da: DD 36 01 49    LD    (IX+$01),#$49
44de: 18 04          JR    $44E4

44e0: DD 36 01 09    LD    (IX+$01),#$09
44e4: DD 77 08       LD    (IX+$08),A
44e7: F5             PUSH  AF
44e8: 3A 5C C1       LD    A,($C15C)
44eb: DD 86 01       ADD   A,(IX+$01)
44ee: DD 77 01       LD    (IX+$01),A
44f1: F1             POP   AF
44f2: DD 86 0D       ADD   A,(IX+$0D)
44f5: DD 77 0D       LD    (IX+$0D),A
44f8: DD 6E 0B       LD    L,(IX+$0B)
44fb: DD 66 0C       LD    H,(IX+$0C)
44fe: 85             ADD   A,L
44ff: 30 01          JR    NC,$4502

4501: 24             INC   H
4502: 6F             LD    L,A
4503: 7E             LD    A,(HL)
4504: DD 77 0E       LD    (IX+$0E),A
4507: C9             RET   

4508: DD 7E 11       LD    A,(IX+$11)
450b: FE 03          CP    A,#$03
450d: C8             RET   Z

450e: B7             OR    A,A
450f: C8             RET   Z

4510: CD 5A 45       CALL  $455A
4513: DD 7E 08       LD    A,(IX+$08)
4516: 87             ADD   A,A
4517: DD 86 08       ADD   A,(IX+$08)
451a: DD 86 00       ADD   A,(IX+$00)
451d: CD 65 71       CALL  ADJUST_SPRITE_Y_IF_FLIPPED_SCREEN
4520: 77             LD    (HL),A
4521: 23             INC   HL
4522: 7E             LD    A,(HL)
4523: EE 40          XOR   A,#$40
4525: 77             LD    (HL),A
4526: 23             INC   HL
4527: DD 7E 02       LD    A,(IX+$02)
452a: C6 06          ADD   A,#$06
452c: CD 59 71       CALL  ADJUST_SPRITE_X_IF_FLIPPED_SCREEN
452f: 77             LD    (HL),A
4530: C9             RET   

4531: DD 7E 11       LD    A,(IX+$11)
4534: FE 03          CP    A,#$03
4536: C8             RET   Z

4537: B7             OR    A,A
4538: C8             RET   Z

4539: CD 5A 45       CALL  $455A
453c: DD 7E 00       LD    A,(IX+$00)
453f: C6 06          ADD   A,#$06
4541: CD 65 71       CALL  ADJUST_SPRITE_Y_IF_FLIPPED_SCREEN
4544: 77             LD    (HL),A
4545: 23             INC   HL
4546: 7E             LD    A,(HL)         ;Mirror Y of explosion sprite on tank to make it look like fire
4547: EE 40          XOR   A,#$40
4549: 77             LD    (HL),A
454a: 23             INC   HL
454b: DD 7E 08       LD    A,(IX+$08)
454e: 87             ADD   A,A
454f: DD 86 08       ADD   A,(IX+$08)
4552: DD 86 02       ADD   A,(IX+$02)
4555: CD 59 71       CALL  ADJUST_SPRITE_X_IF_FLIPPED_SCREEN
4558: 77             LD    (HL),A
4559: C9             RET   

455a: DD 6E 18       LD    L,(IX+$18)
455d: DD 66 19       LD    H,(IX+$19)
4560: DD 7E 11       LD    A,(IX+$11)
4563: CB 27          SLA   A
4565: CB 27          SLA   A
4567: 85             ADD   A,L
4568: 30 01          JR    NC,$456B

456a: 24             INC   H
456b: 6F             LD    L,A
456c: C9             RET   

456d: 3A 1E C4       LD    A,(MAX_DISKS_AT_A_TIME)
4570: 47             LD    B,A
4571: FD 21 01 C0    LD    IY,TANK_PIC_OR_MCP_ROWS_OF_BLOCKS
4575: 11 10 00       LD    DE,$0010
4578: FD 19          ADD   IY,DE
457a: FD 7E 0E       LD    A,(IY+$0E)
457d: B7             OR    A,A
457e: 28 16          JR    Z,$4596

4580: FD 35 0E       DEC   (IY+$0E)
4583: 20 11          JR    NZ,$4596

4585: FD 7E 0F       LD    A,(IY+$0F)
4588: CB 27          SLA   A
458a: CB 27          SLA   A
458c: 21 1C F0       LD    HL,IO_OR_MCP_OR_TANK_DISKS_2
458f: 85             ADD   A,L
4590: 30 01          JR    NC,$4593

4592: 24             INC   H
4593: 7D             LD    A,L
4594: 36 00          LD    (HL),#$00
4596: FD 7E 08       LD    A,(IY+$08)
4599: B7             OR    A,A
459a: 28 4D          JR    Z,$45E9

459c: 0E 05          LD    C,#$05
459e: CD C7 47       CALL  $47C7
45a1: FD 7E 01       LD    A,(IY+$01)
45a4: FD 86 05       ADD   A,(IY+$05)
45a7: FD 77 01       LD    (IY+$01),A
45aa: FD 7E 00       LD    A,(IY+$00)
45ad: FD 8E 04       ADC   A,(IY+$04)
45b0: FD 77 00       LD    (IY+$00),A
45b3: FD 7E 03       LD    A,(IY+$03)
45b6: FD 86 07       ADD   A,(IY+$07)
45b9: FD 77 03       LD    (IY+$03),A
45bc: FD 7E 02       LD    A,(IY+$02)
45bf: FD 8E 06       ADC   A,(IY+$06)
45c2: FD 77 02       LD    (IY+$02),A
45c5: C5             PUSH  BC
45c6: CD FF 45       CALL  $45FF
45c9: 30 0C          JR    NC,$45D7

45cb: FD 7E 0A       LD    A,(IY+$0A)
45ce: B7             OR    A,A
45cf: 28 03          JR    Z,$45D4

45d1: CD 62 47       CALL  $4762
45d4: C1             POP   BC
45d5: 18 0F          JR    $45E6

45d7: C1             POP   BC
45d8: FD 35 08       DEC   (IY+$08)
45db: FD 7E 08       LD    A,(IY+$08)
45de: B7             OR    A,A
45df: 28 05          JR    Z,$45E6

45e1: 0D             DEC   C
45e2: 20 BD          JR    NZ,$45A1

45e4: 18 03          JR    $45E9

45e6: CD 52 47       CALL  $4752
45e9: 05             DEC   B
45ea: 20 89          JR    NZ,$4575

45ec: C9             RET   

DATA_USED_FOR_???_TO_45FE:
45ed: 00 08 00 08 FF 50 08 00 08 00 08 50 08 50 07 00 
45fd: 08 FF 

45ff: 21 ED 45       LD    HL,DATA_USED_FOR_???_TO_45FE
4602: FD 36 0A 00    LD    (IY+$0A),#$00
4606: FD 7E 01       LD    A,(IY+$01)
4609: 86             ADD   A,(HL)
460a: 23             INC   HL
460b: FD 7E 00       LD    A,(IY+$00)
460e: 8E             ADC   A,(HL)
460f: 47             LD    B,A
4610: 23             INC   HL
4611: FD 7E 03       LD    A,(IY+$03)
4614: 86             ADD   A,(HL)
4615: 23             INC   HL
4616: FD 7E 02       LD    A,(IY+$02)
4619: 8E             ADC   A,(HL)
461a: 4F             LD    C,A
461b: CD F5 46       CALL  $46F5
461e: 30 05          JR    NC,$4625

4620: FD 36 0A 01    LD    (IY+$0A),#$01
4624: C9             RET   

4625: CD 2B 47       CALL  $472B
4628: 30 05          JR    NC,$462F

462a: FD 36 0A 00    LD    (IY+$0A),#$00
462e: C9             RET   

462f: FD 7E 0A       LD    A,(IY+$0A)
4632: B7             OR    A,A
4633: C2 C3 46       JP    NZ,$46C3

4636: FD 7E 0D       LD    A,(IY+$0D)
4639: B7             OR    A,A
463a: 28 06          JR    Z,$4642

463c: FD 35 0D       DEC   (IY+$0D)
463f: C3 C3 46       JP    $46C3

4642: E5             PUSH  HL
4643: CD 77 4D       CALL  TANK_PROCESS_?_USING_DATA_4CFF_AND_THE_DATA_VECTORS_IN_THERE
4646: DA C2 46       JP    C,$46C2

4649: FD 7E 08       LD    A,(IY+$08)
464c: FE 90          CP    A,#$90
464e: 20 03          JR    NZ,$4653

4650: E1             POP   HL
4651: 37             SCF   
4652: C9             RET   

4653: CD CB 46       CALL  $46CB
4656: DD 7E 00       LD    A,(IX+$00)
4659: B9             CP    A,C
465a: 20 4E          JR    NZ,$46AA

465c: 3A 4B C1       LD    A,($C14B)
465f: B7             OR    A,A
4660: 28 48          JR    Z,$46AA

4662: 78             LD    A,B
4663: BE             CP    A,(HL)
4664: 20 2C          JR    NZ,$4692

4666: FD 36 0D 10    LD    (IY+$0D),#$10
466a: FD CB 04 7E    BIT   7,(IY+$04)
466e: 20 3A          JR    NZ,$46AA

4670: FD 7E 06       LD    A,(IY+$06)
4673: B7             OR    A,A
4674: 20 06          JR    NZ,$467C

4676: FD 7E 07       LD    A,(IY+$07)
4679: B7             OR    A,A
467a: 28 2E          JR    Z,$46AA

467c: FD 7E 07       LD    A,(IY+$07)
467f: ED 44          NEG   
4681: FD 77 07       LD    (IY+$07),A
4684: B7             OR    A,A
4685: FD 7E 06       LD    A,(IY+$06)
4688: 28 01          JR    Z,$468B

468a: 3C             INC   A
468b: ED 44          NEG   
468d: FD 77 06       LD    (IY+$06),A
4690: 18 2C          JR    $46BE

4692: 2B             DEC   HL
4693: BE             CP    A,(HL)
4694: 20 E6          JR    NZ,$467C

4696: FD 36 0D 10    LD    (IY+$0D),#$10
469a: FD 7E 04       LD    A,(IY+$04)
469d: CB 7F          BIT   7,A
469f: 20 DB          JR    NZ,$467C

46a1: B7             OR    A,A
46a2: 20 06          JR    NZ,$46AA

46a4: FD 7E 05       LD    A,(IY+$05)
46a7: B7             OR    A,A
46a8: 28 D2          JR    Z,$467C

46aa: FD 7E 05       LD    A,(IY+$05)
46ad: ED 44          NEG   
46af: FD 77 05       LD    (IY+$05),A
46b2: B7             OR    A,A
46b3: FD 7E 04       LD    A,(IY+$04)
46b6: 28 01          JR    Z,$46B9

46b8: 3C             INC   A
46b9: ED 44          NEG   
46bb: FD 77 04       LD    (IY+$04),A
46be: FD 36 0A 01    LD    (IY+$0A),#$01
46c2: E1             POP   HL
46c3: 23             INC   HL
46c4: 7E             LD    A,(HL)
46c5: FE FF          CP    A,#$FF
46c7: C8             RET   Z

46c8: C3 06 46       JP    $4606

46cb: E5             PUSH  HL
46cc: 21 1C F0       LD    HL,IO_OR_MCP_OR_TANK_DISKS_2
46cf: FD 7E 0F       LD    A,(IY+$0F)
46d2: CB 27          SLA   A
46d4: CB 27          SLA   A
46d6: 85             ADD   A,L
46d7: 30 01          JR    NC,$46DA

46d9: 24             INC   H
46da: 6F             LD    L,A
46db: FD 7E 00       LD    A,(IY+$00)
46de: CD 65 71       CALL  ADJUST_SPRITE_Y_IF_FLIPPED_SCREEN
46e1: 77             LD    (HL),A
46e2: 23             INC   HL
46e3: 36 00          LD    (HL),#$00
46e5: 23             INC   HL
46e6: FD 7E 02       LD    A,(IY+$02)
46e9: C6 04          ADD   A,#$04
46eb: CD 59 71       CALL  ADJUST_SPRITE_X_IF_FLIPPED_SCREEN
46ee: 77             LD    (HL),A
46ef: FD 36 0E 04    LD    (IY+$0E),#$04
46f3: E1             POP   HL
46f4: C9             RET   

46f5: 3A 59 C1       LD    A,(TANKS_NUMBER_OF_ENEMY_BULLETS?)
46f8: E5             PUSH  HL
46f9: 11 20 00       LD    DE,$0020
46fc: DD 21 31 C0    LD    IX,$C031
4700: 6F             LD    L,A
4701: DD 19          ADD   IX,DE
4703: DD 7E 00       LD    A,(IX+$00)
4706: B7             OR    A,A
4707: 28 1B          JR    Z,$4724

4709: DD 86 03       ADD   A,(IX+$03)
470c: B8             CP    A,B
470d: 30 15          JR    NC,$4724

470f: DD 86 05       ADD   A,(IX+$05)
4712: B8             CP    A,B
4713: 38 0F          JR    C,$4724

4715: DD 7E 02       LD    A,(IX+$02)
4718: DD 86 04       ADD   A,(IX+$04)
471b: B9             CP    A,C
471c: 30 06          JR    NC,$4724

471e: DD 86 06       ADD   A,(IX+$06)
4721: B9             CP    A,C
4722: 30 04          JR    NC,$4728

4724: 2D             DEC   L
4725: 20 DA          JR    NZ,$4701

4727: 37             SCF   
4728: 3F             CCF   
4729: E1             POP   HL
472a: C9             RET   

472b: 3A 00 C0       LD    A,(CPU_RAM_OR_GS_DISK_X_TANK_X_OR_MCP_TRON_LEGS-LC_TRAILS_TO_C1DF)
472e: E5             PUSH  HL
472f: 21 03 C0       LD    HL,$C003
4732: 86             ADD   A,(HL)
4733: B8             CP    A,B
4734: 30 18          JR    NC,$474E

4736: 21 04 C0       LD    HL,$C004
4739: 86             ADD   A,(HL)
473a: B8             CP    A,B
473b: 38 11          JR    C,$474E        ;Invincibility TANK Game = 18 (JR *) (bullet collision?)

473d: 3A 02 C0       LD    A,(TANK_Y_OR_GS_DISK_Y)
4740: 21 05 C0       LD    HL,$C005
4743: 86             ADD   A,(HL)
4744: B9             CP    A,C
4745: 30 07          JR    NC,$474E

4747: 21 06 C0       LD    HL,$C006
474a: 86             ADD   A,(HL)
474b: B9             CP    A,C
474c: 30 01          JR    NC,$474F

474e: 37             SCF   
474f: 3F             CCF   
4750: E1             POP   HL
4751: C9             RET   

4752: FD 36 08 00    LD    (IY+$08),#$00
4756: FD 36 00 00    LD    (IY+$00),#$00
475a: 21 1D C4       LD    HL,REMAINING_DISKS_AT_A_TIME
475d: 34             INC   (HL)
475e: CD C7 47       CALL  $47C7
4761: C9             RET   

4762: 0E 0E          LD    C,#$0E
4764: CD B8 6F       CALL  PUT_C_ON_STACK_TO_SEND_TO_AUDIO
4767: DD 35 11       DEC   (IX+$11)
476a: 21 B8 47       LD    HL,$47B8
476d: 28 0C          JR    Z,$477B

476f: 21 BD 47       LD    HL,$47BD
4772: DD 7E 11       LD    A,(IX+$11)
4775: 3D             DEC   A
4776: 28 03          JR    Z,$477B

4778: 21 C2 47       LD    HL,$47C2
477b: CD 52 6F       CALL  PROCESS_HIT_ON_TANK_SPIDER_MCP_BLOCK_OR_LC
477e: DD 7E 11       LD    A,(IX+$11)
4781: B7             OR    A,A
4782: 28 07          JR    Z,$478B

4784: DD 36 0F 80    LD    (IX+$0F),#$80
4788: C3 95 47       JP    $4795

478b: DD 36 00 00    LD    (IX+$00),#$00
478f: CD E2 47       CALL  TANK_POSITION_THE_ONE_AT_IX
4792: C3 95 47       JP    $4795

4795: DD 7E 11       LD    A,(IX+$11)
4798: CB 27          SLA   A
479a: CB 27          SLA   A
479c: DD 6E 18       LD    L,(IX+$18)
479f: DD 66 19       LD    H,(IX+$19)
47a2: 85             ADD   A,L
47a3: 30 01          JR    NC,$47A6

47a5: 24             INC   H
47a6: 6F             LD    L,A
COPY_X_00_Y_FROM_SPRITE_RAM_AT_IY_TO_HL_PLUS_MORE?:
47a7: FD 7E 00       LD    A,(IY+$00)
47aa: 77             LD    (HL),A
47ab: 23             INC   HL
47ac: 36 00          LD    (HL),#$00
47ae: 23             INC   HL
47af: FD 7E 02       LD    A,(IY+$02)
47b2: 77             LD    (HL),A
47b3: DD 36 1A 08    LD    (IX+$1A),#$08
47b7: C9             RET   


*** looks like data, not sure for what though ...
47b8: 00 00 05 00 00 00 00 03 00 00 00 00 01 00 00 

47c7: FD 6E 0B       LD    L,(IY+$0B)
47ca: FD 66 0C       LD    H,(IY+$0C)
47cd: FD 7E 00       LD    A,(IY+$00)
47d0: CD 65 71       CALL  ADJUST_SPRITE_Y_IF_FLIPPED_SCREEN
47d3: 77             LD    (HL),A
47d4: 23             INC   HL
47d5: 36 07          LD    (HL),#$07
47d7: 23             INC   HL
47d8: FD 7E 02       LD    A,(IY+$02)
47db: C6 04          ADD   A,#$04
47dd: CD 59 71       CALL  ADJUST_SPRITE_X_IF_FLIPPED_SCREEN
47e0: 77             LD    (HL),A
47e1: C9             RET   

TANK_POSITION_THE_ONE_AT_IX:
47e2: DD 6E 16       LD    L,(IX+$16)
47e5: DD 66 17       LD    H,(IX+$17)
47e8: DD 7E 00       LD    A,(IX+$00)
47eb: CD 65 71       CALL  ADJUST_SPRITE_Y_IF_FLIPPED_SCREEN
47ee: 77             LD    (HL),A
47ef: 23             INC   HL
47f0: DD 7E 01       LD    A,(IX+$01)
47f3: 77             LD    (HL),A
47f4: 23             INC   HL
47f5: DD 7E 02       LD    A,(IX+$02)
47f8: C6 04          ADD   A,#$04
47fa: CD 59 71       CALL  ADJUST_SPRITE_X_IF_FLIPPED_SCREEN
47fd: 77             LD    (HL),A
47fe: C9             RET   

47ff: 3A 7B C4       LD    A,(IN_ATTRACT_MODE?)
4802: B7             OR    A,A
4803: 28 0C          JR    Z,$4811

4805: 21 58 C1       LD    HL,$C158
4808: 7E             LD    A,(HL)
4809: B7             OR    A,A
480a: 28 1B          JR    Z,$4827

480c: 35             DEC   (HL)
480d: 3E 10          LD    A,#$10
480f: 18 16          JR    $4827

4811: 3A 87 C6       LD    A,(FLIP_SCREEN_IF_VALUE_IS_01)
4814: B7             OR    A,A
4815: 28 06          JR    Z,$481D

4817: DB 03          IN    A,(IO_3)
4819: E6 80          AND   A,#$80
481b: 18 04          JR    $4821

481d: DB 10          IN    A,($10)
481f: E6 10          AND   A,#$10
4821: 21 4F C1       LD    HL,$C14F
4824: BE             CP    A,(HL)
4825: C8             RET   Z

4826: 77             LD    (HL),A
4827: B7             OR    A,A
4828: C0             RET   NZ

4829: 3E 04          LD    A,#$04
482b: 32 58 C1       LD    ($C158),A
482e: 3A 1D C4       LD    A,(REMAINING_DISKS_AT_A_TIME)
4831: B7             OR    A,A
4832: C8             RET   Z

4833: 0E 2D          LD    C,#$2D
4835: CD B8 6F       CALL  PUT_C_ON_STACK_TO_SEND_TO_AUDIO
4838: 3A 1E C4       LD    A,(MAX_DISKS_AT_A_TIME)
483b: 47             LD    B,A
483c: 11 10 00       LD    DE,$0010
483f: DD 21 01 C0    LD    IX,TANK_PIC_OR_MCP_ROWS_OF_BLOCKS
4843: DD 19          ADD   IX,DE
4845: DD 7E 09       LD    A,(IX+$09)
4848: B7             OR    A,A
4849: 28 35          JR    Z,$4880

484b: 3A 00 C0       LD    A,(CPU_RAM_OR_GS_DISK_X_TANK_X_OR_MCP_TRON_LEGS-LC_TRAILS_TO_C1DF)
484e: 4F             LD    C,A
484f: 3A 0B C0       LD    A,($C00B)
4852: 81             ADD   A,C
4853: DD 86 00       ADD   A,(IX+$00)
4856: DD 77 00       LD    (IX+$00),A
4859: DD 36 01 00    LD    (IX+$01),#$00
485d: 3A 02 C0       LD    A,(TANK_Y_OR_GS_DISK_Y)
4860: 4F             LD    C,A
4861: 3A 0C C0       LD    A,($C00C)
4864: 81             ADD   A,C
4865: DD 86 02       ADD   A,(IX+$02)
4868: DD 77 02       LD    (IX+$02),A
486b: DD 36 03 00    LD    (IX+$03),#$00
486f: DD 36 09 00    LD    (IX+$09),#$00
4873: DD 36 08 90    LD    (IX+$08),#$90
4877: DD 36 0D 00    LD    (IX+$0D),#$00
487b: 21 1D C4       LD    HL,REMAINING_DISKS_AT_A_TIME
487e: 35             DEC   (HL)
487f: C9             RET   

4880: 05             DEC   B
4881: 20 C0          JR    NZ,$4843

4883: C9             RET   

DATA_TO_49C7_USED_AT_49C8:
4884: 02 FC 13 0C 00 01 00 00 00 02 FC 14 0C FD 00 FC 
4894: FF D4 02 FC 15 0C FB 00 F1 FF A8 02 FC 16 0B FB 
48a4: 00 DE FF 80 02 FC 17 0A F7 00 C4 FF 5B 02 FC 18 
48b4: 08 F6 00 A5 FF 3C 02 FC 19 05 F4 00 80 FF 22 02 
48c4: FC 1A 03 F3 00 58 FF 0F 02 FC 1B 01 F2 00 2C FF 
48d4: 04 02 FC 1C FE F4 00 00 FF 00 FB FC 9B FC F2 FF 
48e4: D4 FF 04 FB FC 9A FA F3 FF A8 FF 0F FB FC 99 F7 
48f4: F4 FF 80 FF 22 FB FC 98 F5 F5 FF 5B FF 3C FB FC 
4904: 97 F4 F7 FF 3C FF 5B FB FC 96 F2 FB FF 22 FF 80 
4914: FB FC 95 F1 FB FF 0F FF A8 FB FC 94 F1 FD FF 04 
4924: FF D4 FB FC 93 F1 00 FF 00 00 00 FB 04 D4 F0 03 
4934: FF 04 00 2C FB 04 D5 F0 05 FF 0F 00 58 FB 04 D6 
4944: F1 07 FF 22 00 80 FB 04 D7 F2 09 FF 3C 00 A5 FB 
4954: 04 D8 F4 0B FF 5A 00 C4 FB 04 D9 F6 0D FF 80 00 
4964: DE FB 04 DA F9 0E FF A8 00 F1 FB 04 DB FC 0E FF 
4974: D4 00 FC 02 04 5C FE 0E 00 00 01 00 02 04 5B 00 
4984: 0E 00 2C 00 FC 02 04 5A 03 0E 00 58 00 F1 02 04 
4994: 59 06 0D 00 80 00 DE 02 04 58 08 0B 00 A5 00 C4 
49a4: 02 04 57 0A 09 00 C4 00 A5 02 04 56 0B 07 00 DE 
49b4: 00 80 02 04 55 0C 05 00 F1 00 58 02 04 54 0C 03 
49c4: 00 FC 00 2C 

TANK_TURRET_DRAW:
49c8: 21 84 48       LD    HL,DATA_TO_49C7_USED_AT_49C8
49cb: 3A 7B C4       LD    A,(IN_ATTRACT_MODE?)
49ce: B7             OR    A,A
49cf: 3A 05 C4       LD    A,(MCP_TRON_ARM_OR_TANK_TURRET_ROTATION)
49d2: 28 07          JR    Z,$49DB


*** Attract mode input processing ...
49d4: 3A 55 C1       LD    A,($C155)
49d7: CB 3F          SRL   A
49d9: CB 3F          SRL   A

*** User and attract mode processing continues here ...
49db: E6 3F          AND   A,#$3F
49dd: 47             LD    B,A
49de: CB 27          SLA   A
49e0: CB 27          SLA   A
49e2: CB 27          SLA   A
49e4: 30 01          JR    NC,$49E7

49e6: 24             INC   H
49e7: 80             ADD   A,B
49e8: 30 01          JR    NC,$49EB

49ea: 24             INC   H
49eb: 85             ADD   A,L
49ec: 30 01          JR    NC,$49EF

49ee: 24             INC   H
49ef: 6F             LD    L,A

*** Update turret position and rotation
49f0: DD 21 08 F0    LD    IX,TANK_TURRET_OR_LC_ENEMIES
49f4: 3A 00 C0       LD    A,(CPU_RAM_OR_GS_DISK_X_TANK_X_OR_MCP_TRON_LEGS-LC_TRAILS_TO_C1DF)
49f7: 47             LD    B,A
49f8: 3A 0B C0       LD    A,($C00B)
49fb: 80             ADD   A,B
49fc: 86             ADD   A,(HL)
49fd: CD 65 71       CALL  ADJUST_SPRITE_Y_IF_FLIPPED_SCREEN
4a00: DD 77 00       LD    (IX+$00),A
4a03: 23             INC   HL
4a04: 3A 02 C0       LD    A,(TANK_Y_OR_GS_DISK_Y)
4a07: 47             LD    B,A
4a08: 3A 0C C0       LD    A,($C00C)
4a0b: 80             ADD   A,B
4a0c: 86             ADD   A,(HL)
4a0d: C6 04          ADD   A,#$04
4a0f: CD 59 71       CALL  ADJUST_SPRITE_X_IF_FLIPPED_SCREEN
4a12: DD 77 02       LD    (IX+$02),A
4a15: 23             INC   HL
4a16: 7E             LD    A,(HL)
4a17: DD 77 01       LD    (IX+$01),A
4a1a: 3A 1E C4       LD    A,(MAX_DISKS_AT_A_TIME)
4a1d: 47             LD    B,A
4a1e: 11 10 00       LD    DE,$0010
4a21: DD 21 01 C0    LD    IX,TANK_PIC_OR_MCP_ROWS_OF_BLOCKS
4a25: DD 19          ADD   IX,DE
4a27: DD 7E 08       LD    A,(IX+$08)
4a2a: B7             OR    A,A
4a2b: 20 23          JR    NZ,$4A50

4a2d: 23             INC   HL
4a2e: 7E             LD    A,(HL)
4a2f: DD 77 00       LD    (IX+$00),A
4a32: 23             INC   HL
4a33: 7E             LD    A,(HL)
4a34: DD 77 02       LD    (IX+$02),A
4a37: 23             INC   HL
4a38: 7E             LD    A,(HL)
4a39: DD 77 04       LD    (IX+$04),A
4a3c: 23             INC   HL
4a3d: 7E             LD    A,(HL)
4a3e: DD 77 05       LD    (IX+$05),A
4a41: 23             INC   HL
4a42: 7E             LD    A,(HL)
4a43: DD 77 06       LD    (IX+$06),A
4a46: 23             INC   HL
4a47: 7E             LD    A,(HL)
4a48: DD 77 07       LD    (IX+$07),A
4a4b: DD 36 09 01    LD    (IX+$09),#$01
4a4f: C9             RET   

4a50: 05             DEC   B
4a51: 20 D2          JR    NZ,$4A25

4a53: C9             RET   

4a54: 3A 59 C1       LD    A,(TANKS_NUMBER_OF_ENEMY_BULLETS?)
4a57: 4F             LD    C,A
4a58: DD 21 31 C0    LD    IX,$C031
4a5c: 11 20 00       LD    DE,$0020
4a5f: DD 19          ADD   IX,DE
4a61: DD 7E 11       LD    A,(IX+$11)
4a64: B7             OR    A,A
4a65: CA F4 4A       JP    Z,$4AF4

4a68: DD 7E 09       LD    A,(IX+$09)
4a6b: B7             OR    A,A
4a6c: 20 44          JR    NZ,$4AB2

4a6e: 2A 09 C0       LD    HL,(MCP_TRON_Y_TANKS_DATA_VECTOR_x_2)
4a71: 7D             LD    A,L
4a72: DD BE 14       CP    A,(IX+$14)
4a75: 20 7D          JR    NZ,$4AF4

4a77: 7C             LD    A,H
4a78: DD BE 15       CP    A,(IX+$15)
4a7b: 20 77          JR    NZ,$4AF4

4a7d: 3A 00 C0       LD    A,(CPU_RAM_OR_GS_DISK_X_TANK_X_OR_MCP_TRON_LEGS-LC_TRAILS_TO_C1DF)
4a80: DD BE 00       CP    A,(IX+$00)
4a83: 38 16          JR    C,$4A9B

4a85: DD 7E 08       LD    A,(IX+$08)
4a88: FE 01          CP    A,#$01
4a8a: 20 68          JR    NZ,$4AF4

4a8c: DD 46 00       LD    B,(IX+$00)
4a8f: CD F9 4A       CALL  $4AF9
4a92: 3A 00 C0       LD    A,(CPU_RAM_OR_GS_DISK_X_TANK_X_OR_MCP_TRON_LEGS-LC_TRAILS_TO_C1DF)
4a95: BE             CP    A,(HL)
4a96: DC FF 4A       CALL  C,$4AFF
4a99: 18 59          JR    $4AF4

4a9b: DD 7E 08       LD    A,(IX+$08)
4a9e: FE 01          CP    A,#$01
4aa0: 28 52          JR    Z,$4AF4

4aa2: DD 46 00       LD    B,(IX+$00)
4aa5: CD F9 4A       CALL  $4AF9
4aa8: 3A 00 C0       LD    A,(CPU_RAM_OR_GS_DISK_X_TANK_X_OR_MCP_TRON_LEGS-LC_TRAILS_TO_C1DF)
4aab: 2B             DEC   HL
4aac: BE             CP    A,(HL)
4aad: D4 FF 4A       CALL  NC,$4AFF
4ab0: 18 42          JR    $4AF4

4ab2: 2A 07 C0       LD    HL,(MCP_TRON_X_TANKS_DATA_VECTOR_x_1)
4ab5: 7D             LD    A,L
4ab6: DD BE 12       CP    A,(IX+$12)
4ab9: 20 39          JR    NZ,$4AF4

4abb: 7C             LD    A,H
4abc: DD BE 13       CP    A,(IX+$13)
4abf: 20 33          JR    NZ,$4AF4

4ac1: 3A 02 C0       LD    A,(TANK_Y_OR_GS_DISK_Y)
4ac4: DD BE 02       CP    A,(IX+$02)
4ac7: 38 16          JR    C,$4ADF

4ac9: DD 7E 08       LD    A,(IX+$08)
4acc: FE 01          CP    A,#$01
4ace: 20 24          JR    NZ,$4AF4

4ad0: DD 46 02       LD    B,(IX+$02)
4ad3: CD F9 4A       CALL  $4AF9
4ad6: 3A 02 C0       LD    A,(TANK_Y_OR_GS_DISK_Y)
4ad9: BE             CP    A,(HL)
4ada: DC FF 4A       CALL  C,$4AFF
4add: 18 15          JR    $4AF4

4adf: DD 7E 08       LD    A,(IX+$08)
4ae2: FE 01          CP    A,#$01
4ae4: 28 0E          JR    Z,$4AF4

4ae6: DD 46 02       LD    B,(IX+$02)
4ae9: CD F9 4A       CALL  $4AF9
4aec: 3A 02 C0       LD    A,(TANK_Y_OR_GS_DISK_Y)
4aef: 2B             DEC   HL
4af0: BE             CP    A,(HL)
4af1: D4 FF 4A       CALL  NC,$4AFF
4af4: 0D             DEC   C
4af5: C2 5C 4A       JP    NZ,$4A5C

4af8: C9             RET   

4af9: 7E             LD    A,(HL)
4afa: B8             CP    A,B
4afb: D0             RET   NC

4afc: 23             INC   HL
4afd: 18 FA          JR    $4AF9

4aff: 3E 01          LD    A,#$01
4b01: 32 53 C1       LD    ($C153),A
4b04: FD 21 11 C1    LD    IY,$C111
4b08: DD 7E 0A       LD    A,(IX+$0A)
4b0b: 57             LD    D,A
4b0c: CB 27          SLA   A
4b0e: CB 27          SLA   A
4b10: CB 27          SLA   A
4b12: 82             ADD   A,D
4b13: 5F             LD    E,A
4b14: AF             XOR   A,A
4b15: 57             LD    D,A
4b16: FD 19          ADD   IY,DE
4b18: FD 7E 07       LD    A,(IY+$07)
4b1b: B7             OR    A,A
4b1c: C0             RET   NZ

4b1d: 0E 0F          LD    C,#$0F
4b1f: CD B8 6F       CALL  PUT_C_ON_STACK_TO_SEND_TO_AUDIO
4b22: DD 7E 0A       LD    A,(IX+$0A)
4b25: FD 77 08       LD    (IY+$08),A
4b28: DD 7E 00       LD    A,(IX+$00)
4b2b: FD 77 00       LD    (IY+$00),A
4b2e: DD 7E 02       LD    A,(IX+$02)
4b31: FD 77 02       LD    (IY+$02),A
4b34: DD 7E 09       LD    A,(IX+$09)
4b37: B7             OR    A,A
4b38: 20 18          JR    NZ,$4B52

4b3a: FD 36 06 00    LD    (IY+$06),#$00
4b3e: DD 7E 08       LD    A,(IX+$08)
4b41: FD 77 05       LD    (IY+$05),A
4b44: FD 36 01 04    LD    (IY+$01),#$04
4b48: FE 01          CP    A,#$01
4b4a: 28 1C          JR    Z,$4B68

4b4c: FD 36 01 84    LD    (IY+$01),#$84
4b50: 18 16          JR    $4B68

4b52: FD 36 05 00    LD    (IY+$05),#$00
4b56: DD 7E 08       LD    A,(IX+$08)
4b59: FD 77 06       LD    (IY+$06),A
4b5c: FD 36 01 45    LD    (IY+$01),#$45
4b60: FE 01          CP    A,#$01
4b62: 28 04          JR    Z,$4B68

4b64: FD 36 01 05    LD    (IY+$01),#$05
4b68: FD 36 07 02    LD    (IY+$07),#$02
4b6c: CD 70 4B       CALL  TANK_BULLET?_DRAW_USES_IY
4b6f: C9             RET   

TANK_BULLET?_DRAW_USES_IY:
4b70: FD 6E 03       LD    L,(IY+$03)
4b73: FD 66 04       LD    H,(IY+$04)
4b76: FD 7E 00       LD    A,(IY+$00)
4b79: CD 65 71       CALL  ADJUST_SPRITE_Y_IF_FLIPPED_SCREEN
4b7c: 77             LD    (HL),A
4b7d: FD 7E 01       LD    A,(IY+$01)
4b80: 23             INC   HL
4b81: 77             LD    (HL),A
4b82: FD 7E 02       LD    A,(IY+$02)
4b85: C6 04          ADD   A,#$04
4b87: 23             INC   HL
4b88: CD 59 71       CALL  ADJUST_SPRITE_X_IF_FLIPPED_SCREEN
4b8b: 77             LD    (HL),A
4b8c: C9             RET   

TANK_DATA_FOR?_USED_AT_4BBB:
4b8d: 08 08 FF 

4b90: 3A 59 C1       LD    A,(TANKS_NUMBER_OF_ENEMY_BULLETS?)
4b93: 4F             LD    C,A
4b94: FD 21 08 C1    LD    IY,TANKS_ENEMY_BULLETS_IN_RAM_AT_C111?
4b98: 11 09 00       LD    DE,$0009
4b9b: FD 19          ADD   IY,DE
4b9d: FD 7E 07       LD    A,(IY+$07)
4ba0: B7             OR    A,A
4ba1: 28 56          JR    Z,$4BF9

4ba3: 06 05          LD    B,#$05
4ba5: CD 70 4B       CALL  TANK_BULLET?_DRAW_USES_IY
4ba8: FD 7E 00       LD    A,(IY+$00)
4bab: FD 86 05       ADD   A,(IY+$05)
4bae: FD 77 00       LD    (IY+$00),A
4bb1: FD 7E 02       LD    A,(IY+$02)
4bb4: FD 86 06       ADD   A,(IY+$06)
4bb7: FD 77 02       LD    (IY+$02),A
4bba: C5             PUSH  BC
4bbb: 21 8D 4B       LD    HL,TANK_DATA_FOR?_USED_AT_4BBB
4bbe: FD 7E 00       LD    A,(IY+$00)
4bc1: 86             ADD   A,(HL)
4bc2: 47             LD    B,A
4bc3: FD 7E 02       LD    A,(IY+$02)
4bc6: 23             INC   HL
4bc7: 86             ADD   A,(HL)
4bc8: 4F             LD    C,A
4bc9: E5             PUSH  HL
4bca: CD F5 46       CALL  $46F5
4bcd: 30 0D          JR    NC,$4BDC

4bcf: DD 7E 0A       LD    A,(IX+$0A)
4bd2: FD BE 08       CP    A,(IY+$08)
4bd5: 28 05          JR    Z,$4BDC

4bd7: CD 62 47       CALL  $4762
4bda: 18 0F          JR    $4BEB

4bdc: CD 2B 47       CALL  $472B
4bdf: 30 05          JR    NC,$4BE6

4be1: CD 09 4C       CALL  $4C09
4be4: 18 05          JR    $4BEB

4be6: CD 77 4D       CALL  TANK_PROCESS_?_USING_DATA_4CFF_AND_THE_DATA_VECTORS_IN_THERE
4be9: 38 03          JR    C,$4BEE

4beb: CD FD 4B       CALL  TANK_SET_BULLET_X_AND_?_OFFSCREEN_CALL_UPDATE_POSITION?
4bee: E1             POP   HL
4bef: 23             INC   HL
4bf0: 7E             LD    A,(HL)
4bf1: FE FF          CP    A,#$FF
4bf3: 20 C9          JR    NZ,$4BBE

4bf5: C1             POP   BC
4bf6: 05             DEC   B
4bf7: 20 AF          JR    NZ,$4BA8

4bf9: 0D             DEC   C
4bfa: 20 9C          JR    NZ,$4B98

4bfc: C9             RET   

TANK_SET_BULLET_X_AND_?_OFFSCREEN_CALL_UPDATE_POSITION?:
4bfd: FD 36 07 00    LD    (IY+$07),#$00
4c01: FD 36 00 00    LD    (IY+$00),#$00
4c05: CD 70 4B       CALL  TANK_BULLET?_DRAW_USES_IY
4c08: C9             RET   

4c09: 21 04 F0       LD    HL,TANK_BODY_OR_LC_OR_IO_OR_MCP_TRON_AND_DISK_TORSO_LEGS_LEFT_DISK_RIGHT
4c0c: 23             INC   HL
4c0d: 36 00          LD    (HL),#$00
4c0f: 21 4C C1       LD    HL,$C14C
4c12: 36 04          LD    (HL),#$04
4c14: 21 47 C1       LD    HL,$C147
4c17: CB C6          SET   0,(HL)
4c19: AF             XOR   A,A
4c1a: 32 08 F0       LD    (TANK_TURRET_OR_LC_ENEMIES),A
4c1d: AF             XOR   A,A
4c1e: 32 08 C4       LD    ($C408),A
4c21: 0E 03          LD    C,#$03
4c23: CD B8 6F       CALL  PUT_C_ON_STACK_TO_SEND_TO_AUDIO
4c26: 0E 30          LD    C,#$30
4c28: C3 B8 6F       JP    PUT_C_ON_STACK_TO_SEND_TO_AUDIO

4c2b: C9             RET   

4c2c: 00 18 E0 E8 F8 00 18 28 30 40 60 70 78 88 90 A0 
4c3c: D0 E0 E8 F8 00 18 28 30 58 60 F8 00 18 58 60 F8 
4c4c: 00 18 40 48 58 60 70 78 88 A0 B0 B8 C8 D0 E0 E8 
4c5c: F8 00 18 28 30 40 48 58 60 70 78 88 A0 B0 B8 C8 
4c6c: D0 E0 E8 F8 00 18 28 30 C8 D0 F8 00 18 28 30 40 
4c7c: 48 58 60 70 78 88 A0 B0 D0 E0 E8 F8 00 18 E0 E8 
4c8c: F8 00 18 28 30 40 48 58 60 70 80 90 A0 B0 B8 C8 
4c9c: D0 E0 E8 F8 00 18 28 30 58 60 70 78 98 A0 B0 B8 
4cac: F8 00 18 28 30 40 48 58 60 70 80 90 A0 B0 B8 C8 
4cbc: D0 E0 E8 F8 00 18 C8 D0 F8 00 18 28 48 58 60 70 
4ccc: 78 88 A0 B0 D0 E0 E8 F8 00 18 28 30 F8 00 18 28 
4cdc: 30 40 48 58 78 88 A0 B0 B8 C8 D0 E0 E8 F8 00 18 
4cec: E0 E8 F8 00 30 40 58 68 78 88 A0 B0 E8 F8 00 

TANK_DATA_FOR?_STARTS_AT_4CFF:
4cfb: 18 F8 00 00 


*** This data structure used at 40BA and 4D77 but points to 4CFB and then adds 4!
4cff: 28 01 2C 4C 37 00 2D 4C 38 01 32 4C 40 01 32 4C 
4d0f: 48 00 41 4C 4F 00 48 4C 50 01 4D 4C 57 00 4D 4C 
4d1f: 58 01 5E 4C 67 00 71 4C 68 01 78 4C 70 01 78 4C 
4d2f: 7F 00 89 4C 80 01 8E 4C 88 01 8E 4C 97 00 A1 4C 
4d3f: 98 01 AE 4C A0 01 AE 4C AF 00 C1 4C B0 01 C6 4C 
4d4f: B8 01 C6 4C C7 00 D5 4C C8 01 DA 4C D0 01 DA 4C 
4d5f: DF 00 EB 4C E0 01 F0 4C E8 01 F0 4C F7 00 FB 4C 
4d6f: F8 01 FE 4C FF 00 FE 4C 
TANK_PROCESS_?_USING_DATA_4CFF_AND_THE_DATA_VECTORS_IN_THERE:
4d77: DD 21 FB 4C    LD    IX,TANK_DATA_FOR?_STARTS_AT_4CFF
4d7b: 11 04 00       LD    DE,$0004
4d7e: DD 19          ADD   IX,DE
4d80: DD 7E 00       LD    A,(IX+$00)
4d83: B9             CP    A,C
4d84: 38 F8          JR    C,$4D7E

4d86: DD 7E 01       LD    A,(IX+$01)
4d89: 32 4B C1       LD    ($C14B),A
4d8c: DD 6E 02       LD    L,(IX+$02)
4d8f: DD 66 03       LD    H,(IX+$03)
4d92: 7E             LD    A,(HL)
4d93: B7             OR    A,A
4d94: C8             RET   Z

4d95: B8             CP    A,B
4d96: D0             RET   NC

4d97: 23             INC   HL
4d98: 78             LD    A,B
4d99: BE             CP    A,(HL)
4d9a: D8             RET   C

4d9b: 23             INC   HL
4d9c: 18 F4          JR    $4D92


*** This data is copied to C051!
*** number of tanks x 10 bytes
*** 10 bytes: X, picture, Y, ?, ?, ?, ?, ?, ?, ?
*** tank 0 hardness data
4d9e: E8 88 E8 00 01 0E 0E 01 FF 00 

*** tank 1 hardness data
4da8: D0 88 28 00 01 0E 0E 01 FF 00 
4db2: 18 08 D0 00 01 0E 0E 02 01 00 

*** tank 2 hardness data
4dbc: 18 08 28 00 01 0E 0E 02 01 00 
4dc6: E8 88 E8 00 01 0E 0E 02 FF 00 
4dd0: E8 49 40 00 01 0E 0E 01 01 01 

*** tank 3 hardness data
4dda: D0 88 28 00 01 0E 0E 02 FF 00 
4de4: 18 49 28 00 01 0E 0E 01 01 01 
4dee: 30 08 E8 00 01 0E 0E 01 01 00 
4df8: E8 09 E8 00 01 0E 0E 02 FF 01 

*** tank 4 hardness data
4e02: 18 08 28 00 01 0E 0E 01 01 00 
4e0c: 18 09 D0 00 01 0E 0E 02 FF 01 
4e16: 30 08 E8 00 01 0E 0E 02 01 00 
4e20: E8 49 40 00 01 0E 0E 01 01 01 

*** tank 9 hardness data
4e2a: D0 BD 28 00 01 0E 0E 02 FF 00 
4e34: E8 7E 40 00 01 0E 0E 01 01 01 
4e3e: 30 3D E8 00 01 0E 0E 01 01 00 
4e48: 18 3E D0 00 01 0E 0E 02 FF 01 
4e52: E8 BD E8 00 01 0E 0E 02 FF 00 
4e5c: 78 3E E8 00 01 0E 0E 01 FF 01 

*** tank 6 hardness data
4e66: D0 88 28 00 01 0E 0E 02 FF 00 
4e70: 18 49 28 00 01 0E 0E 01 01 01 
4e7a: 30 08 E8 00 01 0E 0E 01 01 00 
4e84: E8 09 E8 00 01 0E 0E 02 FF 01 
4e8e: B8 88 A0 00 01 0E 0E 02 FF 00 

*** tank 7 hardness data
4e98: D0 88 28 00 01 0E 0E 02 FF 00 
4ea2: E8 49 40 00 01 0E 0E 01 01 01 
4eac: 30 08 E8 00 01 0E 0E 01 01 00 
4eb6: 18 09 D0 00 01 0E 0E 02 FF 01 
4ec0: E8 88 E8 00 01 0E 0E 02 FF 00 
4eca: 78 09 E8 00 01 0E 0E 01 FF 01 

*** tank 8 hardness data
4ed4: 18 08 28 00 01 0E 0E 01 01 00 
4ede: 18 09 D0 00 01 0E 0E 02 FF 01 
4ee8: 30 08 E8 00 01 0E 0E 02 01 00 
4ef2: E8 49 40 00 01 0E 0E 01 01 01 
4efc: B8 88 70 00 01 0E 0E 02 FF 00 

*** tank 5 hardness data
4f06: D0 BD 28 00 01 0E 0E 01 FF 00 
4f10: 18 3D 28 00 01 0E 0E 02 01 00 
4f1a: 30 3D E8 00 01 0E 0E 01 01 00 
4f24: E8 BD E8 00 01 0E 0E 02 FF 00 
4f2e: B8 BD 70 00 01 0E 0E 02 FF 00 
4f38: B8 BD A0 00 01 0E 0E 02 FF 00 

*** tank A hardness data
4f42: D0 88 28 00 01 0E 0E 01 FF 00 
4f4c: 18 08 28 00 01 0E 0E 02 01 00 
4f56: 30 08 E8 00 01 0E 0E 01 01 00 
4f60: E8 88 E8 00 01 0E 0E 02 FF 00 
4f6a: B8 88 70 00 01 0E 0E 02 FF 00 
4f74: B8 88 A0 00 01 0E 0E 02 FF 00 

*** Tank game setup data.
*** 11x4 bytes: shot speed, number of tanks, vector to tank(s) setup data
*** If high bit (7) set in number of tanks, recognizers instead of tanks
TANK_SET_UP_DATA:
4f7e: 80 01 9E 4D 
4f82: 90 02 A8 4D 
4f86: A0 03 BC 4D 
4f8a: B0 04 DA 4D 
4f8e: C0 04 02 4E 
4f92: D0 86 06 4F 
4f96: E0 05 66 4E 
4f9a: F0 06 98 4E 
4f9e: FF 05 D4 4E 
4fa2: FF 86 2A 4E 
4fa6: FF 06 42 4F 

*** Tank warp locations (X, picture, Y) 16x3
4faa: 31 A0 40 
4fad: 31 48 20 
4fb0: E9 A0 10 
4fb3: 61 B8 08 
4fb6: 61 38 40 
4fb9: 19 8A 20 
4fbc: 48 28 10 
4fbf: 31 B8 08 
4fc2: B9 80 40 
4fc5: B9 48 20 
4fc8: BA D0 10 
4fcb: 31 58 08 
4fce: 31 88 40 
4fd1: D1 A0 20 
4fd4: 69 D0 10 
4fd7: 8C E8 08 

4fda: EF FF AB 69 B7 DF 8B ED EF F1 ED 7C 03 74 31 FA 
4fea: B7 F7 60 3B BD 73 EB 67 0B CD 7F BD 4F E7 B3 FD 
4ffa: AF CF FD F2 27 6F 

*** Light cycles: the sprite number and orientation is used for some processing
*** ----- Enemy User
*** Up    2F    2D
*** Down  EF    ED
*** Left  F0    EE
*** Right 30    2E
PLAY_LC:
5000: CD 49 70       CALL  INITIALIZE_SPRITES
5003: 21 80 90       LD    HL,LC_COLOR_PALETTE
5006: CD 35 6F       CALL  COPY_20_FROM_HL_TO_FF80
5009: CD 20 70       CALL  ZERO_RAM_C000-C418
500c: 3E 05          LD    A,#$05
500e: 32 5B C4       LD    (GS_DIRECTION:1=DOWN,2=?,3=?,5=?,OTHER=?),A
5011: 21 00 89       LD    HL,BACKGROUND_LC
5014: CD 35 70       CALL  BACKGROUND_RAM_FILL_FROM_HL_0780_BYTES_TO_F800
5017: 3E 01          LD    A,#$01
5019: 32 08 C4       LD    ($C408),A
501c: 3E FD          LD    A,#$FD
501e: 21 00 C2       LD    HL,LC_ENEMY_1_X
5021: CD 34 52       CALL  $5234
5024: 3E F8          LD    A,#$F8
5026: 21 04 C2       LD    HL,LC_ENEMY_1_Y
5029: CD 34 52       CALL  $5234
502c: 3E EF          LD    A,#$EF         ;LC enemy down (EF)
502e: 21 EA C1       LD    HL,LC_ENEMY_1_SPRITE
5031: CD 34 52       CALL  $5234
5034: 3A 19 C4       LD    A,(HARDNESS_(OR_USER_LEVEL/CURRENT_PLAYER_DATA?))
5037: FE 13          CP    A,#$13
5039: 38 04          JR    C,$503F

503b: D6 05          SUB   A,#$05
503d: 18 F8          JR    $5037

503f: 21 1B 5C       LD    HL,LC_DATA_STRUCTURE_TO_SETUP_LIGHT_CYCLES
5042: 87             ADD   A,A
5043: 47             LD    B,A
5044: 87             ADD   A,A
5045: 80             ADD   A,B
5046: CD 00 6F       CALL  ADD_A_TO_HL_WITH_CARRY
5049: 7E             LD    A,(HL)
504a: 32 10 C2       LD    (LC_ENEMIES_STILL_ALIVE_BITS_0_1_2),A
504d: 23             INC   HL
504e: 7E             LD    A,(HL)
504f: 32 23 C2       LD    (LC_SETUP2?),A
5052: 23             INC   HL
5053: 7E             LD    A,(HL)
5054: 32 24 C2       LD    (LC_SETUP3?),A
5057: 23             INC   HL
5058: 11 25 C2       LD    DE,LC_SETUP4?
505b: ED A0          LDI   
505d: ED A0          LDI   
505f: ED A0          LDI   
5061: 21 29 C2       LD    HL,$C229
5064: 36 01          LD    (HL),#$01
5066: 23             INC   HL
5067: 36 01          LD    (HL),#$01
5069: 23             INC   HL
506a: 36 01          LD    (HL),#$01
506c: 21 2E C2       LD    HL,$C22E
506f: 36 02          LD    (HL),#$02
5071: 23             INC   HL
5072: 36 02          LD    (HL),#$02
5074: 23             INC   HL
5075: 36 02          LD    (HL),#$02
5077: 3E 08          LD    A,#$08
5079: ED 44          NEG   
507b: 32 0E C2       LD    ($C20E),A
507e: 3A 7B C4       LD    A,(IN_ATTRACT_MODE?)
5081: B7             OR    A,A
5082: 28 04          JR    Z,$5088

5084: 3E FF          LD    A,#$FF
5086: 18 10          JR    $5098

5088: 3A 87 C6       LD    A,(FLIP_SCREEN_IF_VALUE_IS_01)
508b: 0E 00          LD    C,#$00
508d: 06 10          LD    B,#$10
508f: B7             OR    A,A
5090: 28 04          JR    Z,$5096

5092: 0E 03          LD    C,#$03
5094: 06 80          LD    B,#$80
5096: ED 78          IN    A,(C)
5098: 21 0D C2       LD    HL,LC_TRIGGER_STATE_0_IS_PULLED
509b: A0             AND   A,B
509c: 77             LD    (HL),A
509d: 0E 00          LD    C,#$00
509f: 3E 08          LD    A,#$08
50a1: CB 66          BIT   4,(HL)
50a3: 20 01          JR    NZ,$50A6

50a5: 0C             INC   C
50a6: ED 44          NEG   
50a8: 32 0F C2       LD    ($C20F),A
50ab: 1E 03          LD    E,#$03
50ad: 16 0F          LD    D,#$0F
50af: ED 53 EE C1    LD    ($C1EE),DE
50b3: 3E 04          LD    A,#$04
50b5: 32 0A C2       LD    ($C20A),A
50b8: 26 00          LD    H,#$00
50ba: 47             LD    B,A
50bb: CB 58          BIT   3,B
50bd: 3E ED          LD    A,#$ED         ;LC user down (ED)
50bf: 16 FD          LD    D,#$FD
50c1: 1E F8          LD    E,#$F8
50c3: 20 1C          JR    NZ,$50E1

50c5: CB 50          BIT   2,B
50c7: 3E 2D          LD    A,#$2D         ;LC user up (2D)
50c9: 16 FD          LD    D,#$FD
50cb: 1E 08          LD    E,#$08
50cd: 20 12          JR    NZ,$50E1

50cf: 26 02          LD    H,#$02
50d1: CB 48          BIT   1,B
50d3: 3E 2E          LD    A,#$2E         ;LC user right (2E)
50d5: 16 F5          LD    D,#$F5
50d7: 1E 00          LD    E,#$00
50d9: 20 06          JR    NZ,$50E1

50db: 3E EE          LD    A,#$EE         ;LC user left (EE)
50dd: 16 05          LD    D,#$05
50df: 1E 00          LD    E,#$00
50e1: 32 ED C1       LD    (LC_USER_SPRITE),A
50e4: 7A             LD    A,D
50e5: 32 03 C2       LD    (LC_USER_X),A
50e8: 7B             LD    A,E
50e9: 32 07 C2       LD    (LC_USER_Y),A
50ec: 7C             LD    A,H
50ed: 81             ADD   A,C
50ee: 5F             LD    E,A
50ef: 16 00          LD    D,#$00
50f1: 21 EF 57       LD    HL,LC_DATA_FOR_TRIGGER_PULLED_AND_UP_DOWN_VS_LEFT_RIGHT
50f4: 19             ADD   HL,DE
50f5: 4E             LD    C,(HL)
50f6: 21 09 C2       LD    HL,LC_TRIGGER_PULLED_AND_UP_DOWN_VS_LEFT_RIGHT
50f9: 71             LD    (HL),C
50fa: CD B8 6F       CALL  PUT_C_ON_STACK_TO_SEND_TO_AUDIO
50fd: CD F4 56       CALL  LC_SET_UP_BOUNDARIES_IN_RAM_DATA_STRUCTURE_FROM_C000_TO_C1DF
5100: C3 3B 52       JP    LC_SET_UP_USER_AND_ENEMIES_C1E0_TO_C230?

LC_INSTRUCTIONS:
5103: 21 00 91       LD    HL,BACKGROUND_TRAINING_FOR_LC
5106: CD 35 70       CALL  BACKGROUND_RAM_FILL_FROM_HL_0780_BYTES_TO_F800
5109: CD 49 70       CALL  INITIALIZE_SPRITES
510c: 21 80 90       LD    HL,LC_COLOR_PALETTE
510f: CD 35 6F       CALL  COPY_20_FROM_HL_TO_FF80
5112: 3E 01          LD    A,#$01
5114: 32 65 C4       LD    ($C465),A
5117: 3E 01          LD    A,#$01
5119: 32 08 C4       LD    ($C408),A
511c: FD 21 04 F0    LD    IY,TANK_BODY_OR_LC_OR_IO_OR_MCP_TRON_AND_DISK_TORSO_LEGS_LEFT_DISK_RIGHT
5120: 3E 75          LD    A,#$75
5122: CD 65 71       CALL  ADJUST_SPRITE_Y_IF_FLIPPED_SCREEN
5125: FD 77 00       LD    (IY+$00),A
5128: FD 36 01 2D    LD    (IY+$01),#$2D  ;LC user up (2D)
512c: 3E E8          LD    A,#$E8
512e: CD 59 71       CALL  ADJUST_SPRITE_X_IF_FLIPPED_SCREEN
5131: FD 77 02       LD    (IY+$02),A
5134: DD 21 51 51    LD    IX,LC_INSTRUCTION_STRINGS_SOURCE_AND_DESTINATION_DATA
5138: DD 4E 00       LD    C,(IX+$00)
513b: DD 46 01       LD    B,(IX+$01)
513e: 78             LD    A,B
513f: B1             OR    A,C
5140: C8             RET   Z

5141: DD 5E 02       LD    E,(IX+$02)
5144: DD 56 03       LD    D,(IX+$03)
5147: CD 5D 70       CALL  ADD_MESSAGE_TO_Q
514a: 11 04 00       LD    DE,$0004
514d: DD 19          ADD   IX,DE
514f: 18 E7          JR    $5138


*** 5x4: 4 = destination vector and source vector
LC_INSTRUCTION_STRINGS_SOURCE_AND_DESTINATION_DATA:
5151: E4 FD 67 51 
5155: E6 FD 75 51 
5159: E8 FD 82 51 
515d: EA FD 8C 51 
5161: EC FD 9C 51 

5165: 00 00 

AVOID_HITTING_S:
5167: AVOID HITTING

LIGHT_TRACES2_S:
5175: LIGHT TRACES

AND_WALLS_S:
5182: AND WALLS

USE_TRIGGER_FOR_S:
518c: USE TRIGGER FOR

SPEED_CONTROL_S:
519c: SPEED CONTROL

51aa: 21 22 C2       LD    HL,$C222
51ad: 7E             LD    A,(HL)
51ae: B7             OR    A,A
51af: 28 0F          JR    Z,$51C0

51b1: 3A 7B C4       LD    A,(IN_ATTRACT_MODE?)
51b4: B7             OR    A,A
51b5: 20 02          JR    NZ,$51B9

51b7: 35             DEC   (HL)
51b8: C0             RET   NZ

51b9: 3A 07 C4       LD    A,($C407)
51bc: 32 7C C4       LD    (NEXT_SLOT_IN_SCREEN_MESSAGE_QUEUE_2),A
51bf: C9             RET   

51c0: CD 01 59       CALL  $5901
51c3: CD 01 53       CALL  $5301
51c6: 21 EE C1       LD    HL,$C1EE
51c9: 7E             LD    A,(HL)
51ca: 23             INC   HL
51cb: B6             OR    A,(HL)
51cc: C0             RET   NZ

51cd: CD A5 58       CALL  $58A5
51d0: 21 21 C2       LD    HL,$C221
51d3: 34             INC   (HL)
51d4: CD 2A 52       CALL  $522A
51d7: 3A 87 C6       LD    A,(FLIP_SCREEN_IF_VALUE_IS_01)
51da: 06 10          LD    B,#$10
51dc: B7             OR    A,A
51dd: 28 02          JR    Z,$51E1

51df: 06 80          LD    B,#$80
51e1: 3A 0D C2       LD    A,(LC_TRIGGER_STATE_0_IS_PULLED)
51e4: A0             AND   A,B
51e5: 20 12          JR    NZ,$51F9

51e7: CD 2A 52       CALL  $522A
51ea: CD 2A 52       CALL  $522A
51ed: 18 0A          JR    $51F9

51ef: 21 21 C2       LD    HL,$C221
51f2: CB 46          BIT   0,(HL)
51f4: 20 03          JR    NZ,$51F9

51f6: CD 2A 52       CALL  $522A
51f9: CD 1A 52       CALL  $521A
51fc: CD 1A 52       CALL  $521A
51ff: 3A 28 C2       LD    A,($C228)
5202: 6F             LD    L,A
5203: 26 00          LD    H,#$00
5205: ED 5B 23 C2    LD    DE,(LC_SETUP2?)
5209: 19             ADD   HL,DE
520a: 7D             LD    A,L
520b: 32 28 C2       LD    ($C228),A
520e: 7C             LD    A,H
520f: B7             OR    A,A
5210: C8             RET   Z

5211: F5             PUSH  AF
5212: CD 1A 52       CALL  $521A
5215: F1             POP   AF
5216: 3D             DEC   A
5217: 20 F8          JR    NZ,$5211

5219: C9             RET   

521a: CD C5 55       CALL  $55C5
521d: CD D0 55       CALL  $55D0
5220: CD DB 55       CALL  $55DB
5223: CD 89 54       CALL  $5489
5226: CD 8A 59       CALL  LC_INC_C20E_IF_08_SET_TO_00
5229: C9             RET   

522a: CD 1F 53       CALL  $531F
522d: CD 89 54       CALL  $5489
5230: CD 7F 59       CALL  $597F
5233: C9             RET   

5234: 06 03          LD    B,#$03
5236: 77             LD    (HL),A
5237: 23             INC   HL
5238: 10 FC          DJNZ  $5236

523a: C9             RET   


*** LC set up user data
LC_SET_UP_USER_AND_ENEMIES_C1E0_TO_C230?:
523b: 21 38 FC       LD    HL,$FC38
523e: 16 04          LD    D,#$04
5240: CD 1A 5A       CALL  LC_DRAW_D_INTO_LC_RAM_DATA_STRUCTURE
5243: 21 38 FC       LD    HL,$FC38
5246: 22 E0 C1       LD    (LC_USER_TRAIL_POSITION_VECTOR),HL
5249: CD 95 59       CALL  LC_(HL-F800)/2_RETURN_HOW_MANY_0x20s_IN_A
524c: 21 FD C1       LD    HL,LC_USER_?1
524f: 77             LD    (HL),A
5250: 11 03 C2       LD    DE,LC_USER_X
5253: CD E8 52       CALL  $52E8
5256: 21 FE C1       LD    HL,LC_USER_?2
5259: 71             LD    (HL),C
525a: 11 07 C2       LD    DE,LC_USER_Y
525d: CD F6 52       CALL  $52F6
5260: CD 8D 55       CALL  LC_DEPENDING_ON_USER_SPRITE_COPY_AND_INC/DEC_BETWEEN_C1F5_AND_C1FD
5263: 3A 10 C2       LD    A,(LC_ENEMIES_STILL_ALIVE_BITS_0_1_2)
5266: CB 47          BIT   0,A
5268: 28 25          JR    Z,$528F


*** LC set up enemy 1 data
526a: 21 0E FC       LD    HL,$FC0E
526d: 16 01          LD    D,#$01
526f: CD 1A 5A       CALL  LC_DRAW_D_INTO_LC_RAM_DATA_STRUCTURE
5272: 21 0E FC       LD    HL,$FC0E
5275: 22 E2 C1       LD    (LC_ENEMY_1_TRAIL_POSITION_VECTOR),HL
5278: CD 95 59       CALL  LC_(HL-F800)/2_RETURN_HOW_MANY_0x20s_IN_A
527b: 21 F7 C1       LD    HL,LC_ENEMY_1_?1
527e: 77             LD    (HL),A
527f: 11 00 C2       LD    DE,LC_ENEMY_1_X
5282: CD E8 52       CALL  $52E8
5285: 21 FA C1       LD    HL,LC_ENEMY_1_?2
5288: 71             LD    (HL),C
5289: 11 04 C2       LD    DE,LC_ENEMY_1_Y
528c: CD F6 52       CALL  $52F6
528f: 3A 10 C2       LD    A,(LC_ENEMIES_STILL_ALIVE_BITS_0_1_2)
5292: CB 4F          BIT   1,A
5294: 28 25          JR    Z,$52BB


*** LC set up enemy 2 data
5296: 21 4E FB       LD    HL,$FB4E
5299: 16 02          LD    D,#$02
529b: CD 1A 5A       CALL  LC_DRAW_D_INTO_LC_RAM_DATA_STRUCTURE
529e: 21 4E FB       LD    HL,$FB4E
52a1: 22 E4 C1       LD    (LC_ENEMY_2_TRAIL_POSITION_VECTOR),HL
52a4: CD 95 59       CALL  LC_(HL-F800)/2_RETURN_HOW_MANY_0x20s_IN_A
52a7: 21 F8 C1       LD    HL,LC_ENEMY_2_?1
52aa: 77             LD    (HL),A
52ab: 11 01 C2       LD    DE,LC_ENEMY_2_X
52ae: CD E8 52       CALL  $52E8
52b1: 21 FB C1       LD    HL,LC_ENEMY_2_?2
52b4: 71             LD    (HL),C
52b5: 11 05 C2       LD    DE,LC_ENEMY_2_Y
52b8: CD F6 52       CALL  $52F6
52bb: 3A 10 C2       LD    A,(LC_ENEMIES_STILL_ALIVE_BITS_0_1_2)
52be: CB 57          BIT   2,A
52c0: 28 25          JR    Z,$52E7


*** LC set up enemy 3 data
52c2: 21 CE FC       LD    HL,$FCCE
52c5: 16 03          LD    D,#$03
52c7: CD 1A 5A       CALL  LC_DRAW_D_INTO_LC_RAM_DATA_STRUCTURE
52ca: 21 CE FC       LD    HL,$FCCE
52cd: 22 E6 C1       LD    (LC_ENEMY_3_TRAIL_POSITION_VECTOR),HL
52d0: CD 95 59       CALL  LC_(HL-F800)/2_RETURN_HOW_MANY_0x20s_IN_A
52d3: 21 F9 C1       LD    HL,LC_ENEMY_3_?1
52d6: 77             LD    (HL),A
52d7: 11 02 C2       LD    DE,LC_ENEMY_3_X
52da: CD E8 52       CALL  $52E8
52dd: 21 FC C1       LD    HL,LC_ENEMY_3_?2
52e0: 71             LD    (HL),C
52e1: 11 06 C2       LD    DE,LC_ENEMY_3_Y
52e4: CD F6 52       CALL  $52F6
52e7: C9             RET   

52e8: 3E 1F          LD    A,#$1F
52ea: 46             LD    B,(HL)
52eb: 90             SUB   A,B
52ec: CB 27          SLA   A
52ee: CB 27          SLA   A
52f0: CB 27          SLA   A
52f2: EB             EX    DE,HL
52f3: 86             ADD   A,(HL)
52f4: 77             LD    (HL),A
52f5: C9             RET   

52f6: 7E             LD    A,(HL)
52f7: CB 27          SLA   A
52f9: CB 27          SLA   A
52fb: CB 27          SLA   A
52fd: EB             EX    DE,HL
52fe: 86             ADD   A,(HL)
52ff: 77             LD    (HL),A
5300: C9             RET   

5301: ED 5B EE C1    LD    DE,($C1EE)
5305: 7A             LD    A,D
5306: B3             OR    A,E
5307: C8             RET   Z

5308: 15             DEC   D
5309: 20 0F          JR    NZ,$531A

530b: 1D             DEC   E
530c: 28 02          JR    Z,$5310

530e: 16 0F          LD    D,#$0F
5310: CD D4 57       CALL  $57D4
5313: 3A 09 C2       LD    A,(LC_TRIGGER_PULLED_AND_UP_DOWN_VS_LEFT_RIGHT)
5316: 4F             LD    C,A
5317: CD B8 6F       CALL  PUT_C_ON_STACK_TO_SEND_TO_AUDIO
531a: ED 53 EE C1    LD    ($C1EE),DE
531e: C9             RET   

531f: 3A 10 C2       LD    A,(LC_ENEMIES_STILL_ALIVE_BITS_0_1_2)
5322: E6 0F          AND   A,#$0F
5324: C8             RET   Z

5325: 3A F0 C1       LD    A,($C1F0)
5328: B7             OR    A,A
5329: C0             RET   NZ

532a: 21 0F C2       LD    HL,$C20F
532d: AF             XOR   A,A
532e: BE             CP    A,(HL)
532f: C2 4B 54       JP    NZ,$544B

5332: 3A 7B C4       LD    A,(IN_ATTRACT_MODE?)
5335: B7             OR    A,A
5336: C2 4B 54       JP    NZ,$544B

5339: 3A 87 C6       LD    A,(FLIP_SCREEN_IF_VALUE_IS_01)
533c: B7             OR    A,A
533d: 20 06          JR    NZ,$5345

533f: 0E 00          LD    C,#$00
5341: 06 10          LD    B,#$10
5343: 18 04          JR    $5349

5345: 0E 03          LD    C,#$03
5347: 06 80          LD    B,#$80
5349: ED 78          IN    A,(C)
534b: A0             AND   A,B
534c: 21 0D C2       LD    HL,LC_TRIGGER_STATE_0_IS_PULLED
534f: BE             CP    A,(HL)
5350: 28 04          JR    Z,$5356

5352: 21 08 C2       LD    HL,$C208
5355: 34             INC   (HL)
5356: 32 0D C2       LD    (LC_TRIGGER_STATE_0_IS_PULLED),A
5359: DB 02          IN    A,(IO_2)
535b: 2F             CPL   
535c: 6F             LD    L,A
535d: 3A 87 C6       LD    A,(FLIP_SCREEN_IF_VALUE_IS_01)
5360: B7             OR    A,A
5361: 7D             LD    A,L
5362: 28 08          JR    Z,$536C

5364: CB 3F          SRL   A
5366: CB 3F          SRL   A
5368: CB 3F          SRL   A
536a: CB 3F          SRL   A
536c: E6 0F          AND   A,#$0F
536e: CA 4B 54       JP    Z,$544B

5371: 21 0A C2       LD    HL,$C20A
5374: CB 5E          BIT   3,(HL)
5376: 20 04          JR    NZ,$537C

5378: CB 56          BIT   2,(HL)
537a: 28 04          JR    Z,$5380

537c: E6 03          AND   A,#$03
537e: 18 02          JR    $5382

5380: E6 0C          AND   A,#$0C
5382: CA 4B 54       JP    Z,$544B

5385: 32 0A C2       LD    ($C20A),A
5388: 21 08 C2       LD    HL,$C208
538b: 34             INC   (HL)
538c: CB 47          BIT   0,A
538e: 20 75          JR    NZ,$5405

5390: CB 4F          BIT   1,A
5392: 20 4C          JR    NZ,$53E0

5394: CB 57          BIT   2,A
5396: 20 24          JR    NZ,$53BC

5398: 3E ED          LD    A,#$ED
539a: 32 ED C1       LD    (LC_USER_SPRITE),A
539d: 3A 07 C2       LD    A,(LC_USER_Y)
53a0: CD 75 54       CALL  $5475
53a3: 32 07 C2       LD    (LC_USER_Y),A
53a6: 21 0F C2       LD    HL,$C20F
53a9: AF             XOR   A,A
53aa: BE             CP    A,(HL)
53ab: C0             RET   NZ

53ac: 21 14 C2       LD    HL,$C214
53af: CD 6B 58       CALL  $586B
53b2: 21 FE C1       LD    HL,LC_USER_?2
53b5: 34             INC   (HL)
53b6: 4E             LD    C,(HL)
53b7: 3A FD C1       LD    A,(LC_USER_?1)
53ba: 18 6C          JR    $5428

53bc: 3E 2D          LD    A,#$2D         ;LC user up (2D)
53be: 32 ED C1       LD    (LC_USER_SPRITE),A
53c1: 3A 07 C2       LD    A,(LC_USER_Y)
53c4: CD 7A 54       CALL  $547A
53c7: 32 07 C2       LD    (LC_USER_Y),A
53ca: 21 0F C2       LD    HL,$C20F
53cd: AF             XOR   A,A
53ce: BE             CP    A,(HL)
53cf: C0             RET   NZ

53d0: 21 14 C2       LD    HL,$C214
53d3: CD 73 58       CALL  $5873
53d6: 21 FE C1       LD    HL,LC_USER_?2
53d9: 35             DEC   (HL)
53da: 4E             LD    C,(HL)
53db: 3A FD C1       LD    A,(LC_USER_?1)
53de: 18 48          JR    $5428

53e0: 3E 2E          LD    A,#$2E
53e2: 32 ED C1       LD    (LC_USER_SPRITE),A
53e5: 3A 03 C2       LD    A,(LC_USER_X)
53e8: CD 75 54       CALL  $5475
53eb: 32 03 C2       LD    (LC_USER_X),A
53ee: 21 0F C2       LD    HL,$C20F
53f1: AF             XOR   A,A
53f2: BE             CP    A,(HL)
53f3: C0             RET   NZ

53f4: 21 13 C2       LD    HL,$C213
53f7: CD 6B 58       CALL  $586B
53fa: 21 FD C1       LD    HL,LC_USER_?1
53fd: 35             DEC   (HL)
53fe: 3A FE C1       LD    A,(LC_USER_?2)
5401: 4F             LD    C,A
5402: 7E             LD    A,(HL)
5403: 18 23          JR    $5428

5405: 3E EE          LD    A,#$EE
5407: 32 ED C1       LD    (LC_USER_SPRITE),A
540a: 3A 03 C2       LD    A,(LC_USER_X)
540d: CD 7A 54       CALL  $547A
5410: 32 03 C2       LD    (LC_USER_X),A
5413: 21 0F C2       LD    HL,$C20F
5416: AF             XOR   A,A
5417: BE             CP    A,(HL)
5418: C0             RET   NZ

5419: 21 13 C2       LD    HL,$C213
541c: CD 73 58       CALL  $5873
541f: 21 FD C1       LD    HL,LC_USER_?1
5422: 34             INC   (HL)
5423: 3A FE C1       LD    A,(LC_USER_?2)
5426: 4F             LD    C,A
5427: 7E             LD    A,(HL)
5428: F5             PUSH  AF
5429: C5             PUSH  BC
542a: CD E5 59       CALL  LC_DRAW_A_TRAIL?
542d: A7             AND   A,A
542e: 20 3A          JR    NZ,$546A

5430: CD 8D 55       CALL  LC_DEPENDING_ON_USER_SPRITE_COPY_AND_INC/DEC_BETWEEN_C1F5_AND_C1FD
5433: CD 51 57       CALL  $5751
5436: CD 7B 58       CALL  $587B
5439: C1             POP   BC
543a: F1             POP   AF
543b: F5             PUSH  AF
543c: C5             PUSH  BC
543d: CD A9 59       CALL  $59A9
5440: 22 E0 C1       LD    (LC_USER_TRAIL_POSITION_VECTOR),HL
5443: C1             POP   BC
5444: F1             POP   AF
5445: 16 04          LD    D,#$04
5447: CD F4 59       CALL  $59F4
544a: C9             RET   

544b: 3A ED C1       LD    A,(LC_USER_SPRITE)
544e: 21 11 C2       LD    HL,$C211
5451: FE 2D          CP    A,#$2D         ;LC user up (2D)
5453: 36 00          LD    (HL),#$00
5455: CA BC 53       JP    Z,$53BC

5458: FE ED          CP    A,#$ED         ;LC user down (ED)
545a: 36 01          LD    (HL),#$01
545c: CA 98 53       JP    Z,$5398

545f: FE EE          CP    A,#$EE         ;LC user left (EE)
5461: 36 03          LD    (HL),#$03
5463: 28 A0          JR    Z,$5405

5465: 36 02          LD    (HL),#$02
5467: C3 E0 53       JP    $53E0

546a: 3A E8 C1       LD    A,($C1E8)
546d: CB C7          SET   0,A
546f: 32 E8 C1       LD    ($C1E8),A
5472: E1             POP   HL
5473: E1             POP   HL
5474: C9             RET   

5475: CD 7F 54       CALL  $547F
5478: 80             ADD   A,B
5479: C9             RET   

547a: CD 7F 54       CALL  $547F
547d: 90             SUB   A,B
547e: C9             RET   

547f: 06 08          LD    B,#$08
5481: CB 58          BIT   3,B
5483: 06 02          LD    B,#$02
5485: C8             RET   Z

5486: 06 01          LD    B,#$01
5488: C9             RET   

5489: 3A F0 C1       LD    A,($C1F0)
548c: B7             OR    A,A
548d: C0             RET   NZ

548e: 3A E8 C1       LD    A,($C1E8)
5491: CB 47          BIT   0,A
5493: 28 4C          JR    Z,$54E1

5495: CD D4 57       CALL  $57D4
5498: 0E 19          LD    C,#$19
549a: CD B8 6F       CALL  PUT_C_ON_STACK_TO_SEND_TO_AUDIO
549d: 3E 04          LD    A,#$04
549f: CD 51 55       CALL  LC_ERASE_TRAIL_OF_DESTROYED_LC
54a2: 21 F4 C1       LD    HL,$C1F4
54a5: 36 08          LD    (HL),#$08
54a7: 21 ED C1       LD    HL,LC_USER_SPRITE
54aa: 36 00          LD    (HL),#$00
54ac: 21 F0 C1       LD    HL,$C1F0
54af: 34             INC   (HL)
54b0: C9             RET   

54b1: CD 01 59       CALL  $5901
54b4: 3A E8 C1       LD    A,($C1E8)
54b7: CB 47          BIT   0,A
54b9: 20 0B          JR    NZ,$54C6

54bb: CD D4 57       CALL  $57D4
54be: 0E 25          LD    C,#$25
54c0: 06 60          LD    B,#$60
54c2: 3E 01          LD    A,#$01
54c4: 18 0A          JR    $54D0

54c6: AF             XOR   A,A
54c7: 32 08 C4       LD    ($C408),A
54ca: 3E 02          LD    A,#$02
54cc: 0E 27          LD    C,#$27
54ce: 06 80          LD    B,#$80
54d0: 32 07 C4       LD    ($C407),A
54d3: 78             LD    A,B
54d4: 32 22 C2       LD    ($C222),A
54d7: CD B8 6F       CALL  PUT_C_ON_STACK_TO_SEND_TO_AUDIO
54da: 3E 78          LD    A,#$78
54dc: 32 6E C4       LD    ($C46E),A
54df: E1             POP   HL
54e0: C9             RET   

54e1: 3A E8 C1       LD    A,($C1E8)
54e4: CB 4F          BIT   1,A
54e6: 28 15          JR    Z,$54FD

54e8: CB 8F          RES   1,A
54ea: 32 E8 C1       LD    ($C1E8),A
54ed: 11 00 00       LD    DE,$0000
54f0: CD 35 55       CALL  $5535
54f3: 3E 01          LD    A,#$01
54f5: CD 51 55       CALL  LC_ERASE_TRAIL_OF_DESTROYED_LC
54f8: 21 10 C2       LD    HL,LC_ENEMIES_STILL_ALIVE_BITS_0_1_2
54fb: CB 86          RES   0,(HL)
54fd: 3A E8 C1       LD    A,($C1E8)
5500: CB 57          BIT   2,A
5502: 28 15          JR    Z,$5519

5504: CB 97          RES   2,A
5506: 32 E8 C1       LD    ($C1E8),A
5509: 11 01 00       LD    DE,$0001
550c: CD 35 55       CALL  $5535
550f: 3E 02          LD    A,#$02
5511: CD 51 55       CALL  LC_ERASE_TRAIL_OF_DESTROYED_LC
5514: 21 10 C2       LD    HL,LC_ENEMIES_STILL_ALIVE_BITS_0_1_2
5517: CB 8E          RES   1,(HL)
5519: 3A E8 C1       LD    A,($C1E8)
551c: CB 5F          BIT   3,A
551e: C8             RET   Z

551f: CB 9F          RES   3,A
5521: 32 E8 C1       LD    ($C1E8),A
5524: 11 02 00       LD    DE,$0002
5527: CD 35 55       CALL  $5535
552a: 3E 03          LD    A,#$03
552c: CD 51 55       CALL  LC_ERASE_TRAIL_OF_DESTROYED_LC
552f: 21 10 C2       LD    HL,LC_ENEMIES_STILL_ALIVE_BITS_0_1_2
5532: CB 96          RES   2,(HL)
5534: C9             RET   

5535: 21 F1 C1       LD    HL,$C1F1
5538: 19             ADD   HL,DE
5539: 36 08          LD    (HL),#$08
553b: 21 EA C1       LD    HL,LC_ENEMY_1_SPRITE
553e: 19             ADD   HL,DE
553f: 36 00          LD    (HL),#$00
5541: 0E 0E          LD    C,#$0E
5543: CD B8 6F       CALL  PUT_C_ON_STACK_TO_SEND_TO_AUDIO
5546: 21 4C 55       LD    HL,DATA_USED_FOR_???_TO_5550
5549: C3 52 6F       JP    PROCESS_HIT_ON_TANK_SPIDER_MCP_BLOCK_OR_LC

DATA_USED_FOR_???_TO_5550:
554c: 00 00 05 00 00 

LC_ERASE_TRAIL_OF_DESTROYED_LC:
5551: 11 00 89       LD    DE,BACKGROUND_LC
5554: 21 00 F8       LD    HL,BACKGROUND_VIDEO_RAM_TO_FF7F
5557: 01 80 07       LD    BC,$0780
555a: 32 E9 C1       LD    (LC_WHICH_LC_TO_DESTROY),A
555d: E5             PUSH  HL
555e: D5             PUSH  DE
555f: C5             PUSH  BC
5560: CD C2 59       CALL  $59C2
5563: 47             LD    B,A
5564: 3A E9 C1       LD    A,(LC_WHICH_LC_TO_DESTROY)
5567: B8             CP    A,B
5568: 28 0E          JR    Z,$5578

556a: C1             POP   BC
556b: D1             POP   DE
556c: E1             POP   HL
556d: 23             INC   HL
556e: 23             INC   HL
556f: 13             INC   DE
5570: 13             INC   DE
5571: 0B             DEC   BC
5572: 0B             DEC   BC
5573: 78             LD    A,B
5574: B1             OR    A,C
5575: 20 E6          JR    NZ,$555D

5577: C9             RET   

5578: C1             POP   BC
5579: E1             POP   HL
557a: D1             POP   DE
557b: ED A0          LDI   
557d: ED A0          LDI   
557f: EB             EX    DE,HL
5580: E5             PUSH  HL
5581: D5             PUSH  DE
5582: 2B             DEC   HL
5583: 2B             DEC   HL
5584: 16 00          LD    D,#$00
5586: CD 1A 5A       CALL  LC_DRAW_D_INTO_LC_RAM_DATA_STRUCTURE
5589: D1             POP   DE
558a: E1             POP   HL
558b: 18 D0          JR    $555D

LC_DEPENDING_ON_USER_SPRITE_COPY_AND_INC/DEC_BETWEEN_C1F5_AND_C1FD:
558d: 3A ED C1       LD    A,(LC_USER_SPRITE)
5590: 21 F5 C1       LD    HL,$C1F5
5593: 11 F6 C1       LD    DE,$C1F6
5596: 01 FE C1       LD    BC,LC_USER_?2
5599: FE 2D          CP    A,#$2D         ;LC user up (2D)
559b: 28 10          JR    Z,$55AD

559d: FE ED          CP    A,#$ED         ;LC user down (ED)
559f: 28 14          JR    Z,$55B5

55a1: FE EE          CP    A,#$EE         ;LC user left (EE)
55a3: 28 18          JR    Z,$55BD

55a5: 3A FD C1       LD    A,(LC_USER_?1)
55a8: 3D             DEC   A
55a9: 77             LD    (HL),A
55aa: 0A             LD    A,(BC)
55ab: 12             LD    (DE),A
55ac: C9             RET   

55ad: 0A             LD    A,(BC)
55ae: 3D             DEC   A
55af: 12             LD    (DE),A
55b0: 3A FD C1       LD    A,(LC_USER_?1)
55b3: 77             LD    (HL),A
55b4: C9             RET   

55b5: 0A             LD    A,(BC)
55b6: 3C             INC   A
55b7: 12             LD    (DE),A
55b8: 3A FD C1       LD    A,(LC_USER_?1)
55bb: 77             LD    (HL),A
55bc: C9             RET   

55bd: 3A FD C1       LD    A,(LC_USER_?1)
55c0: 3C             INC   A
55c1: 77             LD    (HL),A
55c2: 0A             LD    A,(BC)
55c3: 12             LD    (DE),A
55c4: C9             RET   

55c5: 3A 10 C2       LD    A,(LC_ENEMIES_STILL_ALIVE_BITS_0_1_2)
55c8: CB 47          BIT   0,A
55ca: C8             RET   Z

55cb: 01 00 00       LD    BC,$0000
55ce: 18 16          JR    $55E6

55d0: 3A 10 C2       LD    A,(LC_ENEMIES_STILL_ALIVE_BITS_0_1_2)
55d3: CB 4F          BIT   1,A
55d5: C8             RET   Z

55d6: 01 01 00       LD    BC,$0001
55d9: 18 0B          JR    $55E6

55db: 3A 10 C2       LD    A,(LC_ENEMIES_STILL_ALIVE_BITS_0_1_2)
55de: CB 57          BIT   2,A
55e0: C8             RET   Z

55e1: 01 02 00       LD    BC,$0002
55e4: 18 00          JR    $55E6

55e6: 3A F0 C1       LD    A,($C1F0)
55e9: B7             OR    A,A
55ea: C0             RET   NZ

55eb: ED 43 0B C2    LD    (LC_ENEMY_NUMBER_2_BYTES),BC
55ef: 21 0E C2       LD    HL,$C20E
55f2: AF             XOR   A,A
55f3: BE             CP    A,(HL)
55f4: 20 2C          JR    NZ,$5622

55f6: CD 27 5A       CALL  $5A27
55f9: 3A FF C1       LD    A,($C1FF)
55fc: 06 00          LD    B,#$00
55fe: B8             CP    A,B
55ff: CA AE 56       JP    Z,$56AE

5602: 04             INC   B
5603: B8             CP    A,B
5604: 28 39          JR    Z,$563F

5606: 04             INC   B
5607: B8             CP    A,B
5608: 28 5A          JR    Z,$5664

560a: 04             INC   B
560b: B8             CP    A,B
560c: 28 7B          JR    Z,$5689

560e: ED 4B 0B C2    LD    BC,(LC_ENEMY_NUMBER_2_BYTES)
5612: 0C             INC   C
5613: 41             LD    B,C
5614: 0E 01          LD    C,#$01
5616: CB 21          SLA   C
5618: 10 FC          DJNZ  $5616

561a: 3A E8 C1       LD    A,($C1E8)
561d: B1             OR    A,C
561e: 32 E8 C1       LD    ($C1E8),A
5621: C9             RET   

5622: 21 EA C1       LD    HL,LC_ENEMY_1_SPRITE
5625: 09             ADD   HL,BC
5626: 7E             LD    A,(HL)
5627: 21 15 C2       LD    HL,$C215
562a: 09             ADD   HL,BC
562b: FE 2F          CP    A,#$2F         ;LC enemy up (2F)
562d: 36 00          LD    (HL),#$00
562f: 28 7D          JR    Z,$56AE

5631: FE EF          CP    A,#$EF         ;LC enemy down (EF)
5633: 36 01          LD    (HL),#$01
5635: 28 2D          JR    Z,$5664

5637: FE 30          CP    A,#$30         ;LC enemy right (30)
5639: 36 02          LD    (HL),#$02
563b: 28 4C          JR    Z,$5689

563d: 36 03          LD    (HL),#$03
563f: 3E F0          LD    A,#$F0         ;LC enemy left (F0)
5641: CD 2F 57       CALL  $572F
5644: 21 00 C2       LD    HL,LC_ENEMY_1_X
5647: CD 39 57       CALL  $5739
564a: 21 0E C2       LD    HL,$C20E
564d: AF             XOR   A,A
564e: BE             CP    A,(HL)
564f: C0             RET   NZ

5650: 21 1B C2       LD    HL,$C21B
5653: 09             ADD   HL,BC
5654: CD 73 58       CALL  $5873
5657: 21 F7 C1       LD    HL,LC_ENEMY_1_?1
565a: 09             ADD   HL,BC
565b: 34             INC   (HL)
565c: 7E             LD    A,(HL)
565d: 21 FA C1       LD    HL,LC_ENEMY_1_?2
5660: 09             ADD   HL,BC
5661: 5E             LD    E,(HL)
5662: 18 6D          JR    $56D1

5664: 3E EF          LD    A,#$EF         ;LC enemy down (EF)
5666: CD 2F 57       CALL  $572F
5669: 21 04 C2       LD    HL,LC_ENEMY_1_Y
566c: CD 45 57       CALL  $5745
566f: 21 0E C2       LD    HL,$C20E
5672: AF             XOR   A,A
5673: BE             CP    A,(HL)
5674: C0             RET   NZ

5675: 21 1E C2       LD    HL,$C21E
5678: 09             ADD   HL,BC
5679: CD 6B 58       CALL  $586B
567c: 21 FA C1       LD    HL,LC_ENEMY_1_?2
567f: 09             ADD   HL,BC
5680: 34             INC   (HL)
5681: 5E             LD    E,(HL)
5682: 21 F7 C1       LD    HL,LC_ENEMY_1_?1
5685: 09             ADD   HL,BC
5686: 7E             LD    A,(HL)
5687: 18 48          JR    $56D1

5689: 3E 30          LD    A,#$30         ;LC enemy right (30)
568b: CD 2F 57       CALL  $572F
568e: 21 00 C2       LD    HL,LC_ENEMY_1_X
5691: CD 45 57       CALL  $5745
5694: 21 0E C2       LD    HL,$C20E
5697: AF             XOR   A,A
5698: BE             CP    A,(HL)
5699: C0             RET   NZ

569a: 21 1B C2       LD    HL,$C21B
569d: 09             ADD   HL,BC
569e: CD 6B 58       CALL  $586B
56a1: 21 F7 C1       LD    HL,LC_ENEMY_1_?1
56a4: 09             ADD   HL,BC
56a5: 35             DEC   (HL)
56a6: 7E             LD    A,(HL)
56a7: 21 FA C1       LD    HL,LC_ENEMY_1_?2
56aa: 09             ADD   HL,BC
56ab: 5E             LD    E,(HL)
56ac: 18 23          JR    $56D1

56ae: 3E 2F          LD    A,#$2F         ;LC enemy up (2F)
56b0: CD 2F 57       CALL  $572F
56b3: 21 04 C2       LD    HL,LC_ENEMY_1_Y
56b6: CD 39 57       CALL  $5739
56b9: 21 0E C2       LD    HL,$C20E
56bc: AF             XOR   A,A
56bd: BE             CP    A,(HL)
56be: C0             RET   NZ

56bf: 21 1E C2       LD    HL,$C21E
56c2: 09             ADD   HL,BC
56c3: CD 73 58       CALL  $5873
56c6: 21 FA C1       LD    HL,LC_ENEMY_1_?2
56c9: 09             ADD   HL,BC
56ca: 35             DEC   (HL)
56cb: 5E             LD    E,(HL)
56cc: 21 F7 C1       LD    HL,LC_ENEMY_1_?1
56cf: 09             ADD   HL,BC
56d0: 7E             LD    A,(HL)
56d1: 0C             INC   C
56d2: 51             LD    D,C
56d3: 4B             LD    C,E
56d4: F5             PUSH  AF
56d5: C5             PUSH  BC
56d6: CD F4 59       CALL  $59F4
56d9: CD F3 57       CALL  $57F3
56dc: CD 8B 58       CALL  $588B
56df: C1             POP   BC
56e0: F1             POP   AF
56e1: CD A9 59       CALL  $59A9
56e4: E5             PUSH  HL
56e5: ED 4B 0B C2    LD    BC,(LC_ENEMY_NUMBER_2_BYTES)
56e9: CB 21          SLA   C
56eb: 21 E2 C1       LD    HL,LC_ENEMY_1_TRAIL_POSITION_VECTOR
56ee: 09             ADD   HL,BC
56ef: C1             POP   BC
56f0: 71             LD    (HL),C
56f1: 23             INC   HL
56f2: 70             LD    (HL),B
56f3: C9             RET   


*** Rotate the data structure right 90 degrees to match what you see on the screen.
*** Each byte has two nybbles, one nybble for each screen background location.
*** 0 is no trail; 1,2, & 3 are enemy trails.  4 is User/Tron's trail.
*** Why separate trails for enemies?  Because the separate trail is erased when
*** a LC is destroyed!
*** Tron keeps track of the background RAM location that is being used for
*** each LC trail location.  This location has f800 subtracted, divided by 4 (?),
*** and C000 added to point to the correct location in the RAM data structure.
LC_SET_UP_BOUNDARIES_IN_RAM_DATA_STRUCTURE_FROM_C000_TO_C1DF:
56f4: 16 0F          LD    D,#$0F

*** Create right boundary in RAM
56f6: 21 00 F8       LD    HL,BACKGROUND_VIDEO_RAM_TO_FF7F
56f9: 06 20          LD    B,#$20
56fb: E5             PUSH  HL
56fc: CD 1A 5A       CALL  LC_DRAW_D_INTO_LC_RAM_DATA_STRUCTURE
56ff: E1             POP   HL
5700: 23             INC   HL
5701: 23             INC   HL
5702: 10 F7          DJNZ  $56FB


*** Create left boundary in RAM
5704: 21 40 FF       LD    HL,$FF40
5707: 06 20          LD    B,#$20
5709: E5             PUSH  HL
570a: CD 1A 5A       CALL  LC_DRAW_D_INTO_LC_RAM_DATA_STRUCTURE
570d: E1             POP   HL
570e: 23             INC   HL
570f: 23             INC   HL
5710: 10 F7          DJNZ  $5709


*** Create top boundary in RAM
5712: 21 48 F8       LD    HL,$F848
5715: CD 1F 57       CALL  $571F

*** Create bottom boundary in RAM
5718: 21 7E F8       LD    HL,$F87E
571b: CD 1F 57       CALL  $571F
571e: C9             RET   

571f: 06 1C          LD    B,#$1C
5721: E5             PUSH  HL
5722: CD 1A 5A       CALL  LC_DRAW_D_INTO_LC_RAM_DATA_STRUCTURE
5725: E1             POP   HL
5726: 11 40 00       LD    DE,$0040
5729: 19             ADD   HL,DE
572a: 16 0F          LD    D,#$0F
572c: 10 F3          DJNZ  $5721

572e: C9             RET   

572f: ED 4B 0B C2    LD    BC,(LC_ENEMY_NUMBER_2_BYTES)
5733: 21 EA C1       LD    HL,LC_ENEMY_1_SPRITE
5736: 09             ADD   HL,BC
5737: 77             LD    (HL),A
5738: C9             RET   

5739: 09             ADD   HL,BC
573a: 7E             LD    A,(HL)
573b: CD 7F 54       CALL  $547F
573e: 90             SUB   A,B
573f: 77             LD    (HL),A
5740: ED 4B 0B C2    LD    BC,(LC_ENEMY_NUMBER_2_BYTES)
5744: C9             RET   

5745: 09             ADD   HL,BC
5746: 7E             LD    A,(HL)
5747: CD 7F 54       CALL  $547F
574a: 80             ADD   A,B
574b: 77             LD    (HL),A
574c: ED 4B 0B C2    LD    BC,(LC_ENEMY_NUMBER_2_BYTES)
5750: C9             RET   

5751: 21 02 5C       LD    HL,$5C02
5754: 3A 12 C2       LD    A,($C212)
5757: 5F             LD    E,A
5758: 16 00          LD    D,#$00
575a: 19             ADD   HL,DE
575b: 7E             LD    A,(HL)
575c: 47             LD    B,A
575d: CB 27          SLA   A
575f: CB 27          SLA   A
5761: CB 20          SLA   B
5763: 80             ADD   A,B
5764: F5             PUSH  AF
5765: 3A ED C1       LD    A,(LC_USER_SPRITE)
5768: FE 2D          CP    A,#$2D         ;LC user up (2D)
576a: 06 00          LD    B,#$00
576c: 28 0E          JR    Z,$577C

576e: FE ED          CP    A,#$ED         ;LC user down (ED)
5770: 06 01          LD    B,#$01
5772: 28 08          JR    Z,$577C

5774: FE 2E          CP    A,#$2E         ;LC user right (2E)
5776: 06 02          LD    B,#$02
5778: 28 02          JR    Z,$577C

577a: 06 03          LD    B,#$03
577c: 3A 08 C2       LD    A,($C208)
577f: B7             OR    A,A
5780: 28 24          JR    Z,$57A6

5782: CD D4 57       CALL  $57D4
5785: AF             XOR   A,A
5786: 32 08 C2       LD    ($C208),A
5789: 1E 00          LD    E,#$00
578b: CB 48          BIT   1,B
578d: 28 02          JR    Z,$5791

578f: 1E 02          LD    E,#$02
5791: 3A 0D C2       LD    A,(LC_TRIGGER_STATE_0_IS_PULLED)
5794: B7             OR    A,A
5795: 20 01          JR    NZ,$5798

5797: 1C             INC   E
5798: 16 00          LD    D,#$00
579a: 21 EF 57       LD    HL,LC_DATA_FOR_TRIGGER_PULLED_AND_UP_DOWN_VS_LEFT_RIGHT
579d: 19             ADD   HL,DE
579e: 4E             LD    C,(HL)
579f: 21 09 C2       LD    HL,LC_TRIGGER_PULLED_AND_UP_DOWN_VS_LEFT_RIGHT
57a2: 71             LD    (HL),C
57a3: CD B8 6F       CALL  PUT_C_ON_STACK_TO_SEND_TO_AUDIO
57a6: CB 20          SLA   B
57a8: CB 20          SLA   B
57aa: 3A 11 C2       LD    A,($C211)
57ad: 80             ADD   A,B
57ae: 21 0B 5C       LD    HL,$5C0B
57b1: 5F             LD    E,A
57b2: 16 00          LD    D,#$00
57b4: 19             ADD   HL,DE
57b5: 46             LD    B,(HL)
57b6: F1             POP   AF
57b7: 80             ADD   A,B
57b8: CB 27          SLA   A
57ba: 21 62 5B       LD    HL,$5B62
57bd: 5F             LD    E,A
57be: 16 00          LD    D,#$00
57c0: 19             ADD   HL,DE
57c1: 11 34 C2       LD    DE,$C234
57c4: ED A0          LDI   
57c6: ED A0          LDI   
57c8: AF             XOR   A,A
57c9: 12             LD    (DE),A
57ca: 11 34 C2       LD    DE,$C234
57cd: ED 4B E0 C1    LD    BC,(LC_USER_TRAIL_POSITION_VECTOR)
57d1: C3 7E 70       JP    ADD_MESSAGE_TO_Q2

57d4: 3A 09 C2       LD    A,(LC_TRIGGER_PULLED_AND_UP_DOWN_VS_LEFT_RIGHT)
57d7: FE 1F          CP    A,#$1F
57d9: 0E 20          LD    C,#$20
57db: 28 0E          JR    Z,$57EB

57dd: FE 1D          CP    A,#$1D
57df: 0E 1E          LD    C,#$1E
57e1: 28 08          JR    Z,$57EB

57e3: FE 0A          CP    A,#$0A
57e5: 0E 1C          LD    C,#$1C
57e7: 28 02          JR    Z,$57EB

57e9: 0E 1B          LD    C,#$1B
57eb: CD B8 6F       CALL  PUT_C_ON_STACK_TO_SEND_TO_AUDIO
57ee: C9             RET   


*** 1F = Up/down
*** 1D = Trigger and up/down
*** 0A = Left/right
*** 09 = Trigger and left/right
LC_DATA_FOR_TRIGGER_PULLED_AND_UP_DOWN_VS_LEFT_RIGHT:
57ef: 1F 1D 0A 09 

57f3: ED 4B 0B C2    LD    BC,(LC_ENEMY_NUMBER_2_BYTES)
57f7: 21 18 C2       LD    HL,$C218
57fa: 09             ADD   HL,BC
57fb: 7E             LD    A,(HL)
57fc: 21 02 5C       LD    HL,$5C02
57ff: 5F             LD    E,A
5800: 16 00          LD    D,#$00
5802: 19             ADD   HL,DE
5803: 7E             LD    A,(HL)
5804: 57             LD    D,A
5805: CB 27          SLA   A
5807: CB 27          SLA   A
5809: CB 22          SLA   D
580b: 82             ADD   A,D
580c: F5             PUSH  AF
580d: 21 EA C1       LD    HL,LC_ENEMY_1_SPRITE
5810: 09             ADD   HL,BC
5811: 7E             LD    A,(HL)
5812: FE 2F          CP    A,#$2F         ;LC enemy up (2F)
5814: 16 00          LD    D,#$00
5816: 28 0E          JR    Z,$5826

5818: FE EF          CP    A,#$EF         ;LC enemy down (EF)
581a: 16 01          LD    D,#$01
581c: 28 08          JR    Z,$5826

581e: FE 30          CP    A,#$30         ;LC enemy right (30)
5820: 16 02          LD    D,#$02
5822: 28 02          JR    Z,$5826

5824: 16 03          LD    D,#$03
5826: CB 22          SLA   D
5828: CB 22          SLA   D
582a: 21 15 C2       LD    HL,$C215
582d: 09             ADD   HL,BC
582e: 7E             LD    A,(HL)
582f: 82             ADD   A,D
5830: 21 0B 5C       LD    HL,$5C0B
5833: 5F             LD    E,A
5834: 16 00          LD    D,#$00
5836: 19             ADD   HL,DE
5837: 56             LD    D,(HL)
5838: F1             POP   AF
5839: 82             ADD   A,D
583a: CB 27          SLA   A
583c: 21 92 5B       LD    HL,$5B92
583f: 5F             LD    E,A
5840: 16 00          LD    D,#$00
5842: 19             ADD   HL,DE
5843: E5             PUSH  HL
5844: CB 21          SLA   C
5846: 21 E2 C1       LD    HL,LC_ENEMY_1_TRAIL_POSITION_VECTOR
5849: 09             ADD   HL,BC
584a: 4E             LD    C,(HL)
584b: 23             INC   HL
584c: 46             LD    B,(HL)
584d: 21 37 C2       LD    HL,$C237
5850: ED 5B 0B C2    LD    DE,(LC_ENEMY_NUMBER_2_BYTES)
5854: 19             ADD   HL,DE
5855: 19             ADD   HL,DE
5856: 19             ADD   HL,DE
5857: 22 0B C4       LD    (MCP_RAM_DATA_OF_BLOCK_HIT_BY_DISK),HL
585a: EB             EX    DE,HL
585b: E1             POP   HL
585c: C5             PUSH  BC
585d: ED A0          LDI   
585f: ED A0          LDI   
5861: C1             POP   BC
5862: AF             XOR   A,A
5863: 12             LD    (DE),A
5864: ED 5B 0B C4    LD    DE,(MCP_RAM_DATA_OF_BLOCK_HIT_BY_DISK)
5868: C3 7E 70       JP    ADD_MESSAGE_TO_Q2

586b: 34             INC   (HL)
586c: 3E 03          LD    A,#$03
586e: BE             CP    A,(HL)
586f: C0             RET   NZ

5870: 36 00          LD    (HL),#$00
5872: C9             RET   

5873: 35             DEC   (HL)
5874: 3E FF          LD    A,#$FF
5876: BE             CP    A,(HL)
5877: C0             RET   NZ

5878: 36 02          LD    (HL),#$02
587a: C9             RET   

587b: 3A 14 C2       LD    A,($C214)
587e: 47             LD    B,A
587f: CB 27          SLA   A
5881: 80             ADD   A,B
5882: 47             LD    B,A
5883: 3A 13 C2       LD    A,($C213)
5886: 80             ADD   A,B
5887: 32 12 C2       LD    ($C212),A
588a: C9             RET   

588b: 21 1E C2       LD    HL,$C21E
588e: ED 4B 0B C2    LD    BC,(LC_ENEMY_NUMBER_2_BYTES)
5892: 09             ADD   HL,BC
5893: 7E             LD    A,(HL)
5894: 57             LD    D,A
5895: CB 27          SLA   A
5897: 82             ADD   A,D
5898: 57             LD    D,A
5899: 21 1B C2       LD    HL,$C21B
589c: 09             ADD   HL,BC
589d: 7E             LD    A,(HL)
589e: 82             ADD   A,D
589f: 21 18 C2       LD    HL,$C218
58a2: 09             ADD   HL,BC
58a3: 77             LD    (HL),A
58a4: C9             RET   

58a5: 11 00 00       LD    DE,$0000
58a8: CD D2 58       CALL  $58D2
58ab: 13             INC   DE
58ac: CD D2 58       CALL  $58D2
58af: 13             INC   DE
58b0: CD D2 58       CALL  $58D2
58b3: 13             INC   DE
58b4: CD D2 58       CALL  $58D2
58b7: 21 F1 C1       LD    HL,$C1F1
58ba: 7E             LD    A,(HL)
58bb: 23             INC   HL
58bc: B6             OR    A,(HL)
58bd: 23             INC   HL
58be: B6             OR    A,(HL)
58bf: 23             INC   HL
58c0: B6             OR    A,(HL)
58c1: C0             RET   NZ

58c2: 3A 10 C2       LD    A,(LC_ENEMIES_STILL_ALIVE_BITS_0_1_2)
58c5: E6 0F          AND   A,#$0F
58c7: CA B1 54       JP    Z,$54B1

58ca: 3A F0 C1       LD    A,($C1F0)
58cd: B7             OR    A,A
58ce: C2 B1 54       JP    NZ,$54B1

58d1: C9             RET   

58d2: 21 F1 C1       LD    HL,$C1F1
58d5: 19             ADD   HL,DE
58d6: 7E             LD    A,(HL)
58d7: B7             OR    A,A
58d8: C8             RET   Z

58d9: 3D             DEC   A
58da: 77             LD    (HL),A
58db: 20 11          JR    NZ,$58EE

58dd: 21 00 C2       LD    HL,LC_ENEMY_1_X
58e0: 19             ADD   HL,DE
58e1: 77             LD    (HL),A
58e2: 21 04 C2       LD    HL,LC_ENEMY_1_Y
58e5: 19             ADD   HL,DE
58e6: 77             LD    (HL),A
58e7: 21 EA C1       LD    HL,LC_ENEMY_1_SPRITE
58ea: 19             ADD   HL,DE
58eb: 36 3F          LD    (HL),#$3F
58ed: C9             RET   

58ee: FE 02          CP    A,#$02
58f0: 20 08          JR    NZ,$58FA

58f2: 3E 00          LD    A,#$00
58f4: 21 EA C1       LD    HL,LC_ENEMY_1_SPRITE
58f7: 19             ADD   HL,DE
58f8: 77             LD    (HL),A
58f9: C9             RET   

58fa: FE 06          CP    A,#$06
58fc: 3E 02          LD    A,#$02
58fe: 28 F4          JR    Z,$58F4

5900: C9             RET   

5901: DD 21 04 F0    LD    IX,TANK_BODY_OR_LC_OR_IO_OR_MCP_TRON_AND_DISK_TORSO_LEGS_LEFT_DISK_RIGHT
5905: 3A 03 C2       LD    A,(LC_USER_X)
5908: CD 65 71       CALL  ADJUST_SPRITE_Y_IF_FLIPPED_SCREEN
590b: DD 77 00       LD    (IX+$00),A
590e: 3A 07 C2       LD    A,(LC_USER_Y)
5911: CD 59 71       CALL  ADJUST_SPRITE_X_IF_FLIPPED_SCREEN
5914: DD 77 02       LD    (IX+$02),A
5917: 3A 00 C2       LD    A,(LC_ENEMY_1_X)
591a: CD 65 71       CALL  ADJUST_SPRITE_Y_IF_FLIPPED_SCREEN
591d: DD 77 04       LD    (IX+$04),A
5920: 3A 04 C2       LD    A,(LC_ENEMY_1_Y)
5923: CD 59 71       CALL  ADJUST_SPRITE_X_IF_FLIPPED_SCREEN
5926: DD 77 06       LD    (IX+$06),A
5929: 3A 01 C2       LD    A,(LC_ENEMY_2_X)
592c: CD 65 71       CALL  ADJUST_SPRITE_Y_IF_FLIPPED_SCREEN
592f: DD 77 08       LD    (IX+$08),A
5932: 3A 05 C2       LD    A,(LC_ENEMY_2_Y)
5935: CD 59 71       CALL  ADJUST_SPRITE_X_IF_FLIPPED_SCREEN
5938: DD 77 0A       LD    (IX+$0A),A
593b: 3A 02 C2       LD    A,(LC_ENEMY_3_X)
593e: CD 65 71       CALL  ADJUST_SPRITE_Y_IF_FLIPPED_SCREEN
5941: DD 77 0C       LD    (IX+$0C),A
5944: 3A 06 C2       LD    A,(LC_ENEMY_3_Y)
5947: CD 59 71       CALL  ADJUST_SPRITE_X_IF_FLIPPED_SCREEN
594a: DD 77 0E       LD    (IX+$0E),A
594d: 3A ED C1       LD    A,(LC_USER_SPRITE)
5950: DD 77 01       LD    (IX+$01),A
5953: 3A EA C1       LD    A,(LC_ENEMY_1_SPRITE)
5956: DD 77 05       LD    (IX+$05),A
5959: 3A EB C1       LD    A,(LC_ENEMY_2_SPRITE)
595c: DD 77 09       LD    (IX+$09),A
595f: 3A EC C1       LD    A,(LC_ENEMY_3_SPRITE)
5962: DD 77 0D       LD    (IX+$0D),A
5965: 3A 22 C2       LD    A,($C222)
5968: B7             OR    A,A
5969: C0             RET   NZ

596a: 3A 03 C2       LD    A,(LC_USER_X)
596d: CB 3F          SRL   A
596f: CB 3F          SRL   A
5971: E6 38          AND   A,#$38
5973: 21 33 C2       LD    HL,$C233
5976: BE             CP    A,(HL)
5977: C8             RET   Z

5978: 77             LD    (HL),A
5979: F6 44          OR    A,#$44
597b: 32 6E C4       LD    ($C46E),A
597e: C9             RET   

597f: 3E 08          LD    A,#$08
5981: 21 0F C2       LD    HL,$C20F
5984: 34             INC   (HL)
5985: BE             CP    A,(HL)
5986: C0             RET   NZ

5987: 36 00          LD    (HL),#$00
5989: C9             RET   

LC_INC_C20E_IF_08_SET_TO_00:
598a: 3E 08          LD    A,#$08
598c: 21 0E C2       LD    HL,$C20E
598f: 34             INC   (HL)
5990: BE             CP    A,(HL)
5991: C0             RET   NZ

5992: 36 00          LD    (HL),#$00
5994: C9             RET   

LC_(HL-F800)/2_RETURN_HOW_MANY_0x20s_IN_A:
5995: AF             XOR   A,A
5996: 11 00 F8       LD    DE,BACKGROUND_VIDEO_RAM_TO_FF7F
5999: ED 52          SBC   HL,DE
599b: CB 3C          SRL   H
599d: CB 1D          RR    L
599f: 11 20 00       LD    DE,$0020
59a2: 4D             LD    C,L
59a3: ED 52          SBC   HL,DE
59a5: D8             RET   C

59a6: 3C             INC   A
59a7: 18 F9          JR    $59A2

59a9: 21 00 00       LD    HL,$0000
59ac: 06 00          LD    B,#$00
59ae: 09             ADD   HL,BC
59af: A7             AND   A,A
59b0: 28 07          JR    Z,$59B9

59b2: 47             LD    B,A
59b3: 11 20 00       LD    DE,$0020
59b6: 19             ADD   HL,DE
59b7: 10 FD          DJNZ  $59B6

59b9: CB 25          SLA   L
59bb: CB 14          RL    H
59bd: 11 00 F8       LD    DE,BACKGROUND_VIDEO_RAM_TO_FF7F
59c0: 19             ADD   HL,DE
59c1: C9             RET   

59c2: AF             XOR   A,A
59c3: 11 00 F8       LD    DE,BACKGROUND_VIDEO_RAM_TO_FF7F
59c6: ED 52          SBC   HL,DE
59c8: CB 3C          SRL   H
59ca: CB 1D          RR    L
59cc: 11 00 C0       LD    DE,CPU_RAM_OR_GS_DISK_X_TANK_X_OR_MCP_TRON_LEGS-LC_TRAILS_TO_C1DF
59cf: CB 3C          SRL   H
59d1: CB 1D          RR    L
59d3: 38 08          JR    C,$59DD

59d5: 19             ADD   HL,DE
59d6: ED 67          RRD   
59d8: 47             LD    B,A
59d9: ED 6F          RLD   
59db: 78             LD    A,B
59dc: C9             RET   

59dd: 19             ADD   HL,DE
59de: ED 6F          RLD   
59e0: 47             LD    B,A
59e1: ED 67          RRD   
59e3: 78             LD    A,B
59e4: C9             RET   

LC_DRAW_A_TRAIL?:
59e5: 6F             LD    L,A
59e6: 26 00          LD    H,#$00
59e8: 06 05          LD    B,#$05
59ea: CB 25          SLA   L
59ec: CB 14          RL    H
59ee: 10 FA          DJNZ  $59EA

59f0: 09             ADD   HL,BC
59f1: AF             XOR   A,A
59f2: 18 D8          JR    $59CC

59f4: D5             PUSH  DE
59f5: 6F             LD    L,A
59f6: 26 00          LD    H,#$00
59f8: 06 05          LD    B,#$05
59fa: CB 25          SLA   L
59fc: CB 14          RL    H
59fe: 10 FA          DJNZ  $59FA

5a00: 09             ADD   HL,BC
5a01: 11 00 C0       LD    DE,CPU_RAM_OR_GS_DISK_X_TANK_X_OR_MCP_TRON_LEGS-LC_TRAILS_TO_C1DF
5a04: CB 3C          SRL   H
5a06: CB 1D          RR    L
5a08: 38 08          JR    C,$5A12        ;If lowest bit in HL was set (C = true), process upper nybble
                                          ;Process lower nybble

5a0a: 19             ADD   HL,DE
5a0b: ED 67          RRD   
5a0d: D1             POP   DE
5a0e: 7A             LD    A,D
5a0f: ED 6F          RLD   
5a11: C9             RET   


*** at 57ba
5a12: 19             ADD   HL,DE          ;Process upper nybble
5a13: ED 6F          RLD   
5a15: D1             POP   DE
5a16: 7A             LD    A,D
5a17: ED 67          RRD   
5a19: C9             RET   

LC_DRAW_D_INTO_LC_RAM_DATA_STRUCTURE:
5a1a: D5             PUSH  DE
5a1b: A7             AND   A,A
5a1c: 11 00 F8       LD    DE,BACKGROUND_VIDEO_RAM_TO_FF7F
5a1f: ED 52          SBC   HL,DE
5a21: CB 3C          SRL   H
5a23: CB 1D          RR    L
5a25: 18 DA          JR    $5A01

5a27: 3E 63          LD    A,#$63
5a29: 32 FF C1       LD    ($C1FF),A
5a2c: FD 21 0F 27    LD    IY,$270F
5a30: 21 25 C2       LD    HL,LC_SETUP4?
5a33: ED 4B 0B C2    LD    BC,(LC_ENEMY_NUMBER_2_BYTES)
5a37: 09             ADD   HL,BC
5a38: 7E             LD    A,(HL)
5a39: 22 2C C2       LD    ($C22C),HL
5a3c: E6 0F          AND   A,#$0F
5a3e: CA F1 5A       JP    Z,$5AF1

5a41: FE 03          CP    A,#$03
5a43: 28 0A          JR    Z,$5A4F

5a45: 21 29 C2       LD    HL,$C229
5a48: 09             ADD   HL,BC
5a49: 22 31 C2       LD    ($C231),HL
5a4c: 35             DEC   (HL)
5a4d: 28 0E          JR    Z,$5A5D

5a4f: 21 2E C2       LD    HL,$C22E
5a52: 09             ADD   HL,BC
5a53: 46             LD    B,(HL)
5a54: CD C9 5A       CALL  LC_MULTIPLE_CYCLES_DO_SOMETHING?
5a57: 3A FF C1       LD    A,($C1FF)
5a5a: FE 63          CP    A,#$63
5a5c: C0             RET   NZ

5a5d: 2A 2C C2       LD    HL,($C22C)
5a60: 7E             LD    A,(HL)
5a61: E6 C0          AND   A,#$C0
5a63: 28 41          JR    Z,$5AA6

5a65: 3E C0          LD    A,#$C0
5a67: AE             XOR   A,(HL)
5a68: 77             LD    (HL),A
5a69: FA 89 5A       JP    M,$5A89

5a6c: 06 00          LD    B,#$00
5a6e: CD C9 5A       CALL  LC_MULTIPLE_CYCLES_DO_SOMETHING?
5a71: 06 02          LD    B,#$02
5a73: CD C9 5A       CALL  LC_MULTIPLE_CYCLES_DO_SOMETHING?
5a76: 3A FF C1       LD    A,($C1FF)
5a79: FE 63          CP    A,#$63
5a7b: 20 2C          JR    NZ,$5AA9

5a7d: 06 01          LD    B,#$01
5a7f: CD C9 5A       CALL  LC_MULTIPLE_CYCLES_DO_SOMETHING?
5a82: 06 03          LD    B,#$03
5a84: CD C9 5A       CALL  LC_MULTIPLE_CYCLES_DO_SOMETHING?
5a87: 18 20          JR    $5AA9

5a89: 06 01          LD    B,#$01
5a8b: CD C9 5A       CALL  LC_MULTIPLE_CYCLES_DO_SOMETHING?
5a8e: 06 03          LD    B,#$03
5a90: CD C9 5A       CALL  LC_MULTIPLE_CYCLES_DO_SOMETHING?
5a93: 3A FF C1       LD    A,($C1FF)
5a96: FE 63          CP    A,#$63
5a98: 20 0F          JR    NZ,$5AA9

5a9a: 06 00          LD    B,#$00
5a9c: CD C9 5A       CALL  LC_MULTIPLE_CYCLES_DO_SOMETHING?
5a9f: 06 02          LD    B,#$02
5aa1: CD C9 5A       CALL  LC_MULTIPLE_CYCLES_DO_SOMETHING?
5aa4: 18 03          JR    $5AA9

5aa6: CD F1 5A       CALL  $5AF1
5aa9: 21 2E C2       LD    HL,$C22E
5aac: ED 5B 0B C2    LD    DE,(LC_ENEMY_NUMBER_2_BYTES)
5ab0: 19             ADD   HL,DE
5ab1: 3A FF C1       LD    A,($C1FF)
5ab4: 77             LD    (HL),A
5ab5: 2A 2C C2       LD    HL,($C22C)
5ab8: 7E             LD    A,(HL)
5ab9: E6 0F          AND   A,#$0F
5abb: FE 03          CP    A,#$03
5abd: C8             RET   Z

5abe: 2A 31 C2       LD    HL,($C231)
5ac1: 36 04          LD    (HL),#$04
5ac3: FE 01          CP    A,#$01
5ac5: C0             RET   NZ

5ac6: 36 10          LD    (HL),#$10
5ac8: C9             RET   

LC_MULTIPLE_CYCLES_DO_SOMETHING?:
5ac9: ED 5B 0B C2    LD    DE,(LC_ENEMY_NUMBER_2_BYTES)
5acd: 21 FA C1       LD    HL,LC_ENEMY_1_?2
5ad0: 19             ADD   HL,DE
5ad1: 4E             LD    C,(HL)
5ad2: 21 F7 C1       LD    HL,LC_ENEMY_1_?1
5ad5: 19             ADD   HL,DE
5ad6: 66             LD    H,(HL)
5ad7: 78             LD    A,B
5ad8: B7             OR    A,A
5ad9: 20 03          JR    NZ,$5ADE

5adb: 0D             DEC   C
5adc: 18 0F          JR    $5AED

5ade: FE 01          CP    A,#$01
5ae0: 20 03          JR    NZ,$5AE5

5ae2: 24             INC   H
5ae3: 18 08          JR    $5AED

5ae5: FE 02          CP    A,#$02
5ae7: 20 03          JR    NZ,$5AEC

5ae9: 0C             INC   C
5aea: 18 01          JR    $5AED

5aec: 25             DEC   H
5aed: 7C             LD    A,H
5aee: C3 16 5B       JP    $5B16

5af1: ED 4B 0B C2    LD    BC,(LC_ENEMY_NUMBER_2_BYTES)
5af5: 21 F7 C1       LD    HL,LC_ENEMY_1_?1
5af8: 09             ADD   HL,BC
5af9: 7E             LD    A,(HL)
5afa: 21 FA C1       LD    HL,LC_ENEMY_1_?2
5afd: 09             ADD   HL,BC
5afe: 4E             LD    C,(HL)
5aff: 0D             DEC   C
5b00: CD 16 5B       CALL  $5B16
5b03: 0C             INC   C
5b04: 04             INC   B
5b05: 3C             INC   A
5b06: CD 16 5B       CALL  $5B16
5b09: 3D             DEC   A
5b0a: 04             INC   B
5b0b: 0C             INC   C
5b0c: CD 16 5B       CALL  $5B16
5b0f: 0D             DEC   C
5b10: 04             INC   B
5b11: 3D             DEC   A
5b12: CD 16 5B       CALL  $5B16
5b15: C9             RET   

5b16: F5             PUSH  AF
5b17: C5             PUSH  BC
5b18: CD E5 59       CALL  LC_DRAW_A_TRAIL?
5b1b: A7             AND   A,A
5b1c: 28 03          JR    Z,$5B21

5b1e: C1             POP   BC
5b1f: F1             POP   AF
5b20: C9             RET   

5b21: C1             POP   BC
5b22: F1             POP   AF
5b23: F5             PUSH  AF
5b24: C5             PUSH  BC
5b25: 21 F5 C1       LD    HL,$C1F5
5b28: 56             LD    D,(HL)
5b29: DD 21 00 00    LD    IX,$0000
5b2d: CD 4B 5B       CALL  $5B4B
5b30: 79             LD    A,C
5b31: 21 F6 C1       LD    HL,$C1F6
5b34: 56             LD    D,(HL)
5b35: CD 4B 5B       CALL  $5B4B
5b38: FD E5          PUSH  IY
5b3a: E1             POP   HL
5b3b: DD E5          PUSH  IX
5b3d: D1             POP   DE
5b3e: ED 52          SBC   HL,DE
5b40: 38 DC          JR    C,$5B1E

5b42: D5             PUSH  DE
5b43: FD E1          POP   IY
5b45: 21 FF C1       LD    HL,$C1FF
5b48: 70             LD    (HL),B
5b49: 18 D3          JR    $5B1E

5b4b: BA             CP    A,D
5b4c: F2 52 5B       JP    P,$5B52

5b4f: 6F             LD    L,A
5b50: 7A             LD    A,D
5b51: 55             LD    D,L
5b52: 92             SUB   A,D
5b53: CB 27          SLA   A
5b55: 21 C2 5B       LD    HL,$5BC2
5b58: 5F             LD    E,A
5b59: 16 00          LD    D,#$00
5b5b: 19             ADD   HL,DE
5b5c: 5E             LD    E,(HL)
5b5d: 23             INC   HL
5b5e: 56             LD    D,(HL)
5b5f: DD 19          ADD   IX,DE
5b61: C9             RET   

5b62: C8 40 55 41 5B 45 5B 41 5B 43 5B 47 57 41 55 41 
5b72: 59 43 59 47 59 45 59 41 C8 40 51 41 C9 44 C9 40 
5b82: C9 42 C9 46 57 41 51 41 52 47 52 43 52 41 52 45 
5b92: CA 40 56 41 5C 45 5C 41 5C 43 5C 47 58 41 56 41 
5ba2: 5A 43 5A 47 5A 45 5A 41 CA 40 53 41 CB 44 CB 40 
5bb2: CB 42 CB 46 58 41 53 41 54 47 54 43 54 41 54 45 
5bc2: 00 00 01 00 04 00 09 00 10 00 19 00 24 00 31 00 
5bd2: 40 00 51 00 64 00 79 00 90 00 A9 00 C4 00 E1 00 
5be2: 00 01 21 01 44 01 69 01 90 01 B9 01 E4 01 11 02 
5bf2: 40 02 71 02 A4 02 D9 02 10 03 49 03 84 03 C1 03 
5c02: 00 01 01 02 03 03 02 03 03 01 63 02 03 63 01 05 
5c12: 04 04 03 00 63 05 02 63 00 

*** 19x6: enemy LCs, ?, ?, ?, ?, ?
LC_DATA_STRUCTURE_TO_SETUP_LIGHT_CYCLES:
5c1b: 01 00 00 00 00 00 
5c21: 06 60 00 00 01 00 
5c27: 07 80 00 01 00 03 
5c2d: 07 A0 00 83 01 00 
5c33: 07 C0 00 03 41 82 
5c39: 07 01 00 00 83 43 
5c3f: 07 20 01 41 00 82 
5c45: 07 40 01 00 00 42 
5c4b: 07 80 01 41 82 03 
5c51: 07 80 01 03 41 82 
5c57: 07 80 01 00 83 43 
5c5d: 07 A0 01 41 00 82 
5c63: 07 C0 01 00 00 42 
5c69: 07 00 02 41 82 03 
5c6f: 07 40 02 03 41 82 
5c75: 07 40 02 00 83 43 
5c7b: 07 40 02 41 00 82 
5c81: 07 40 02 83 43 42 
5c87: 07 40 02 03 03 03 


*** Data used where for what?
5c8d: 86 31 1B 83 63 1A 22 95 14 90 87 87 42 39 67 0F 
5c9d: 73 82 75 BA 7A 14 35 E7 90 92 8D 51 A0 80 0F 88 
5cad: 2A 84 17 2C 99 C4 21 DB 72 18 97 E8 4C 49 99 95 
5cbd: 11 C2 16 07 25 14 21 3C A1 56 BF A1 24 A5 E1 5B 
5ccd: 42 C6 A4 74 82 67 A4 46 42 B4 C8 07 AD 5B 32 48 
5cdd: E2 47 14 49 21 40 60 AF 14 1A 41 04 E0 99 44 C1 
5ced: 56 E4 15 A8 42 2A C6 FB 91 08 40 24 40 72 2A 17 
5cfd: 82 A0 47 

PLAY_IO_TOWER:
5d00: CD 20 70       CALL  ZERO_RAM_C000-C418
5d03: 3E 04          LD    A,#$04
5d05: 32 5B C4       LD    (GS_DIRECTION:1=DOWN,2=?,3=?,5=?,OTHER=?),A
5d08: 3E 01          LD    A,#$01
5d0a: 32 08 C4       LD    ($C408),A
5d0d: 21 00 7A       LD    HL,BACKGROUND_IO_TOWER_GAME
5d10: CD 35 70       CALL  BACKGROUND_RAM_FILL_FROM_HL_0780_BYTES_TO_F800
5d13: 21 C0 79       LD    HL,IO_COLOR_PALETTE
5d16: CD 35 6F       CALL  COPY_20_FROM_HL_TO_FF80
5d19: 21 C6 68       LD    HL,DATA_TO_?_USED_AT_5D19
5d1c: DD 21 E0 FF    LD    IX,$FFE0
5d20: 06 0E          LD    B,#$0E
5d22: CD 3B 6F       CALL  $6F3B
5d25: CD 49 70       CALL  INITIALIZE_SPRITES
5d28: 3E 78          LD    A,#$78
5d2a: 32 1E C0       LD    ($C01E),A
5d2d: 3A 19 C4       LD    A,(HARDNESS_(OR_USER_LEVEL/CURRENT_PLAYER_DATA?))
5d30: FE 09          CP    A,#$09
5d32: 38 04          JR    C,$5D38

5d34: D6 06          SUB   A,#$06
5d36: 18 F8          JR    $5D30

5d38: 87             ADD   A,A
5d39: 21 FB 68       LD    HL,$68FB
5d3c: CD 00 6F       CALL  ADD_A_TO_HL_WITH_CARRY
5d3f: 7E             LD    A,(HL)
5d40: 23             INC   HL
5d41: 66             LD    H,(HL)
5d42: 6F             LD    L,A
5d43: CD 77 67       CALL  $6777
5d46: CD 1D 62       CALL  IO_OR_MCP?_SET_TRON_INITIAL_POSITION_AND_ROTATION
5d49: 3E 01          LD    A,#$01
5d4b: 32 5E C4       LD    ($C45E),A
5d4e: 3A 19 C4       LD    A,(HARDNESS_(OR_USER_LEVEL/CURRENT_PLAYER_DATA?))
5d51: FE 00          CP    A,#$00
5d53: 28 07          JR    Z,$5D5C

5d55: 3E 01          LD    A,#$01
5d57: 32 10 C0       LD    (TANKS_DISKS?/BULLETS?_IN_RAM_STARTS_AT_C020),A
5d5a: 18 05          JR    $5D61

5d5c: 3E 05          LD    A,#$05
5d5e: 32 0F C0       LD    ($C00F),A
5d61: 3E 01          LD    A,#$01
5d63: 32 0C C0       LD    ($C00C),A
5d66: 3E 2D          LD    A,#$2D
5d68: 32 07 C0       LD    (MCP_TRON_X_TANKS_DATA_VECTOR_x_1),A
5d6b: CD 23 5F       CALL  CONVERT_IO_TOWER_TIMER_TO_PRINTABLE_AND_?
5d6e: 21 79 6B       LD    HL,DATA_FOR_SETTING_UP_TRON_SPRITES?
5d71: 22 2E C0       LD    ($C02E),HL
5d74: CD 65 60       CALL  INITIALIZE_TRON_SPRITE_FOR_MCP_AND_IO_TOWER
5d77: 0E 21          LD    C,#$21
5d79: C3 B8 6F       JP    PUT_C_ON_STACK_TO_SEND_TO_AUDIO

5d7c: 3A 04 C0       LD    A,($C004)
5d7f: E6 06          AND   A,#$06
5d81: C2 F2 62       JP    NZ,$62F2

5d84: 21 07 C0       LD    HL,MCP_TRON_X_TANKS_DATA_VECTOR_x_1
5d87: 7E             LD    A,(HL)
5d88: B7             OR    A,A
5d89: 28 02          JR    Z,$5D8D

5d8b: 35             DEC   (HL)
5d8c: C9             RET   

5d8d: 3A 0A C0       LD    A,($C00A)
5d90: B7             OR    A,A
5d91: C2 F7 5E       JP    NZ,$5EF7

5d94: 3A 24 C0       LD    A,(IO_TOWER_ALWAYS_80?)
5d97: FE 80          CP    A,#$80
5d99: 20 51          JR    NZ,$5DEC

5d9b: 21 0C C0       LD    HL,$C00C
5d9e: 35             DEC   (HL)
5d9f: 20 4B          JR    NZ,$5DEC

5da1: 36 01          LD    (HL),#$01
5da3: 21 0D C0       LD    HL,IO_TOWER_TIMER_VALUE_REVERSED_TO_C010
5da6: 06 04          LD    B,#$04
5da8: 7E             LD    A,(HL)
5da9: B7             OR    A,A
5daa: 20 2B          JR    NZ,$5DD7

5dac: 36 09          LD    (HL),#$09
5dae: 23             INC   HL
5daf: 10 F7          DJNZ  $5DA8

5db1: 06 04          LD    B,#$04
5db3: 21 0D C0       LD    HL,IO_TOWER_TIMER_VALUE_REVERSED_TO_C010
5db6: 36 00          LD    (HL),#$00
5db8: 23             INC   HL
5db9: 10 FB          DJNZ  $5DB6

5dbb: 3E 01          LD    A,#$01
5dbd: 32 0A C0       LD    ($C00A),A
5dc0: 3E 04          LD    A,#$04
5dc2: 32 0C C0       LD    ($C00C),A
5dc5: 0E 40          LD    C,#$40
5dc7: CD B8 6F       CALL  PUT_C_ON_STACK_TO_SEND_TO_AUDIO
5dca: 0E 27          LD    C,#$27
5dcc: CD B8 6F       CALL  PUT_C_ON_STACK_TO_SEND_TO_AUDIO
5dcf: 3E 80          LD    A,#$80
5dd1: 32 20 C0       LD    ($C020),A
5dd4: C3 23 5F       JP    CONVERT_IO_TOWER_TIMER_TO_PRINTABLE_AND_?

5dd7: 35             DEC   (HL)
5dd8: 20 0F          JR    NZ,$5DE9

5dda: 78             LD    A,B
5ddb: FE 02          CP    A,#$02
5ddd: 20 0A          JR    NZ,$5DE9

5ddf: 0E 22          LD    C,#$22
5de1: CD B8 6F       CALL  PUT_C_ON_STACK_TO_SEND_TO_AUDIO
5de4: 0E 3F          LD    C,#$3F
5de6: CD B8 6F       CALL  PUT_C_ON_STACK_TO_SEND_TO_AUDIO
5de9: CD 23 5F       CALL  CONVERT_IO_TOWER_TIMER_TO_PRINTABLE_AND_?
5dec: 21 1E C0       LD    HL,$C01E
5def: 35             DEC   (HL)
5df0: 20 11          JR    NZ,$5E03

5df2: 3A 0B C0       LD    A,($C00B)
5df5: 77             LD    (HL),A
5df6: 21 1D C0       LD    HL,$C01D
5df9: 7E             LD    A,(HL)
5dfa: FE 28          CP    A,#$28
5dfc: 28 05          JR    Z,$5E03

5dfe: 34             INC   (HL)
5dff: 21 06 C0       LD    HL,$C006
5e02: 34             INC   (HL)
5e03: CD 47 5F       CALL  $5F47
5e06: CD 6D 63       CALL  $636D
5e09: CD 04 65       CALL  $6504
5e0c: 3A 04 C0       LD    A,($C004)
5e0f: B7             OR    A,A
5e10: 28 10          JR    Z,$5E22

5e12: 21 05 C0       LD    HL,$C005
5e15: 35             DEC   (HL)
5e16: F2 22 5E       JP    P,$5E22

5e19: 36 04          LD    (HL),#$04
5e1b: 21 29 F0       LD    HL,$F029
5e1e: 7E             LD    A,(HL)
5e1f: EE 80          XOR   A,#$80
5e21: 77             LD    (HL),A
5e22: 3A 1D C0       LD    A,($C01D)
5e25: 21 06 C0       LD    HL,$C006
5e28: BE             CP    A,(HL)
5e29: C0             RET   NZ

5e2a: 21 24 C0       LD    HL,IO_TOWER_ALWAYS_80?
5e2d: 7E             LD    A,(HL)
5e2e: E6 8E          AND   A,#$8E
5e30: FE 80          CP    A,#$80
5e32: C0             RET   NZ

5e33: CB DE          SET   3,(HL)
5e35: C9             RET   

IO_TOWER_INSTRUCTIONS:
5e36: CD 20 70       CALL  ZERO_RAM_C000-C418
5e39: 3E 01          LD    A,#$01
5e3b: 32 08 C4       LD    ($C408),A
5e3e: 21 00 7A       LD    HL,BACKGROUND_IO_TOWER_GAME
5e41: CD 35 70       CALL  BACKGROUND_RAM_FILL_FROM_HL_0780_BYTES_TO_F800
5e44: 21 B7 5E       LD    HL,IO_TOWER_COLOR_PALETTE
5e47: CD 35 6F       CALL  COPY_20_FROM_HL_TO_FF80
5e4a: CD 49 70       CALL  INITIALIZE_SPRITES
5e4d: 21 B7 5E       LD    HL,IO_TOWER_COLOR_PALETTE
5e50: CD 1D 62       CALL  IO_OR_MCP?_SET_TRON_INITIAL_POSITION_AND_ROTATION
5e53: 21 79 6B       LD    HL,DATA_FOR_SETTING_UP_TRON_SPRITES?
5e56: 22 2E C0       LD    ($C02E),HL
5e59: CD 65 60       CALL  INITIALIZE_TRON_SPRITE_FOR_MCP_AND_IO_TOWER
5e5c: 3E 01          LD    A,#$01
5e5e: 32 5E C4       LD    ($C45E),A
5e61: DD 21 7E 5E    LD    IX,IO_TOWER_STRING_DESTINATION_AND_SOURCE_LOCATIONS_00
5e65: DD 4E 00       LD    C,(IX+$00)
5e68: DD 46 01       LD    B,(IX+$01)
5e6b: 78             LD    A,B
5e6c: B1             OR    A,C

*** if BC was 0, return.  Does this mean skip instructions?
5e6d: C8             RET   Z

5e6e: DD 5E 02       LD    E,(IX+$02)
5e71: DD 56 03       LD    D,(IX+$03)
5e74: CD 5D 70       CALL  ADD_MESSAGE_TO_Q
5e77: 11 04 00       LD    DE,$0004
5e7a: DD 19          ADD   IX,DE
5e7c: 18 E7          JR    $5E65

IO_TOWER_STRING_DESTINATION_AND_SOURCE_LOCATIONS_00:
5e7e: CC FD 8C 5E CE FD 9B 5E D0 FD A9 5E 00 00 

ENTER_FLASHING_S:
5e8c: ENTER FLASHING

CIRCLE_BEFORE_S:
5e9b: CIRCLE BEFORE

TIMER_EXPIRES_S:
5ea9: TIMER EXPIRES

IO_TOWER_COLOR_PALETTE:
5eb7: 00 00 00 00 00 00 00 00 00 00 00 00 00 00 00 00 
5ec7: 00 00 00 00 00 00 00 00 00 00 00 00 00 00 00 00 


*** Data used where for what?
5ed7: 00 00 00 53 01 80 00 30 01 D4 01 EA 01 C2 01 C5 
5ee7: 00 00 00 7E 01 FF 00 0F 00 00 00 08 00 38 01 C0 

5ef7: 21 0C C0       LD    HL,$C00C
5efa: 35             DEC   (HL)
5efb: 20 07          JR    NZ,$5F04

5efd: 36 08          LD    (HL),#$08
5eff: CD 23 5F       CALL  CONVERT_IO_TOWER_TIMER_TO_PRINTABLE_AND_?
5f02: 18 14          JR    $5F18

5f04: 7E             LD    A,(HL)
5f05: FE 04          CP    A,#$04
5f07: 20 0F          JR    NZ,$5F18

5f09: 21 1E FC       LD    HL,$FC1E
5f0c: 22 52 C4       LD    ($C452),HL
5f0f: 21 F2 68       LD    HL,$68F2
5f12: 22 54 C4       LD    ($C454),HL
5f15: 32 51 C4       LD    ($C451),A
5f18: 21 20 C0       LD    HL,$C020
5f1b: 35             DEC   (HL)
5f1c: C0             RET   NZ

5f1d: 3E 02          LD    A,#$02
5f1f: 32 7C C4       LD    (NEXT_SLOT_IN_SCREEN_MESSAGE_QUEUE_2),A
5f22: C9             RET   

CONVERT_IO_TOWER_TIMER_TO_PRINTABLE_AND_?:
5f23: 21 12 C0       LD    HL,MCP_DISK_1_DATA/IO_TOWER_TIMER_DIGITS_TO_C019
5f26: 22 54 C4       LD    ($C454),HL
5f29: 11 10 C0       LD    DE,TANKS_DISKS?/BULLETS?_IN_RAM_STARTS_AT_C020
5f2c: 06 04          LD    B,#$04
5f2e: 1A             LD    A,(DE)
5f2f: C6 30          ADD   A,#$30
5f31: 77             LD    (HL),A
5f32: 23             INC   HL
5f33: 36 58          LD    (HL),#$58
5f35: 23             INC   HL
5f36: 1B             DEC   DE
5f37: 10 F5          DJNZ  $5F2E

5f39: 36 00          LD    (HL),#$00
5f3b: 21 1E FC       LD    HL,$FC1E
5f3e: 22 52 C4       LD    ($C452),HL
5f41: 3E 01          LD    A,#$01
5f43: 32 51 C4       LD    ($C451),A
5f46: C9             RET   

5f47: 3A 24 C0       LD    A,(IO_TOWER_ALWAYS_80?)
5f4a: E6 84          AND   A,#$84
5f4c: C8             RET   Z

5f4d: E6 04          AND   A,#$04
5f4f: C2 CC 61       JP    NZ,$61CC

5f52: CD 77 61       CALL  $6177
5f55: 3A 24 C0       LD    A,(IO_TOWER_ALWAYS_80?)
5f58: E6 08          AND   A,#$08
5f5a: 20 11          JR    NZ,$5F6D

5f5c: CD 73 5F       CALL  HANDLE_JOYSTICK_INPUT?_TO_601F
5f5f: CD 27 61       CALL  MOVE_SPIDERS?
5f62: 3A 04 C0       LD    A,($C004)
5f65: FE 01          CP    A,#$01
5f67: CC AD 62       CALL  Z,$62AD
5f6a: C3 65 60       JP    INITIALIZE_TRON_SPRITE_FOR_MCP_AND_IO_TOWER

5f6d: CD 36 62       CALL  $6236
5f70: C3 65 60       JP    INITIALIZE_TRON_SPRITE_FOR_MCP_AND_IO_TOWER


*** IO:0000 - xxxBxxxx
*** IO:0002 - xxxxDURL
HANDLE_JOYSTICK_INPUT?_TO_601F:
5f73: 3A 7B C4       LD    A,(IN_ATTRACT_MODE?)
5f76: B7             OR    A,A
5f77: 28 23          JR    Z,$5F9C

5f79: 3A 28 C0       LD    A,(IO_TRON_Y)
5f7c: FE 5B          CP    A,#$5B
5f7e: 3A 21 C0       LD    A,($C021)
5f81: 30 08          JR    NC,$5F8B

5f83: FE 04          CP    A,#$04
5f85: 20 10          JR    NZ,$5F97

5f87: 06 02          LD    B,#$02
5f89: 18 0E          JR    $5F99

5f8b: FE 04          CP    A,#$04
5f8d: 06 04          LD    B,#$04
5f8f: 28 08          JR    Z,$5F99

5f91: FE 02          CP    A,#$02
5f93: 06 01          LD    B,#$01
5f95: 28 02          JR    Z,$5F99

5f97: 06 00          LD    B,#$00
5f99: 78             LD    A,B
5f9a: 18 15          JR    $5FB1

5f9c: DB 02          IN    A,(IO_2)
5f9e: 2F             CPL   
5f9f: 4F             LD    C,A
5fa0: 3A 87 C6       LD    A,(FLIP_SCREEN_IF_VALUE_IS_01)
5fa3: B7             OR    A,A
5fa4: 79             LD    A,C
5fa5: 28 08          JR    Z,$5FAF

5fa7: CB 3F          SRL   A
5fa9: CB 3F          SRL   A
5fab: CB 3F          SRL   A
5fad: CB 3F          SRL   A
5faf: E6 0F          AND   A,#$0F
5fb1: 87             ADD   A,A
5fb2: 87             ADD   A,A
5fb3: 21 39 6B       LD    HL,JOYSTICK_INPUT_TABLE;look at 6b39 for more info!
5fb6: CD 00 6F       CALL  ADD_A_TO_HL_WITH_CARRY
5fb9: 11 29 C0       LD    DE,JOYSTICK_INPUT_ARRAY_TO_C02C
5fbc: 01 04 00       LD    BC,$0004
5fbf: ED B0          LDIR  
5fc1: 2A 25 C0       LD    HL,($C025)
5fc4: ED 5B 29 C0    LD    DE,(JOYSTICK_INPUT_ARRAY_TO_C02C)
5fc8: 19             ADD   HL,DE
5fc9: 22 25 C0       LD    ($C025),HL
5fcc: 7C             LD    A,H
5fcd: FE 24          CP    A,#$24
5fcf: 30 04          JR    NC,$5FD5

5fd1: 3E 24          LD    A,#$24
5fd3: 18 19          JR    $5FEE

5fd5: FE E0          CP    A,#$E0
5fd7: 38 04          JR    C,$5FDD

5fd9: 3E DF          LD    A,#$DF
5fdb: 18 11          JR    $5FEE

5fdd: CD 20 60       CALL  $6020
5fe0: 28 0F          JR    Z,$5FF1

5fe2: F8             RET   M

5fe3: 3A 26 C0       LD    A,(MCP_DISK_3_DATA)
5fe6: FE 80          CP    A,#$80
5fe8: 3E 4B          LD    A,#$4B
5fea: 38 02          JR    C,$5FEE

5fec: 3E B6          LD    A,#$B6
5fee: 32 26 C0       LD    (MCP_DISK_3_DATA),A
5ff1: 2A 27 C0       LD    HL,($C027)
5ff4: ED 5B 2B C0    LD    DE,($C02B)
5ff8: 19             ADD   HL,DE
5ff9: 22 27 C0       LD    ($C027),HL
5ffc: 7C             LD    A,H
5ffd: FE E4          CP    A,#$E4
5fff: 38 04          JR    C,$6005

6001: 3E E3          LD    A,#$E3
6003: 18 17          JR    $601C

6005: FE 25          CP    A,#$25
6007: 30 04          JR    NC,$600D

6009: 3E 25          LD    A,#$25
600b: 18 0F          JR    $601C

600d: CD 20 60       CALL  $6020
6010: C8             RET   Z

6011: 3A 28 C0       LD    A,(IO_TRON_Y)
6014: FE 60          CP    A,#$60
6016: 3E 2A          LD    A,#$2A
6018: 38 02          JR    C,$601C

601a: 3E 96          LD    A,#$96
601c: 32 28 C0       LD    (IO_TRON_Y),A
601f: C9             RET   

6020: 3A 28 C0       LD    A,(IO_TRON_Y)
6023: FE 2B          CP    A,#$2B
6025: 38 3C          JR    C,$6063

6027: FE 96          CP    A,#$96
6029: 30 38          JR    NC,$6063

602b: 3A 26 C0       LD    A,(MCP_DISK_3_DATA)
602e: FE 4C          CP    A,#$4C
6030: 38 31          JR    C,$6063

6032: FE B6          CP    A,#$B6
6034: 30 2D          JR    NC,$6063

6036: 3A 28 C0       LD    A,(IO_TRON_Y)
6039: FE 58          CP    A,#$58
603b: 38 22          JR    C,$605F

603d: FE 69          CP    A,#$69
603f: 30 1E          JR    NC,$605F

6041: 3E 80          LD    A,#$80
6043: 32 2D C0       LD    ($C02D),A
6046: 3E 88          LD    A,#$88
6048: 32 24 C0       LD    (IO_TOWER_ALWAYS_80?),A
604b: 21 0D C0       LD    HL,IO_TOWER_TIMER_VALUE_REVERSED_TO_C010
604e: CD 52 6F       CALL  PROCESS_HIT_ON_TANK_SPIDER_MCP_BLOCK_OR_LC
6051: 3A 0F C0       LD    A,($C00F)
6054: B7             OR    A,A
6055: 20 05          JR    NZ,$605C

6057: 0E 40          LD    C,#$40
6059: CD B8 6F       CALL  PUT_C_ON_STACK_TO_SEND_TO_AUDIO
605c: F6 80          OR    A,#$80
605e: C9             RET   

605f: 3E 01          LD    A,#$01
6061: B7             OR    A,A
6062: C9             RET   

6063: AF             XOR   A,A
6064: C9             RET   

INITIALIZE_TRON_SPRITE_FOR_MCP_AND_IO_TOWER:
6065: DD 2A 2E C0    LD    IX,($C02E)
6069: 3A 26 C0       LD    A,(MCP_DISK_3_DATA)
606c: 32 04 F0       LD    (TANK_BODY_OR_LC_OR_IO_OR_MCP_TRON_AND_DISK_TORSO_LEGS_LEFT_DISK_RIGHT),A
606f: 32 08 F0       LD    (TANK_TURRET_OR_LC_ENEMIES),A
6072: 47             LD    B,A
6073: 3A 28 C0       LD    A,(IO_TRON_Y)
6076: 4F             LD    C,A
6077: CD 59 71       CALL  ADJUST_SPRITE_X_IF_FLIPPED_SCREEN
607a: 32 06 F0       LD    ($F006),A
607d: 79             LD    A,C
607e: C6 10          ADD   A,#$10
6080: CD 59 71       CALL  ADJUST_SPRITE_X_IF_FLIPPED_SCREEN
6083: 32 0A F0       LD    ($F00A),A
6086: 3A 2A C0       LD    A,($C02A)
6089: 21 2C C0       LD    HL,$C02C
608c: B6             OR    A,(HL)
608d: 21 1F C0       LD    HL,$C01F
6090: 28 06          JR    Z,$6098

6092: 35             DEC   (HL)
6093: F2 98 60       JP    P,$6098

6096: 36 08          LD    (HL),#$08
6098: 7E             LD    A,(HL)
6099: FE 04          CP    A,#$04
609b: DD 7E 00       LD    A,(IX+$00)
609e: DD 66 01       LD    H,(IX+$01)
60a1: 30 06          JR    NC,$60A9

60a3: DD 7E 02       LD    A,(IX+$02)
60a6: DD 66 03       LD    H,(IX+$03)
60a9: 32 05 F0       LD    ($F005),A
60ac: 7C             LD    A,H
60ad: 32 09 F0       LD    ($F009),A
60b0: 78             LD    A,B
60b1: DD 86 0B       ADD   A,(IX+$0B)
60b4: 32 14 F0       LD    ($F014),A
60b7: 79             LD    A,C
60b8: DD 86 0C       ADD   A,(IX+$0C)
60bb: CD 59 71       CALL  ADJUST_SPRITE_X_IF_FLIPPED_SCREEN
60be: 32 16 F0       LD    ($F016),A
60c1: DD 7E 0A       LD    A,(IX+$0A)
60c4: 32 15 F0       LD    ($F015),A
60c7: 21 24 C0       LD    HL,IO_TOWER_ALWAYS_80?
60ca: CB 46          BIT   0,(HL)
60cc: 28 1F          JR    Z,$60ED


*** Tron fires his disk here (so don't set up disk in hand, maybe?)
60ce: CB 86          RES   0,(HL)
60d0: 78             LD    A,B
60d1: DD 86 08       ADD   A,(IX+$08)
60d4: 32 0C F0       LD    (TANK_DISKS_F00C_TO_F01B(SPRITES_3_TO_6)),A
60d7: 79             LD    A,C
60d8: DD 86 09       ADD   A,(IX+$09)
60db: CD 59 71       CALL  ADJUST_SPRITE_X_IF_FLIPPED_SCREEN
60de: 32 0E F0       LD    ($F00E),A
60e1: DD 7E 07       LD    A,(IX+$07)
60e4: 32 0D F0       LD    ($F00D),A
60e7: 3E 00          LD    A,#$00
60e9: 32 10 F0       LD    ($F010),A
60ec: C9             RET   

60ed: 78             LD    A,B
60ee: DD 86 05       ADD   A,(IX+$05)
60f1: 32 0C F0       LD    (TANK_DISKS_F00C_TO_F01B(SPRITES_3_TO_6)),A
60f4: 79             LD    A,C
60f5: DD 86 06       ADD   A,(IX+$06)
60f8: CD 59 71       CALL  ADJUST_SPRITE_X_IF_FLIPPED_SCREEN
60fb: 32 0E F0       LD    ($F00E),A
60fe: DD 7E 04       LD    A,(IX+$04)
6101: 32 0D F0       LD    ($F00D),A
6104: 3A 1D C4       LD    A,(REMAINING_DISKS_AT_A_TIME)
6107: B7             OR    A,A
6108: 28 17          JR    Z,$6121

610a: 78             LD    A,B
610b: DD 86 0D       ADD   A,(IX+$0D)
610e: 32 10 F0       LD    ($F010),A
6111: 79             LD    A,C
6112: DD 86 0E       ADD   A,(IX+$0E)
6115: CD 59 71       CALL  ADJUST_SPRITE_X_IF_FLIPPED_SCREEN
6118: 32 12 F0       LD    ($F012),A
611b: 3E 07          LD    A,#$07
611d: 32 11 F0       LD    ($F011),A
6120: C9             RET   

6121: 3E 00          LD    A,#$00
6123: 32 10 F0       LD    ($F010),A
6126: C9             RET   

MOVE_SPIDERS?:
6127: 3A 7B C4       LD    A,(IN_ATTRACT_MODE?)
612a: B7             OR    A,A
612b: 28 0C          JR    Z,$6139

612d: 21 21 C0       LD    HL,$C021
6130: 7E             LD    A,(HL)
6131: B7             OR    A,A
6132: 28 1B          JR    Z,$614F

6134: 35             DEC   (HL)
6135: 3E 10          LD    A,#$10
6137: 18 16          JR    $614F

6139: 3A 87 C6       LD    A,(FLIP_SCREEN_IF_VALUE_IS_01)
613c: B7             OR    A,A
613d: 28 06          JR    Z,$6145

613f: DB 03          IN    A,(IO_3)
6141: E6 80          AND   A,#$80
6143: 18 04          JR    $6149

6145: DB 00          IN    A,(IO_0)
6147: E6 10          AND   A,#$10
6149: 21 23 C0       LD    HL,IO_TOWER_TRIGGER_DEBOUNCE?
614c: BE             CP    A,(HL)
614d: C8             RET   Z

614e: 77             LD    (HL),A
614f: B7             OR    A,A
6150: C0             RET   NZ

6151: 3E 04          LD    A,#$04
6153: 32 21 C0       LD    ($C021),A
6156: 3A 22 C0       LD    A,(IO_TOWER_INCREMENTS_19_TO_1E_FOR_EACH_DISK_THROWN)
6159: 3C             INC   A
615a: FE 1F          CP    A,#$1F
615c: 38 02          JR    C,$6160

615e: 3E 19          LD    A,#$19
6160: 32 22 C0       LD    (IO_TOWER_INCREMENTS_19_TO_1E_FOR_EACH_DISK_THROWN),A
6163: 21 1D C4       LD    HL,REMAINING_DISKS_AT_A_TIME
6166: 7E             LD    A,(HL)
6167: B7             OR    A,A
6168: C8             RET   Z

6169: 35             DEC   (HL)
616a: 0E 08          LD    C,#$08
616c: CD B8 6F       CALL  PUT_C_ON_STACK_TO_SEND_TO_AUDIO
616f: 21 24 C0       LD    HL,IO_TOWER_ALWAYS_80?
6172: CB C6          SET   0,(HL)
6174: C3 33 64       JP    $6433

6177: 3A 7B C4       LD    A,(IN_ATTRACT_MODE?)
617a: B7             OR    A,A
617b: 3A 22 C0       LD    A,(IO_TOWER_INCREMENTS_19_TO_1E_FOR_EACH_DISK_THROWN)
617e: 20 0A          JR    NZ,$618A

6180: 3A 05 C4       LD    A,(MCP_TRON_ARM_OR_TANK_TURRET_ROTATION)
6183: B7             OR    A,A
6184: 28 04          JR    Z,$618A

6186: D6 24          SUB   A,#$24
6188: ED 44          NEG   
618a: 6F             LD    L,A
618b: 26 00          LD    H,#$00
618d: 29             ADD   HL,HL
618e: 29             ADD   HL,HL
618f: 29             ADD   HL,HL
6190: 29             ADD   HL,HL
6191: 5F             LD    E,A
6192: 16 00          LD    D,#$00
6194: 19             ADD   HL,DE
6195: 19             ADD   HL,DE
6196: 19             ADD   HL,DE
6197: 11 79 6B       LD    DE,DATA_FOR_SETTING_UP_TRON_SPRITES?
619a: 19             ADD   HL,DE
619b: 22 2E C0       LD    ($C02E),HL
619e: C9             RET   

619f: 3E 3A          LD    A,#$3A
61a1: 32 05 F0       LD    ($F005),A
61a4: 3E 3B          LD    A,#$3B
61a6: 32 09 F0       LD    ($F009),A
61a9: 3E 04          LD    A,#$04
61ab: 32 08 C0       LD    ($C008),A
61ae: 3E 40          LD    A,#$40
61b0: 32 2D C0       LD    ($C02D),A
61b3: 3E 84          LD    A,#$84
61b5: 32 24 C0       LD    (IO_TOWER_ALWAYS_80?),A
61b8: AF             XOR   A,A
61b9: 32 08 C4       LD    ($C408),A
61bc: 3E 00          LD    A,#$00
61be: 32 0C F0       LD    (TANK_DISKS_F00C_TO_F01B(SPRITES_3_TO_6)),A
61c1: 32 14 F0       LD    ($F014),A
61c4: 32 18 F0       LD    (IO_OR_MCP_OR_TANK_DISKS_1_TO_4),A
61c7: 0E 30          LD    C,#$30
61c9: C3 B8 6F       JP    PUT_C_ON_STACK_TO_SEND_TO_AUDIO

61cc: 21 2D C0       LD    HL,$C02D
61cf: 7E             LD    A,(HL)
61d0: B7             OR    A,A
61d1: 20 15          JR    NZ,$61E8

61d3: 3A 7B C4       LD    A,(IN_ATTRACT_MODE?)
61d6: B7             OR    A,A
61d7: 20 05          JR    NZ,$61DE

61d9: 21 20 C0       LD    HL,$C020
61dc: 35             DEC   (HL)
61dd: C0             RET   NZ

61de: AF             XOR   A,A
61df: 32 5E C4       LD    ($C45E),A
61e2: 3E 02          LD    A,#$02
61e4: 32 7C C4       LD    (NEXT_SLOT_IN_SCREEN_MESSAGE_QUEUE_2),A
61e7: C9             RET   

61e8: 21 08 C0       LD    HL,$C008
61eb: 35             DEC   (HL)
61ec: 20 12          JR    NZ,$6200

61ee: 36 04          LD    (HL),#$04
61f0: 3A 05 F0       LD    A,($F005)
61f3: EE 80          XOR   A,#$80
61f5: 32 05 F0       LD    ($F005),A
61f8: 3A 09 F0       LD    A,($F009)
61fb: EE 80          XOR   A,#$80
61fd: 32 09 F0       LD    ($F009),A
6200: 21 2D C0       LD    HL,$C02D
6203: 35             DEC   (HL)
6204: C0             RET   NZ

6205: 0E 22          LD    C,#$22
6207: CD B8 6F       CALL  PUT_C_ON_STACK_TO_SEND_TO_AUDIO
620a: 0E 27          LD    C,#$27
620c: CD B8 6F       CALL  PUT_C_ON_STACK_TO_SEND_TO_AUDIO
620f: 3E 80          LD    A,#$80
6211: 32 20 C0       LD    ($C020),A
6214: 3E 00          LD    A,#$00
6216: 32 04 F0       LD    (TANK_BODY_OR_LC_OR_IO_OR_MCP_TRON_AND_DISK_TORSO_LEGS_LEFT_DISK_RIGHT),A
6219: 32 08 F0       LD    (TANK_TURRET_OR_LC_ENEMIES),A
621c: C9             RET   

IO_OR_MCP?_SET_TRON_INITIAL_POSITION_AND_ROTATION:
621d: 3E 80          LD    A,#$80
621f: 32 26 C0       LD    (MCP_DISK_3_DATA),A
6222: 3E D4          LD    A,#$D4
6224: 32 28 C0       LD    (IO_TRON_Y),A
6227: 3E 80          LD    A,#$80
6229: 32 24 C0       LD    (IO_TOWER_ALWAYS_80?),A
622c: AF             XOR   A,A
622d: 32 05 C4       LD    (MCP_TRON_ARM_OR_TANK_TURRET_ROTATION),A
6230: 3E 19          LD    A,#$19
6232: 32 22 C0       LD    (IO_TOWER_INCREMENTS_19_TO_1E_FOR_EACH_DISK_THROWN),A
6235: C9             RET   

6236: 21 24 C0       LD    HL,IO_TOWER_ALWAYS_80?
6239: CB 4E          BIT   1,(HL)
623b: 20 4B          JR    NZ,$6288

623d: 0E 02          LD    C,#$02
623f: 3A 26 C0       LD    A,(MCP_DISK_3_DATA)
6242: FE 80          CP    A,#$80
6244: 30 03          JR    NC,$6249

6246: 3C             INC   A
6247: 18 03          JR    $624C

6249: 28 06          JR    Z,$6251

624b: 3D             DEC   A
624c: 32 26 C0       LD    (MCP_DISK_3_DATA),A
624f: 18 01          JR    $6252

6251: 0D             DEC   C
6252: 3A 28 C0       LD    A,(IO_TRON_Y)
6255: FE 60          CP    A,#$60
6257: 30 03          JR    NC,$625C

6259: 3C             INC   A
625a: 18 03          JR    $625F

625c: 28 05          JR    Z,$6263

625e: 3D             DEC   A
625f: 32 28 C0       LD    (IO_TRON_Y),A
6262: C9             RET   

6263: 0D             DEC   C
6264: C0             RET   NZ

6265: CB CE          SET   1,(HL)
6267: 21 00 00       LD    HL,$0000
626a: 22 29 C0       LD    (JOYSTICK_INPUT_ARRAY_TO_C02C),HL
626d: 22 2B C0       LD    ($C02B),HL
6270: 21 80 81       LD    HL,BACKGROUND_IO_TOWER_AFTER_ENTERING_BEAM
6273: 11 00 F8       LD    DE,BACKGROUND_VIDEO_RAM_TO_FF7F
6276: 01 80 07       LD    BC,$0780
6279: ED B0          LDIR  
627b: CD 23 5F       CALL  CONVERT_IO_TOWER_TIMER_TO_PRINTABLE_AND_?
627e: 0E 22          LD    C,#$22
6280: CD B8 6F       CALL  PUT_C_ON_STACK_TO_SEND_TO_AUDIO
6283: 0E 3C          LD    C,#$3C
6285: C3 B8 6F       JP    PUT_C_ON_STACK_TO_SEND_TO_AUDIO

6288: 2A 27 C0       LD    HL,($C027)
628b: 7C             LD    A,H
628c: FE 04          CP    A,#$04
628e: 30 07          JR    NC,$6297

6290: 3E 00          LD    A,#$00
6292: 32 26 C0       LD    (MCP_DISK_3_DATA),A
6295: 18 07          JR    $629E

6297: 11 00 FF       LD    DE,$FF00
629a: 19             ADD   HL,DE
629b: 22 27 C0       LD    ($C027),HL
629e: 21 2D C0       LD    HL,$C02D
62a1: 35             DEC   (HL)
62a2: C0             RET   NZ

62a3: AF             XOR   A,A
62a4: 32 5E C4       LD    ($C45E),A
62a7: 3E 01          LD    A,#$01
62a9: 32 7C C4       LD    (NEXT_SLOT_IN_SCREEN_MESSAGE_QUEUE_2),A
62ac: C9             RET   

62ad: 3A 26 C0       LD    A,(MCP_DISK_3_DATA)
62b0: 21 00 C0       LD    HL,CPU_RAM_OR_GS_DISK_X_TANK_X_OR_MCP_TRON_LEGS-LC_TRAILS_TO_C1DF
62b3: 96             SUB   A,(HL)
62b4: 30 07          JR    NC,$62BD

62b6: ED 44          NEG   
62b8: FE 06          CP    A,#$06
62ba: D0             RET   NC

62bb: 18 03          JR    $62C0

62bd: FE 06          CP    A,#$06
62bf: D0             RET   NC

62c0: 3A 28 C0       LD    A,(IO_TRON_Y)
62c3: 21 01 C0       LD    HL,TANK_PIC_OR_MCP_ROWS_OF_BLOCKS
62c6: 96             SUB   A,(HL)
62c7: 30 07          JR    NC,$62D0

62c9: ED 44          NEG   
62cb: FE 0C          CP    A,#$0C
62cd: D0             RET   NC

62ce: 18 03          JR    $62D3

62d0: FE 06          CP    A,#$06
62d2: D0             RET   NC

62d3: FD 21 28 F0    LD    IY,MCP_BLOCKS_TOP_LEFT_MOVING_DOWN_AND_WRAP_TO_TOP_RIGHT_TO_F09F
62d7: FD 36 00 00    LD    (IY+$00),#$00
62db: FD 36 02 00    LD    (IY+$02),#$00
62df: FD 36 01 3F    LD    (IY+$01),#$3F
62e3: AF             XOR   A,A
62e4: 32 04 C0       LD    ($C004),A
62e7: 21 ED 62       LD    HL,DATA_USED_FOR_???_TO_62F1
62ea: C3 52 6F       JP    PROCESS_HIT_ON_TANK_SPIDER_MCP_BLOCK_OR_LC

DATA_USED_FOR_???_TO_62F1:
62ed: 00 00 00 05 00 

62f2: FD 21 2C F0    LD    IY,TANK_ENEMIES
62f6: 21 03 C0       LD    HL,$C003
62f9: 3A 02 C0       LD    A,(TANK_Y_OR_GS_DISK_Y)
62fc: FD 77 00       LD    (IY+$00),A
62ff: 3A 04 C0       LD    A,($C004)
6302: 47             LD    B,A
6303: 3A 01 C0       LD    A,(TANK_PIC_OR_MCP_ROWS_OF_BLOCKS)
6306: 4F             LD    C,A
6307: FE 80          CP    A,#$80
6309: 38 1B          JR    C,$6326

630b: FD 36 01 7C    LD    (IY+$01),#$7C
630f: 7E             LD    A,(HL)
6310: C6 02          ADD   A,#$02
6312: 77             LD    (HL),A
6313: CD 59 71       CALL  ADJUST_SPRITE_X_IF_FLIPPED_SCREEN
6316: FD 77 02       LD    (IY+$02),A
6319: CB 50          BIT   2,B
631b: 20 04          JR    NZ,$6321

631d: B9             CP    A,C
631e: D8             RET   C

631f: 18 19          JR    $633A

6321: FE F0          CP    A,#$F0
6323: D8             RET   C

6324: 18 31          JR    $6357

6326: FD 36 01 3C    LD    (IY+$01),#$3C
632a: 7E             LD    A,(HL)
632b: D6 02          SUB   A,#$02
632d: 77             LD    (HL),A
632e: CD 59 71       CALL  ADJUST_SPRITE_X_IF_FLIPPED_SCREEN
6331: FD 77 02       LD    (IY+$02),A
6334: CB 50          BIT   2,B
6336: 20 1C          JR    NZ,$6354

6338: B9             CP    A,C
6339: D0             RET   NC

633a: 3A 00 C0       LD    A,(CPU_RAM_OR_GS_DISK_X_TANK_X_OR_MCP_TRON_LEGS-LC_TRAILS_TO_C1DF)
633d: 32 28 F0       LD    (MCP_BLOCKS_TOP_LEFT_MOVING_DOWN_AND_WRAP_TO_TOP_RIGHT_TO_F09F),A
6340: 3A 01 C0       LD    A,(TANK_PIC_OR_MCP_ROWS_OF_BLOCKS)
6343: CD 59 71       CALL  ADJUST_SPRITE_X_IF_FLIPPED_SCREEN
6346: 32 2A F0       LD    ($F02A),A
6349: 3E 0C          LD    A,#$0C
634b: 32 29 F0       LD    ($F029),A
634e: 3E 04          LD    A,#$04
6350: 32 04 C0       LD    ($C004),A
6353: C9             RET   

6354: FE 24          CP    A,#$24
6356: D0             RET   NC

6357: 3E 01          LD    A,#$01
6359: 32 04 C0       LD    ($C004),A
635c: FD 21 2C F0    LD    IY,TANK_ENEMIES
6360: FD 36 02 00    LD    (IY+$02),#$00
6364: FD 36 00 00    LD    (IY+$00),#$00
6368: FD 36 01 3F    LD    (IY+$01),#$3F
636c: C9             RET   

636d: DD 21 E8 C1    LD    IX,$C1E8
6371: FD 21 18 F0    LD    IY,IO_OR_MCP_OR_TANK_DISKS_1_TO_4
6375: 3A 1E C4       LD    A,(MAX_DISKS_AT_A_TIME)
6378: 32 06 C4       LD    (MCP_DISK_NUMBER_BEING_PROCESSED),A
637b: DD CB 09 7E    BIT   7,(IX+$09)
637f: CA 21 64       JP    Z,$6421

6382: DD 35 08       DEC   (IX+$08)
6385: 20 06          JR    NZ,$638D

6387: CD DB 64       CALL  $64DB
638a: C3 21 64       JP    $6421

638d: DD 6E 00       LD    L,(IX+$00)
6390: DD 66 01       LD    H,(IX+$01)
6393: DD 5E 04       LD    E,(IX+$04)
6396: DD 56 05       LD    D,(IX+$05)
6399: 19             ADD   HL,DE
639a: DD 75 00       LD    (IX+$00),L
639d: DD 74 01       LD    (IX+$01),H
63a0: 7C             LD    A,H
63a1: FE 1A          CP    A,#$1A
63a3: 30 04          JR    NC,$63A9

63a5: 3E 1A          LD    A,#$1A
63a7: 18 18          JR    $63C1

63a9: FE EF          CP    A,#$EF
63ab: 38 04          JR    C,$63B1

63ad: 3E EE          LD    A,#$EE
63af: 18 10          JR    $63C1

63b1: CD E8 64       CALL  $64E8
63b4: 28 18          JR    Z,$63CE

63b6: DD 7E 01       LD    A,(IX+$01)
63b9: FE 80          CP    A,#$80
63bb: 3E 52          LD    A,#$52
63bd: 38 02          JR    C,$63C1

63bf: 3E AF          LD    A,#$AF
63c1: DD 77 01       LD    (IX+$01),A
63c4: EB             EX    DE,HL
63c5: CD 25 6F       CALL  $6F25
63c8: DD 75 04       LD    (IX+$04),L
63cb: DD 74 05       LD    (IX+$05),H
63ce: DD 7E 01       LD    A,(IX+$01)
63d1: FD 77 00       LD    (IY+$00),A
63d4: DD 6E 02       LD    L,(IX+$02)
63d7: DD 66 03       LD    H,(IX+$03)
63da: DD 5E 06       LD    E,(IX+$06)
63dd: DD 56 07       LD    D,(IX+$07)
63e0: 19             ADD   HL,DE
63e1: DD 75 02       LD    (IX+$02),L
63e4: DD 74 03       LD    (IX+$03),H
63e7: 7C             LD    A,H
63e8: FE F7          CP    A,#$F7
63ea: 38 04          JR    C,$63F0

63ec: 3E F6          LD    A,#$F6
63ee: 18 18          JR    $6408

63f0: FE 1E          CP    A,#$1E
63f2: 30 04          JR    NC,$63F8

63f4: 3E 1E          LD    A,#$1E
63f6: 18 10          JR    $6408

63f8: CD E8 64       CALL  $64E8
63fb: 28 18          JR    Z,$6415

63fd: DD 7E 03       LD    A,(IX+$03)
6400: FE 60          CP    A,#$60
6402: 3E 39          LD    A,#$39
6404: 38 02          JR    C,$6408

6406: 3E 8F          LD    A,#$8F
6408: DD 77 03       LD    (IX+$03),A
640b: EB             EX    DE,HL
640c: CD 25 6F       CALL  $6F25
640f: DD 75 06       LD    (IX+$06),L
6412: DD 74 07       LD    (IX+$07),H
6415: DD 7E 03       LD    A,(IX+$03)
6418: CD 59 71       CALL  ADJUST_SPRITE_X_IF_FLIPPED_SCREEN
641b: FD 77 02       LD    (IY+$02),A
641e: CD A6 64       CALL  $64A6
6421: 11 0A 00       LD    DE,$000A
6424: DD 19          ADD   IX,DE
6426: 11 04 00       LD    DE,$0004
6429: FD 19          ADD   IY,DE
642b: 21 06 C4       LD    HL,MCP_DISK_NUMBER_BEING_PROCESSED
642e: 35             DEC   (HL)
642f: C2 7B 63       JP    NZ,$637B

6432: C9             RET   

6433: DD 21 E8 C1    LD    IX,$C1E8
6437: FD 21 18 F0    LD    IY,IO_OR_MCP_OR_TANK_DISKS_1_TO_4
643b: DD 7E 09       LD    A,(IX+$09)
643e: B7             OR    A,A
643f: 28 0C          JR    Z,$644D

6441: 11 0A 00       LD    DE,$000A
6444: DD 19          ADD   IX,DE
6446: 11 04 00       LD    DE,$0004
6449: FD 19          ADD   IY,DE
644b: 18 EE          JR    $643B

644d: FD E5          PUSH  IY
644f: FD 2A 2E C0    LD    IY,($C02E)
6453: FD 6E 0F       LD    L,(IY+$0F)
6456: FD 66 10       LD    H,(IY+$10)
6459: DD 74 05       LD    (IX+$05),H
645c: DD 75 04       LD    (IX+$04),L
645f: FD 7E 0B       LD    A,(IY+$0B)
6462: B7             OR    A,A
6463: 3E 03          LD    A,#$03
6465: F2 6A 64       JP    P,$646A

6468: 3E FF          LD    A,#$FF
646a: 21 26 C0       LD    HL,MCP_DISK_3_DATA
646d: 86             ADD   A,(HL)
646e: DD 77 01       LD    (IX+$01),A
6471: DD 36 00 00    LD    (IX+$00),#$00
6475: 47             LD    B,A
6476: 3A 28 C0       LD    A,(IO_TRON_Y)
6479: C6 03          ADD   A,#$03
647b: FD 6E 11       LD    L,(IY+$11)
647e: FD 66 12       LD    H,(IY+$12)
6481: DD 74 07       LD    (IX+$07),H
6484: DD 75 06       LD    (IX+$06),L
6487: DD 77 03       LD    (IX+$03),A
648a: DD 36 02 00    LD    (IX+$02),#$00
648e: DD 36 09 81    LD    (IX+$09),#$81
6492: DD 36 08 18    LD    (IX+$08),#$18
6496: FD E1          POP   IY
6498: FD 70 00       LD    (IY+$00),B
649b: CD 59 71       CALL  ADJUST_SPRITE_X_IF_FLIPPED_SCREEN
649e: FD 77 02       LD    (IY+$02),A
64a1: FD 36 01 07    LD    (IY+$01),#$07
64a5: C9             RET   

64a6: 3A 26 C0       LD    A,(MCP_DISK_3_DATA)
64a9: DD 96 01       SUB   A,(IX+$01)
64ac: 30 08          JR    NC,$64B6

64ae: ED 44          NEG   
64b0: FE 0A          CP    A,#$0A
64b2: 30 22          JR    NC,$64D6

64b4: 18 04          JR    $64BA

64b6: FE 11          CP    A,#$11
64b8: 30 1C          JR    NC,$64D6

64ba: 3A 28 C0       LD    A,(IO_TRON_Y)
64bd: DD 96 03       SUB   A,(IX+$03)
64c0: 30 08          JR    NC,$64CA

64c2: ED 44          NEG   
64c4: FE 12          CP    A,#$12
64c6: 30 0E          JR    NC,$64D6

64c8: 18 04          JR    $64CE

64ca: FE 08          CP    A,#$08
64cc: 30 08          JR    NC,$64D6

64ce: DD CB 09 46    BIT   0,(IX+$09)
64d2: C0             RET   NZ

64d3: C3 DB 64       JP    $64DB

64d6: DD CB 09 86    RES   0,(IX+$09)
64da: C9             RET   

64db: DD 36 09 00    LD    (IX+$09),#$00
64df: FD 36 00 00    LD    (IY+$00),#$00
64e3: 21 1D C4       LD    HL,REMAINING_DISKS_AT_A_TIME
64e6: 34             INC   (HL)
64e7: C9             RET   

64e8: DD 7E 03       LD    A,(IX+$03)
64eb: FE 3A          CP    A,#$3A
64ed: 38 13          JR    C,$6502

64ef: FE 8F          CP    A,#$8F
64f1: 30 0F          JR    NC,$6502

64f3: DD 7E 01       LD    A,(IX+$01)
64f6: FE 53          CP    A,#$53
64f8: 38 08          JR    C,$6502

64fa: FE AF          CP    A,#$AF
64fc: 30 04          JR    NC,$6502

64fe: 3E 01          LD    A,#$01
6500: B7             OR    A,A
6501: C9             RET   

6502: AF             XOR   A,A
6503: C9             RET   

6504: 3A 1D C0       LD    A,($C01D)
6507: 32 06 C4       LD    (MCP_DISK_NUMBER_BEING_PROCESSED),A
650a: DD 21 30 C0    LD    IX,MCP_DISK_4_DATA
650e: FD 21 30 F0    LD    IY,IO_GRID_BUGS
6512: DD 22 0B C4    LD    (MCP_RAM_DATA_OF_BLOCK_HIT_BY_DISK),IX
6516: FD 22 09 C4    LD    (MCP_SPRITE_BLOCK_HIT_BY_DISK),IY
651a: DD CB 0A 4E    BIT   1,(IX+$0A)
651e: 28 05          JR    Z,$6525

6520: CD 54 65       CALL  $6554
6523: 18 12          JR    $6537

6525: DD CB 0A 46    BIT   0,(IX+$0A)
6529: 28 05          JR    Z,$6530

652b: CD 4C 67       CALL  $674C
652e: 18 13          JR    $6543

6530: DD CB 0A 7E    BIT   7,(IX+$0A)
6534: C4 DF 66       CALL  NZ,$66DF
6537: DD CB 0A 7E    BIT   7,(IX+$0A)
653b: 28 06          JR    Z,$6543

653d: CD 27 68       CALL  $6827
6540: CD 81 68       CALL  $6881
6543: 11 0B 00       LD    DE,$000B
6546: DD 19          ADD   IX,DE
6548: 11 04 00       LD    DE,$0004
654b: FD 19          ADD   IY,DE
654d: 21 06 C4       LD    HL,MCP_DISK_NUMBER_BEING_PROCESSED
6550: 35             DEC   (HL)
6551: 20 BF          JR    NZ,$6512

6553: C9             RET   

6554: DD 7E 09       LD    A,(IX+$09)
6557: B7             OR    A,A
6558: 28 03          JR    Z,$655D

655a: DD 35 09       DEC   (IX+$09)
655d: DD 35 08       DEC   (IX+$08)
6560: 20 12          JR    NZ,$6574

6562: DD 36 08 04    LD    (IX+$08),#$04
6566: FD 7E 01       LD    A,(IY+$01)
6569: FE 11          CP    A,#$11
656b: 3E 12          LD    A,#$12
656d: 28 02          JR    Z,$6571

656f: 3E 11          LD    A,#$11
6571: FD 77 01       LD    (IY+$01),A
6574: DD 66 01       LD    H,(IX+$01)
6577: DD 6E 00       LD    L,(IX+$00)
657a: DD 56 05       LD    D,(IX+$05)
657d: DD 5E 04       LD    E,(IX+$04)
6580: 19             ADD   HL,DE
6581: 7C             LD    A,H
6582: FE 21          CP    A,#$21
6584: DA 16 66       JP    C,$6616

6587: FE E8          CP    A,#$E8
6589: D2 16 66       JP    NC,$6616

658c: DD 74 01       LD    (IX+$01),H
658f: DD 75 00       LD    (IX+$00),L
6592: DD 7E 03       LD    A,(IX+$03)
6595: FE 95          CP    A,#$95
6597: 30 22          JR    NC,$65BB

6599: FE 33          CP    A,#$33
659b: 38 1E          JR    C,$65BB

659d: 7C             LD    A,H
659e: FE 4C          CP    A,#$4C
65a0: 38 19          JR    C,$65BB

65a2: FE B6          CP    A,#$B6
65a4: 30 15          JR    NC,$65BB

65a6: FE 80          CP    A,#$80
65a8: 3E 4B          LD    A,#$4B
65aa: 38 02          JR    C,$65AE

65ac: 3E B6          LD    A,#$B6
65ae: DD 77 01       LD    (IX+$01),A
65b1: CD F5 66       CALL  $66F5
65b4: DD CB 0A 4E    BIT   1,(IX+$0A)
65b8: C2 D2 66       JP    NZ,$66D2

65bb: DD 7E 01       LD    A,(IX+$01)
65be: FD 77 00       LD    (IY+$00),A
65c1: DD 66 03       LD    H,(IX+$03)
65c4: DD 6E 02       LD    L,(IX+$02)
65c7: DD 56 07       LD    D,(IX+$07)
65ca: DD 5E 06       LD    E,(IX+$06)
65cd: 19             ADD   HL,DE
65ce: 7C             LD    A,H
65cf: FE 1D          CP    A,#$1D
65d1: 38 43          JR    C,$6616

65d3: FE F0          CP    A,#$F0
65d5: 30 3F          JR    NC,$6616

65d7: DD 77 03       LD    (IX+$03),A
65da: DD 75 02       LD    (IX+$02),L
65dd: CD 59 71       CALL  ADJUST_SPRITE_X_IF_FLIPPED_SCREEN
65e0: FD 77 02       LD    (IY+$02),A
65e3: 7C             LD    A,H
65e4: FE 96          CP    A,#$96
65e6: 30 26          JR    NC,$660E

65e8: FE 33          CP    A,#$33
65ea: 38 22          JR    C,$660E

65ec: DD 7E 01       LD    A,(IX+$01)
65ef: FE 4C          CP    A,#$4C
65f1: 38 1B          JR    C,$660E

65f3: FE B6          CP    A,#$B6
65f5: 30 17          JR    NC,$660E

65f7: 7C             LD    A,H
65f8: FE 60          CP    A,#$60
65fa: 3E 32          LD    A,#$32
65fc: 38 02          JR    C,$6600

65fe: 3E 96          LD    A,#$96
6600: DD 77 03       LD    (IX+$03),A
6603: CD F5 66       CALL  $66F5
6606: DD CB 0A 4E    BIT   1,(IX+$0A)
660a: C2 D2 66       JP    NZ,$66D2

660d: C9             RET   

660e: DD 7E 09       LD    A,(IX+$09)
6611: B7             OR    A,A
6612: C0             RET   NZ

6613: C3 F5 66       JP    $66F5

6616: C3 D2 66       JP    $66D2

6619: DD 56 01       LD    D,(IX+$01)
661c: DD 5E 03       LD    E,(IX+$03)
661f: DD E5          PUSH  IX
6621: FD E5          PUSH  IY
6623: D5             PUSH  DE
6624: CD D2 66       CALL  $66D2
6627: DD 21 30 C0    LD    IX,MCP_DISK_4_DATA
662b: FD 21 30 F0    LD    IY,IO_GRID_BUGS
662f: 21 AE 66       LD    HL,DATA_USED_FOR_???_TO_66D1
6632: 3A 26 C0       LD    A,(MCP_DISK_3_DATA)
6635: 92             SUB   A,D
6636: 30 04          JR    NC,$663C

6638: 01 04 00       LD    BC,$0004
663b: 09             ADD   HL,BC
663c: 3A 28 C0       LD    A,(IO_TRON_Y)
663f: 93             SUB   A,E
6640: 30 02          JR    NC,$6644

6642: 23             INC   HL
6643: 23             INC   HL
6644: 7E             LD    A,(HL)
6645: 23             INC   HL
6646: 66             LD    H,(HL)
6647: 6F             LD    L,A
6648: 0E 04          LD    C,#$04
664a: 3A 1D C0       LD    A,($C01D)
664d: 47             LD    B,A
664e: 3A 06 C0       LD    A,($C006)
6651: B7             OR    A,A
6652: 28 54          JR    Z,$66A8

6654: DD CB 0A 7E    BIT   7,(IX+$0A)
6658: 20 42          JR    NZ,$669C

665a: D1             POP   DE
665b: D5             PUSH  DE
665c: DD 72 01       LD    (IX+$01),D
665f: FD 72 00       LD    (IY+$00),D
6662: DD 73 03       LD    (IX+$03),E
6665: 7B             LD    A,E
6666: CD 59 71       CALL  ADJUST_SPRITE_X_IF_FLIPPED_SCREEN
6669: FD 77 02       LD    (IY+$02),A
666c: 7E             LD    A,(HL)
666d: DD 77 04       LD    (IX+$04),A
6670: 23             INC   HL
6671: 7E             LD    A,(HL)
6672: DD 77 05       LD    (IX+$05),A
6675: 23             INC   HL
6676: 7E             LD    A,(HL)
6677: DD 77 06       LD    (IX+$06),A
667a: 23             INC   HL
667b: 7E             LD    A,(HL)
667c: DD 77 07       LD    (IX+$07),A
667f: 23             INC   HL
6680: FD 36 01 11    LD    (IY+$01),#$11
6684: DD 36 08 04    LD    (IX+$08),#$04
6688: DD 36 0A 82    LD    (IX+$0A),#$82
668c: DD 36 09 10    LD    (IX+$09),#$10
6690: 3A 06 C0       LD    A,($C006)
6693: 3D             DEC   A
6694: 32 06 C0       LD    ($C006),A
6697: 28 0F          JR    Z,$66A8

6699: 0D             DEC   C
669a: 28 0C          JR    Z,$66A8

669c: 11 0B 00       LD    DE,$000B
669f: DD 19          ADD   IX,DE
66a1: 11 04 00       LD    DE,$0004
66a4: FD 19          ADD   IY,DE
66a6: 10 AC          DJNZ  $6654

66a8: D1             POP   DE
66a9: FD E1          POP   IY
66ab: DD E1          POP   IX
66ad: C9             RET   

DATA_USED_FOR_???_TO_66D1:
66ae: B6 66 BA 66 BE 66 C2 66 D7 00 80 00 D7 00 80 FF 
66be: 29 FF 80 00 29 FF 80 FF D7 00 80 00 D7 00 80 FF 
66ce: 29 FF 80 00 

66d2: DD 36 0A 00    LD    (IX+$0A),#$00
66d6: FD 36 00 00    LD    (IY+$00),#$00
66da: 21 06 C0       LD    HL,$C006
66dd: 34             INC   (HL)
66de: C9             RET   

66df: DD 35 08       DEC   (IX+$08)
66e2: C0             RET   NZ

66e3: FD 7E 01       LD    A,(IY+$01)
66e6: FE 11          CP    A,#$11
66e8: CA 19 66       JP    Z,$6619

66eb: FD 34 01       INC   (IY+$01)
66ee: 3A 09 C0       LD    A,(MCP_TRON_Y_TANKS_DATA_VECTOR_x_2)
66f1: DD 77 08       LD    (IX+$08),A
66f4: C9             RET   

66f5: FD E5          PUSH  IY
66f7: DD 66 01       LD    H,(IX+$01)
66fa: DD 6E 03       LD    L,(IX+$03)
66fd: 0E 1C          LD    C,#$1C
66ff: 7D             LD    A,L
6700: FE 91          CP    A,#$91
6702: 30 08          JR    NC,$670C

6704: 0E 0E          LD    C,#$0E
6706: FE 33          CP    A,#$33
6708: 30 02          JR    NC,$670C

670a: 0E 14          LD    C,#$14
670c: FD 21 30 C0    LD    IY,MCP_DISK_4_DATA
6710: 06 28          LD    B,#$28
6712: FD 7E 0A       LD    A,(IY+$0A)
6715: E6 82          AND   A,#$82
6717: FE 80          CP    A,#$80
6719: 20 16          JR    NZ,$6731

671b: FD 7E 01       LD    A,(IY+$01)
671e: 94             SUB   A,H
671f: 30 02          JR    NC,$6723

6721: ED 44          NEG   
6723: B9             CP    A,C
6724: 30 0B          JR    NC,$6731

6726: FD 7E 03       LD    A,(IY+$03)
6729: 95             SUB   A,L
672a: 30 02          JR    NC,$672E

672c: ED 44          NEG   
672e: B9             CP    A,C
672f: 38 18          JR    C,$6749

6731: 11 0B 00       LD    DE,$000B
6734: FD 19          ADD   IY,DE
6736: 10 DA          DJNZ  $6712

6738: DD CB 0A 8E    RES   1,(IX+$0A)
673c: 3A 09 C0       LD    A,(MCP_TRON_Y_TANKS_DATA_VECTOR_x_2)
673f: DD 77 08       LD    (IX+$08),A
6742: FD E1          POP   IY
6744: FD 36 01 0E    LD    (IY+$01),#$0E
6748: C9             RET   

6749: FD E1          POP   IY
674b: C9             RET   

674c: DD 35 08       DEC   (IX+$08)
674f: C0             RET   NZ

6750: FD 7E 01       LD    A,(IY+$01)
6753: FE 03          CP    A,#$03
6755: CA D2 66       JP    Z,$66D2

6758: FD 34 01       INC   (IY+$01)
675b: DD 36 08 04    LD    (IX+$08),#$04
675f: C9             RET   

6760: FD 36 01 00    LD    (IY+$01),#$00
6764: DD 36 08 04    LD    (IX+$08),#$04
6768: DD 36 0A 81    LD    (IX+$0A),#$81
676c: 21 72 67       LD    HL,DATA_USED_FOR_???_TO_6776
676f: C3 52 6F       JP    PROCESS_HIT_ON_TANK_SPIDER_MCP_BLOCK_OR_LC

DATA_USED_FOR_???_TO_6776:
6772: 00 05 00 00 00 

6777: 3A 19 C4       LD    A,(HARDNESS_(OR_USER_LEVEL/CURRENT_PLAYER_DATA?))
677a: FE 09          CP    A,#$09
677c: 30 07          JR    NC,$6785

677e: 7E             LD    A,(HL)
677f: E6 7F          AND   A,#$7F
6781: 0E 00          LD    C,#$00
6783: 18 3D          JR    $67C2

6785: 7E             LD    A,(HL)
6786: E6 80          AND   A,#$80
6788: 28 26          JR    Z,$67B0

678a: CD 05 6F       CALL  PSEUDO_RANDOM_VALUE_IN_A_AND_C47A
678d: E6 08          AND   A,#$08
678f: 28 1F          JR    Z,$67B0

6791: 3E 02          LD    A,#$02
6793: 32 04 C0       LD    ($C004),A
6796: CD 05 6F       CALL  PSEUDO_RANDOM_VALUE_IN_A_AND_C47A
6799: CB 3F          SRL   A
679b: E6 0C          AND   A,#$0C
679d: E5             PUSH  HL
679e: 21 E2 68       LD    HL,$68E2
67a1: CD 00 6F       CALL  ADD_A_TO_HL_WITH_CARRY
67a4: 11 00 C0       LD    DE,CPU_RAM_OR_GS_DISK_X_TANK_X_OR_MCP_TRON_LEGS-LC_TRAILS_TO_C1DF
67a7: ED A0          LDI   
67a9: ED A0          LDI   
67ab: ED A0          LDI   
67ad: ED A0          LDI   
67af: E1             POP   HL
67b0: 3A 19 C4       LD    A,(HARDNESS_(OR_USER_LEVEL/CURRENT_PLAYER_DATA?))
67b3: 06 03          LD    B,#$03
67b5: 0E 00          LD    C,#$00
67b7: FE 09          CP    A,#$09
67b9: 38 05          JR    C,$67C0

67bb: 0C             INC   C
67bc: D6 06          SUB   A,#$06
67be: 10 F7          DJNZ  $67B7

67c0: 78             LD    A,B
67c1: 3C             INC   A
67c2: 32 09 C0       LD    (MCP_TRON_Y_TANKS_DATA_VECTOR_x_2),A
67c5: 23             INC   HL
67c6: 7E             LD    A,(HL)
67c7: 23             INC   HL
67c8: 46             LD    B,(HL)
67c9: 32 1D C0       LD    ($C01D),A
67cc: 90             SUB   A,B
67cd: 32 06 C0       LD    ($C006),A
67d0: 23             INC   HL
67d1: 7E             LD    A,(HL)
67d2: 32 0B C0       LD    ($C00B),A
67d5: 23             INC   HL
67d6: DD 21 30 C0    LD    IX,MCP_DISK_4_DATA
67da: FD 21 30 F0    LD    IY,IO_GRID_BUGS
67de: 7E             LD    A,(HL)
67df: DD 77 01       LD    (IX+$01),A
67e2: 23             INC   HL
67e3: FD 77 00       LD    (IY+$00),A
67e6: 7E             LD    A,(HL)
67e7: DD 77 03       LD    (IX+$03),A
67ea: CD 59 71       CALL  ADJUST_SPRITE_X_IF_FLIPPED_SCREEN
67ed: FD 77 02       LD    (IY+$02),A
67f0: 23             INC   HL
67f1: DD 36 0A 80    LD    (IX+$0A),#$80
67f5: 51             LD    D,C
67f6: 79             LD    A,C
67f7: B7             OR    A,A
67f8: 7E             LD    A,(HL)
67f9: 18 09          JR    $6804

67fb: FE 01          CP    A,#$01
67fd: 28 05          JR    Z,$6804

67ff: CB 3F          SRL   A
6801: 15             DEC   D
6802: 20 F7          JR    NZ,$67FB

6804: DD 77 08       LD    (IX+$08),A
6807: 23             INC   HL
6808: 79             LD    A,C
6809: B7             OR    A,A
680a: 7E             LD    A,(HL)
680b: 18 09          JR    $6816

680d: 51             LD    D,C
680e: FE 11          CP    A,#$11
6810: 28 04          JR    Z,$6816

6812: 3C             INC   A
6813: 15             DEC   D
6814: 20 F8          JR    NZ,$680E

6816: FD 77 01       LD    (IY+$01),A
6819: 23             INC   HL
681a: 11 0B 00       LD    DE,$000B
681d: DD 19          ADD   IX,DE
681f: 11 04 00       LD    DE,$0004
6822: FD 19          ADD   IY,DE
6824: 10 B8          DJNZ  $67DE

6826: C9             RET   

6827: 3A 1E C4       LD    A,(MAX_DISKS_AT_A_TIME)
682a: 47             LD    B,A
682b: FD 21 E8 C1    LD    IY,$C1E8
682f: 21 18 F0       LD    HL,IO_OR_MCP_OR_TANK_DISKS_1_TO_4
6832: FD CB 09 7E    BIT   7,(IY+$09)
6836: 28 39          JR    Z,$6871

6838: FD 7E 01       LD    A,(IY+$01)
683b: DD 96 01       SUB   A,(IX+$01)
683e: 30 02          JR    NC,$6842

6840: ED 44          NEG   
6842: FE 09          CP    A,#$09
6844: 30 2B          JR    NC,$6871

6846: FD 7E 03       LD    A,(IY+$03)
6849: DD 96 03       SUB   A,(IX+$03)
684c: 30 02          JR    NC,$6850

684e: ED 44          NEG   
6850: FE 08          CP    A,#$08
6852: 30 1D          JR    NC,$6871

6854: C5             PUSH  BC
6855: FD E5          PUSH  IY
6857: DD E1          POP   IX
6859: FD E5          PUSH  IY
685b: E5             PUSH  HL
685c: FD E1          POP   IY
685e: E5             PUSH  HL
685f: CD DB 64       CALL  $64DB
6862: DD 2A 0B C4    LD    IX,(MCP_RAM_DATA_OF_BLOCK_HIT_BY_DISK)
6866: FD 2A 09 C4    LD    IY,(MCP_SPRITE_BLOCK_HIT_BY_DISK)
686a: CD 60 67       CALL  $6760
686d: E1             POP   HL
686e: FD E1          POP   IY
6870: C1             POP   BC
6871: 11 0A 00       LD    DE,$000A
6874: FD 19          ADD   IY,DE
6876: 11 04 00       LD    DE,$0004
6879: 19             ADD   HL,DE
687a: 10 B6          DJNZ  $6832

687c: FD 2A 09 C4    LD    IY,(MCP_SPRITE_BLOCK_HIT_BY_DISK)
6880: C9             RET   

6881: 3A 24 C0       LD    A,(IO_TOWER_ALWAYS_80?)
6884: E6 8E          AND   A,#$8E
6886: FE 80          CP    A,#$80
6888: C0             RET   NZ

6889: 3A 26 C0       LD    A,(MCP_DISK_3_DATA)
688c: DD 96 01       SUB   A,(IX+$01)
688f: 30 07          JR    NC,$6898

6891: ED 44          NEG   
6893: FE 09          CP    A,#$09
6895: D0             RET   NC

6896: 18 03          JR    $689B

6898: FE 09          CP    A,#$09
689a: D0             RET   NC

689b: 3A 28 C0       LD    A,(IO_TRON_Y)
689e: DD 96 03       SUB   A,(IX+$03)
68a1: 30 10          JR    NC,$68B3

68a3: ED 44          NEG   
68a5: 47             LD    B,A
68a6: FD 7E 01       LD    A,(IY+$01)
68a9: FE 11          CP    A,#$11
68ab: 0E 10          LD    C,#$10
68ad: 28 10          JR    Z,$68BF

68af: 0E 12          LD    C,#$12
68b1: 18 0C          JR    $68BF

68b3: 47             LD    B,A
68b4: FD 7E 01       LD    A,(IY+$01)
68b7: FE 11          CP    A,#$11
68b9: 0E 0F          LD    C,#$0F
68bb: 28 02          JR    Z,$68BF

68bd: 0E 0A          LD    C,#$0A
68bf: 78             LD    A,B
68c0: B9             CP    A,C
68c1: D0             RET   NC             ;Invincibility I/O Tower Game = C9 (RET)

68c2: CD 9F 61       CALL  $619F
68c5: C9             RET   

DATA_TO_?_USED_AT_5D19:
68c6: 00 00 00 00 00 00 01 86 00 00 00 00 00 00 00 00 
68d6: 00 00 00 00 00 00 00 00 01 00 01 00 BD 37 BD F0 
68e6: 35 37 35 F0 35 D0 35 20 D0 D0 D0 20 89 59 89 59 
68f6: 89 59 89 59 00 0D 69 1D 69 39 69 61 69 99 69 01 
6906: 6A 35 6A 6D 6A C9 6A 08 0C 03 C8 40 70 01 11 C8 
6916: 70 01 11 80 24 01 11 07 14 06 64 C8 70 01 11 40 
6926: 70 01 11 E8 48 02 11 28 48 02 11 60 24 02 11 A0 
6936: 24 02 11 06 1C 09 3C C8 70 01 11 40 70 01 11 E8 
6946: 48 02 11 28 48 02 11 60 98 02 11 A0 98 02 11 84 
6956: 98 04 11 60 24 01 11 A0 24 01 11 05 1E 0D 1E 40 
6966: 70 01 0E C8 70 01 0E 40 48 02 0E C8 48 02 0E 60 
6976: 98 02 0E A0 98 02 0E 80 98 02 0E 40 C8 04 0E 50 
6986: B0 04 0E C0 C8 04 0E B0 B0 05 0E 60 24 05 0E A0 
6996: 24 01 0E 86 1E 19 14 48 24 01 0E 58 24 01 0E 68 
69a6: 24 01 0E 78 24 01 0E 88 24 01 0E 98 24 01 0E A8 
69b6: 24 01 0E B8 24 01 0E C8 24 01 0E C8 40 01 0E C8 
69c6: 58 01 0E C8 70 01 0E C8 88 01 0E B0 98 01 0E 98 
69d6: A8 01 0E 84 B4 01 0E 74 C0 01 0E 64 CC 01 0E 54 
69e6: EC 01 0E 30 EC 01 0E 48 EC 01 0E 60 EC 01 0E 78 
69f6: EC 01 0E 90 EC 01 0E B8 EC 01 0E 05 1E 0C 0A 40 
6a06: 70 01 0E C8 70 01 0E B0 88 01 0E 58 88 01 0E 98 
6a16: A0 01 0E 70 A0 01 0E 80 B8 01 0E 88 B8 01 0E A0 
6a26: D0 01 0E 68 D0 01 0E 50 E8 01 0E B8 E8 01 0E 06 
6a36: 28 0D FF 80 98 01 11 C8 24 01 11 40 24 01 11 40 
6a46: 40 01 11 C8 40 01 11 C8 60 01 11 40 60 01 11 40 
6a56: 80 01 11 C8 80 01 11 C8 A0 01 11 40 A0 01 11 40 
6a66: C0 01 11 C8 C0 01 11 86 28 16 FF 40 98 01 11 50 
6a76: 98 01 11 60 98 01 11 70 98 01 11 80 98 01 11 90 
6a86: 98 01 11 A0 98 01 11 B0 98 01 11 C0 98 01 11 D0 
6a96: 98 01 11 E0 98 01 11 48 B0 01 11 58 B0 01 11 68 
6aa6: B0 01 11 78 B0 01 11 88 B0 01 11 98 B0 01 11 A8 
6ab6: B0 01 11 B8 B0 01 11 C8 B0 01 11 D8 B0 01 11 E8 
6ac6: B0 01 11 86 28 1B FF 48 24 14 0E 68 24 14 0E 88 
6ad6: 24 14 0E 48 40 14 0E B9 40 14 0E C9 50 14 0E 38 
6ae6: 50 14 0E 28 60 14 0E D9 60 14 0E C9 70 14 0E 38 
6af6: 70 14 0E 28 80 14 0E B9 80 14 0E A0 98 14 0E 60 
6b06: 98 14 0E 80 A8 14 0E 70 B8 14 0E 90 B8 14 0E 60 
6b16: C8 14 0E A0 C8 14 0E B0 D8 14 0E 50 D8 14 0E 60 
6b26: EC 14 0E A0 EC 14 0E 90 EC 14 0E 70 EC 14 0E 80 
6b36: EC 14 0E 

*** Table of 16x4 bytes used by joystick direction input @5FB3. There are 8 valid
*** inputs (D,U,R,L,DR,DL,UR,UL).  All others (no input or invalid input) are set
*** to all zeroes effectively giving you no input.
JOYSTICK_INPUT_TABLE:
6b39: 00 00 00 00 
6b3d: 00 FE 00 00 
6b41: 00 02 00 00 
6b45: 00 00 00 00 
6b49: 00 00 00 FE 
6b4d: 00 FE 00 FE 
6b51: 00 02 00 FE 
6b55: 00 00 00 00 
6b59: 00 00 00 02 
6b5d: 00 FE 00 02 
6b61: 00 02 00 02 
6b65: 00 00 00 00 
6b69: 00 00 00 00 
6b6d: 00 00 00 00 
6b71: 00 00 00 00 
6b75: 00 00 00 00 

DATA_FOR_SETTING_UP_TRON_SPRITES?:
6b79: 9D 9E 9F A0 AB 00 01 AC 00 02 AA 07 F9 FA 03 00 
6b89: 04 00 00 9D 9E 9F A0 AB 00 01 AC 00 02 E9 07 03 
6b99: FA 03 D8 03 AC 00 9D 9E 9F A0 AB 00 01 AC 00 02 
6ba9: E8 07 03 FA 03 AC 03 58 01 9D 9E 9F A0 AB 00 01 
6bb9: AC 00 02 E7 07 03 FA 03 64 03 F4 01 9D 9E 9F A0 
6bc9: AB 00 01 AC 00 02 E6 07 03 FA 03 00 03 84 02 9D 
6bd9: 9E 9F A0 AB 00 01 AC 00 02 E5 07 03 FA 03 84 02 
6be9: 00 03 9D 9E 9F A0 AB 00 01 AC 00 02 E4 07 03 FA 
6bf9: 03 F4 01 64 03 9D 9E 9F A0 AB 00 01 AC 00 02 E3 
6c09: 07 03 FA 03 58 01 AC 03 9D 9E 9F A0 AB 00 01 AC 
6c19: 00 02 E2 07 03 FA 03 AC 00 D8 03 9D 9E 9F A0 AB 
6c29: 00 01 AC 00 02 E1 07 03 FA 03 00 00 00 04 1D 1E 
6c39: 1F 20 2B 00 01 2C 00 02 62 FA 02 06 03 54 FF D8 
6c49: 03 1D 1E 1F 20 2B 00 01 2C 00 02 63 FA 02 06 03 
6c59: A8 FE AC 03 1D 1E 1F 20 2B 00 01 2C 00 02 64 FA 
6c69: 02 06 03 0C FE 64 03 1D 1E 1F 20 2B 00 01 2C 00 
6c79: 02 65 FA 02 06 03 7C FD 00 03 1D 1E 1F 20 2B 00 
6c89: 01 2C 00 02 66 FA 02 06 03 00 FD 84 02 1D 1E 1F 
6c99: 20 2B 00 01 2C 00 02 67 FA 02 06 03 9C FC F4 01 
6ca9: 1D 1E 1F 20 2B 00 01 2C 00 02 68 FA 02 06 03 54 
6cb9: FC 58 01 1D 1E 1F 20 2B 00 01 2C 00 02 69 FA 02 
6cc9: 06 03 28 FC AC 00 1D 1E 1F 20 2B 00 01 2C 00 02 
6cd9: 2A FA F9 06 03 00 FC 00 00 1D 1E 1F 20 2B 00 01 
6ce9: 2C 00 02 29 FA F9 06 03 28 FC 54 FF 1D 1E 1F 20 
6cf9: 2B 00 01 2C 00 02 28 FA F9 06 03 54 FC A8 FE 1D 
6d09: 1E 1F 20 2B 00 01 2C 00 02 27 FA F9 06 03 9C FC 
6d19: 0C FE 1D 1E 1F 20 2B 00 01 2C 00 02 26 FA F9 06 
6d29: 03 00 FD 7C FD 1D 1E 1F 20 2B 00 01 2C 00 02 25 
6d39: FA F9 06 03 7C FD 00 FD 1D 1E 1F 20 2B 00 01 2C 
6d49: 00 02 24 FA F9 06 03 0C FE 9C FC 1D 1E 1F 20 2B 
6d59: 00 01 2C 00 02 23 FA F9 06 03 A8 FE 54 FC 1D 1E 
6d69: 1F 20 2B 00 01 2C 00 02 22 FA F9 06 03 54 FF 28 
6d79: FC 1D 1E 1F 20 2B 00 01 2C 00 02 21 FA F9 06 03 
6d89: 00 00 00 FC 9D 9E 9F A0 AB 00 01 AC 00 02 A2 07 
6d99: F9 FA 03 AC 00 28 FC 9D 9E 9F A0 AB 00 01 AC 00 
6da9: 02 A3 07 F9 FA 03 58 01 54 FC 9D 9E 9F A0 AB 00 
6db9: 01 AC 00 02 A4 07 F9 FA 03 F4 01 9C FC 9D 9E 9F 
6dc9: A0 AB 00 01 AC 00 02 A5 07 F9 FA 03 84 02 00 FD 
6dd9: 9D 9E 9F A0 AB 00 01 AC 00 02 A6 07 F9 FA 03 00 
6de9: 03 7C FD 9D 9E 9F A0 AB 00 01 AC 00 02 A7 07 F9 
6df9: FA 03 64 03 0C FE 9D 9E 9F A0 AB 00 01 AC 00 02 
6e09: A8 07 F9 FA 03 AC 03 A8 FE 9D 9E 9F A0 AB 00 01 
6e19: AC 00 02 A9 07 F9 FA 03 D8 03 54 FF AF F9 3C BE 
6e29: BA 3F F1 F5 34 B3 9F 3F BF B0 69 AF BE A3 31 B3 
6e39: B5 BF A1 99 29 A1 F9 B5 30 3A DC 13 B3 3D CB 3D 
6e49: BE 7C B1 E8 32 E7 FB BE 2B BD 35 B9 BE 43 3C 78 
6e59: 9B 25 F0 2D EF ED BD 3C BC BF BE B5 33 7F BF A9 
6e69: BC 7B FB BA 3F 1D FD 67 B4 EB 32 BE B9 79 3D 36 
6e79: 9C 3F A1 74 3D F1 BB 50 C1 54 4C 41 52 DE 44 C1 
6e89: 59 9D 40 09 42 C0 4A 84 C6 50 8C 50 51 C7 4B 53 
6e99: 42 C2 78 D1 C0 41 CD CD 46 16 0C 42 57 50 CF 06 
6ea9: 86 48 CE C0 48 82 4C D4 C8 0E 4F 58 69 D9 C7 43 
6eb9: 52 02 88 42 40 40 63 8A 4B C8 49 58 1F C2 92 48 
6ec9: D2 83 CC DC 06 C0 C8 4C 2C 5B 40 C0 EE 51 30 CC 
6ed9: D1 9A C2 D2 86 50 04 4B 85 51 90 C0 9A 40 4A 02 
6ee9: 8D 00 04 C8 6D C1 D8 60 47 CC D6 D5 8B 42 C2 40 
6ef9: 61 C1 43 D6 01 E2 81 

ADD_A_TO_HL_WITH_CARRY:
6f00: 85             ADD   A,L
6f01: 6F             LD    L,A
6f02: D0             RET   NC

6f03: 24             INC   H
6f04: C9             RET   

PSEUDO_RANDOM_VALUE_IN_A_AND_C47A:
6f05: 3A 7A C4       LD    A,(PSEUDO_RANDOM_VALUE_LAST_GENERATED)
6f08: 07             RLCA  
6f09: 30 02          JR    NC,$6F0D

6f0b: EE 2B          XOR   A,#$2B
6f0d: C5             PUSH  BC
6f0e: 47             LD    B,A
6f0f: ED 5F          LD    A,R
6f11: A8             XOR   A,B
6f12: C1             POP   BC
6f13: 32 7A C4       LD    (PSEUDO_RANDOM_VALUE_LAST_GENERATED),A
6f16: C9             RET   

RESET_WATCHDOG_UNTIL_C400_IS_ONE:
6f17: 3A 00 C4       LD    A,($C400)
6f1a: D3 E0          OUT   (IO_WATCHDOG_RESET),A
6f1c: FE 01          CP    A,#$01
6f1e: 38 F7          JR    C,RESET_WATCHDOG_UNTIL_C400_IS_ONE


*** This line is hit for every tick of the teletype (which strikes twice per character)
6f20: AF             XOR   A,A
6f21: 32 00 C4       LD    ($C400),A
6f24: C9             RET   

6f25: 7C             LD    A,H
6f26: 2F             CPL   
6f27: 67             LD    H,A
6f28: 7D             LD    A,L
6f29: 2F             CPL   
6f2a: 6F             LD    L,A
6f2b: 23             INC   HL
6f2c: C9             RET   


*** Set color RAMs in some way?
COPY_10_FROM_HL_TO_FFC0:
6f2d: 06 10          LD    B,#$10
6f2f: DD 21 C0 FF    LD    IX,$FFC0
6f33: 18 06          JR    $6F3B


*** Another entry point to: Set color RAMs in some way?
COPY_20_FROM_HL_TO_FF80:
6f35: 06 20          LD    B,#$20
6f37: DD 21 80 FF    LD    IX,COLOR_RAM_TO_FFFF
6f3b: 11 02 00       LD    DE,$0002

*** Color RAM: if bit 8 of word set, write to odd byte. Else, write to even byte
6f3e: 7E             LD    A,(HL)
6f3f: 23             INC   HL
6f40: B7             OR    A,A
6f41: 7E             LD    A,(HL)
6f42: 20 05          JR    NZ,$6F49

6f44: DD 77 00       LD    (IX+$00),A
6f47: 18 03          JR    $6F4C

6f49: DD 77 01       LD    (IX+$01),A
6f4c: 23             INC   HL
6f4d: DD 19          ADD   IX,DE
6f4f: 10 ED          DJNZ  $6F3E

6f51: C9             RET   


*** HL passed in
PROCESS_HIT_ON_TANK_SPIDER_MCP_BLOCK_OR_LC:
6f52: 3A 7B C4       LD    A,(IN_ATTRACT_MODE?)
6f55: B7             OR    A,A
6f56: C0             RET   NZ

6f57: 11 4A C4       LD    DE,$C44A
6f5a: 3A 5F C4       LD    A,(PLAYER_NUMBER)
6f5d: B7             OR    A,A
6f5e: 28 03          JR    Z,$6F63

6f60: 11 50 C4       LD    DE,$C450
6f63: 06 05          LD    B,#$05
6f65: 0E 00          LD    C,#$00
6f67: 1A             LD    A,(DE)
6f68: 86             ADD   A,(HL)
6f69: 81             ADD   A,C
6f6a: 0E 00          LD    C,#$00
6f6c: FE 0A          CP    A,#$0A
6f6e: 38 03          JR    C,$6F73

6f70: D6 0A          SUB   A,#$0A
6f72: 0C             INC   C
6f73: 12             LD    (DE),A
6f74: 23             INC   HL
6f75: 1B             DEC   DE
6f76: 10 EF          DJNZ  $6F67

6f78: EB             EX    DE,HL
6f79: 79             LD    A,C
6f7a: B7             OR    A,A
6f7b: 28 08          JR    Z,$6F85

6f7d: 34             INC   (HL)
6f7e: 7E             LD    A,(HL)
6f7f: FE 0A          CP    A,#$0A
6f81: 38 02          JR    C,$6F85

6f83: 36 00          LD    (HL),#$00
6f85: DD E5          PUSH  IX
6f87: FD E5          PUSH  IY
6f89: DD 21 20 C4    LD    IX,CURRENT_PLAYER_DATA_BYTE_07
6f8d: 23             INC   HL
6f8e: 7E             LD    A,(HL)
6f8f: DD BE 00       CP    A,(IX+$00)
6f92: 38 1F          JR    C,$6FB3

6f94: 20 07          JR    NZ,$6F9D

6f96: 23             INC   HL
6f97: 7E             LD    A,(HL)
6f98: DD BE 01       CP    A,(IX+$01)
6f9b: 38 16          JR    C,$6FB3

6f9d: 21 1F C4       LD    HL,LIVES_REMAINING
6fa0: 34             INC   (HL)
6fa1: DD 36 01 FF    LD    (IX+$01),#$FF
6fa5: DD 36 00 0F    LD    (IX+$00),#$0F
6fa9: 3E 01          LD    A,#$01
6fab: 32 65 C4       LD    ($C465),A
6fae: 0E 11          LD    C,#$11
6fb0: CD B8 6F       CALL  PUT_C_ON_STACK_TO_SEND_TO_AUDIO
6fb3: FD E1          POP   IY
6fb5: DD E1          POP   IX
6fb7: C9             RET   

PUT_C_ON_STACK_TO_SEND_TO_AUDIO:
6fb8: F3             DI    
6fb9: 2A 80 C4       LD    HL,($C480)
6fbc: 71             LD    (HL),C
6fbd: 23             INC   HL
6fbe: 22 80 C4       LD    ($C480),HL
6fc1: 21 6C C4       LD    HL,$C46C
6fc4: 34             INC   (HL)
6fc5: FB             EI    
6fc6: C9             RET   


*** Clear background screen (set graphic to 51 and attributes to 5E)
CLEAR_BACKGROUND:
6fc7: CD 17 6F       CALL  RESET_WATCHDOG_UNTIL_C400_IS_ONE
6fca: CD 17 6F       CALL  RESET_WATCHDOG_UNTIL_C400_IS_ONE
6fcd: F3             DI    
6fce: AF             XOR   A,A
6fcf: 32 6B C4       LD    (ONLY_GET_UPDATED_WHEN_INTERRUPTS_ARE_DISABLED2!),A
6fd2: 32 69 C4       LD    (ONLY_GET_UPDATED_WHEN_INTERRUPTS_ARE_DISABLED1!),A
6fd5: 21 90 C4       LD    HL,$C490
6fd8: 22 8E C4       LD    (ONLY_GET_UPDATED_WHEN_INTERRUPTS_ARE_DISABLED3!),HL
6fdb: FB             EI    
6fdc: 21 00 F8       LD    HL,BACKGROUND_VIDEO_RAM_TO_FF7F
6fdf: 01 C0 03       LD    BC,$03C0
6fe2: 36 5E          LD    (HL),#$5E
6fe4: 23             INC   HL
6fe5: 36 51          LD    (HL),#$51
6fe7: 23             INC   HL
6fe8: 0B             DEC   BC
6fe9: 78             LD    A,B
6fea: B1             OR    A,C
6feb: 20 F5          JR    NZ,$6FE2

6fed: C9             RET   

SET_C40D_TO_FDD0_AND_ADD_A_MESSAGE_TO_Q:
6fee: 21 CC FD       LD    HL,$FDCC
6ff1: 22 0D C4       LD    ($C40D),HL
INCREASE_C40D_BY_4_AND_ADD_A_MESSAGE_TO_Q:
6ff4: ED 4B 0D C4    LD    BC,($C40D)
6ff8: 21 04 00       LD    HL,$0004
6ffb: 09             ADD   HL,BC
6ffc: 22 0D C4       LD    ($C40D),HL

*** Add a message to the output queue (max of 6) DE is source and BC is destination
*** if Q is full, call RESET_WATCHDOG_UNTIL_C400_IS_ONE
ADD_A_MESSAGE_TO_Q:
6fff: 3A 66 C4       LD    A,(NUMBER_OF_SCREEN_MESSAGES_FROM_C4D6)
7002: FE 06          CP    A,#$06
7004: 38 05          JR    C,$700B

7006: CD 17 6F       CALL  RESET_WATCHDOG_UNTIL_C400_IS_ONE
7009: 18 F4          JR    ADD_A_MESSAGE_TO_Q

700b: F3             DI    
700c: 2A D6 C4       LD    HL,(SCREEN_MESSAGE_QUEUE_TO_CD60?)
700f: 71             LD    (HL),C
7010: 23             INC   HL
7011: 70             LD    (HL),B
7012: 23             INC   HL
7013: 73             LD    (HL),E
7014: 23             INC   HL
7015: 72             LD    (HL),D
7016: 23             INC   HL
7017: 22 D6 C4       LD    (SCREEN_MESSAGE_QUEUE_TO_CD60?),HL
701a: 21 66 C4       LD    HL,NUMBER_OF_SCREEN_MESSAGES_FROM_C4D6
701d: 34             INC   (HL)
701e: FB             EI    
701f: C9             RET   

ZERO_RAM_C000-C418:
7020: 21 19 C4       LD    HL,HARDNESS_(OR_USER_LEVEL/CURRENT_PLAYER_DATA?)
7023: C3 29 70       JP    ZERO_RAM_C000-C479

ZERO_RAM_C000-C450:
7026: 21 51 C4       LD    HL,$C451
ZERO_RAM_C000-C479:
7029: 2D             DEC   L
702a: 36 00          LD    (HL),#$00
702c: 20 FB          JR    NZ,ZERO_RAM_C000-C479

702e: 25             DEC   H
702f: 7C             LD    A,H
7030: FE C0          CP    A,#$C0
7032: 30 F5          JR    NC,ZERO_RAM_C000-C479

7034: C9             RET   

BACKGROUND_RAM_FILL_FROM_HL_0780_BYTES_TO_F800:
7035: CD 17 6F       CALL  RESET_WATCHDOG_UNTIL_C400_IS_ONE
7038: CD 17 6F       CALL  RESET_WATCHDOG_UNTIL_C400_IS_ONE
703b: 11 00 F8       LD    DE,BACKGROUND_VIDEO_RAM_TO_FF7F
703e: 01 80 07       LD    BC,$0780
7041: ED B0          LDIR  
7043: 3E 01          LD    A,#$01
7045: 32 65 C4       LD    ($C465),A
7048: C9             RET   


*** Initialize sprites (X=0, picture=3F, Y=0, unused=0)
INITIALIZE_SPRITES:
7049: 21 00 F0       LD    HL,SPRITE_RAM
704c: 06 80          LD    B,#$80
704e: 36 00          LD    (HL),#$00
7050: 23             INC   HL
7051: 36 3F          LD    (HL),#$3F
7053: 23             INC   HL
7054: 36 00          LD    (HL),#$00
7056: 23             INC   HL
7057: 36 00          LD    (HL),#$00
7059: 23             INC   HL
705a: 10 F2          DJNZ  $704E

705c: C9             RET   

ADD_MESSAGE_TO_Q:
705d: 3A 66 C4       LD    A,(NUMBER_OF_SCREEN_MESSAGES_FROM_C4D6)
7060: FE 0A          CP    A,#$0A
7062: 38 05          JR    C,$7069

7064: CD 17 6F       CALL  RESET_WATCHDOG_UNTIL_C400_IS_ONE
7067: 18 F4          JR    ADD_MESSAGE_TO_Q

7069: F3             DI    
706a: 2A 8E C4       LD    HL,(ONLY_GET_UPDATED_WHEN_INTERRUPTS_ARE_DISABLED3!)
706d: 71             LD    (HL),C
706e: 23             INC   HL
706f: 70             LD    (HL),B
7070: 23             INC   HL
7071: 73             LD    (HL),E
7072: 23             INC   HL
7073: 72             LD    (HL),D
7074: 23             INC   HL
7075: 22 8E C4       LD    (ONLY_GET_UPDATED_WHEN_INTERRUPTS_ARE_DISABLED3!),HL
7078: 21 69 C4       LD    HL,ONLY_GET_UPDATED_WHEN_INTERRUPTS_ARE_DISABLED1!
707b: 34             INC   (HL)
707c: FB             EI    
707d: C9             RET   

ADD_MESSAGE_TO_Q2:
707e: 3A 67 C4       LD    A,(NUMBER_OF_SCREEN_MESSAGES_2_FROM_C4BE)
7081: FE 06          CP    A,#$06
7083: 38 05          JR    C,$708A


*** message queue 2 is full!  Reset watchdog and spin until MQ2 count < 6
7085: CD 17 6F       CALL  RESET_WATCHDOG_UNTIL_C400_IS_ONE
7088: 18 F4          JR    ADD_MESSAGE_TO_Q2

708a: F3             DI    
708b: 2A BC C4       LD    HL,($C4BC)
708e: 71             LD    (HL),C
708f: 23             INC   HL
7090: 70             LD    (HL),B
7091: 23             INC   HL
7092: 73             LD    (HL),E
7093: 23             INC   HL
7094: 72             LD    (HL),D
7095: 23             INC   HL
7096: 22 BC C4       LD    ($C4BC),HL
7099: 21 67 C4       LD    HL,NUMBER_OF_SCREEN_MESSAGES_2_FROM_C4BE
709c: 34             INC   (HL)
709d: FB             EI    
709e: C9             RET   


*** Countdown 30 frames by decrementing c403
*** Countdown seconds by decrementing c402 every time c403 hits 00
PROCESS_GAME_SELECT_COUNTDOWN_TIMER:
709f: 21 03 C4       LD    HL,COUNTDOWN_TIMER_FRAMES
70a2: 35             DEC   (HL)
70a3: C0             RET   NZ

70a4: 36 1E          LD    (HL),#$1E
70a6: 21 02 C4       LD    HL,COUNTDOWN_TIMER_SECONDS
70a9: 35             DEC   (HL)
70aa: 18 00          JR    PUT_GAME_SELECT_COUNTDOWN_DIGIT_MESSAGE_IN_Q2

PUT_GAME_SELECT_COUNTDOWN_DIGIT_MESSAGE_IN_Q2:
70ac: 21 CD 70       LD    HL,GAME_SELECT_COUNTDOWN_DIGITS
70af: 3A 02 C4       LD    A,(COUNTDOWN_TIMER_SECONDS)
70b2: 87             ADD   A,A
70b3: 87             ADD   A,A
70b4: CD 00 6F       CALL  ADD_A_TO_HL_WITH_CARRY
70b7: 5E             LD    E,(HL)
70b8: 23             INC   HL
70b9: 56             LD    D,(HL)
70ba: 23             INC   HL
70bb: 01 E8 FB       LD    BC,$FBE8
70be: E5             PUSH  HL
70bf: CD 7E 70       CALL  ADD_MESSAGE_TO_Q2
70c2: E1             POP   HL
70c3: 5E             LD    E,(HL)
70c4: 23             INC   HL
70c5: 56             LD    D,(HL)
70c6: 23             INC   HL
70c7: 01 EA FB       LD    BC,$FBEA

*** game select countdown digits vectors
*** each digit needs 2 vectors!  Why?  This could be simplified!
70ca: C3 7E 70       JP    ADD_MESSAGE_TO_Q2

GAME_SELECT_COUNTDOWN_DIGITS:
70cd: F5 70 FA 70 FF 70 04 71 09 71 0E 71 13 71 18 71 
70dd: 1D 71 22 71 27 71 2C 71 31 71 36 71 3B 71 40 71 
70ed: 45 71 4A 71 4F 71 54 71 

70f5: B2 51 C0 51 00 

70fa: C2 51 C3 51 00 

70ff: A8 51 5E 51 00 

7104: A9 51 5E 51 00 

7109: AA 51 AC 51 00 

710e: AB 51 AD 51 00 

7113: AE 51 B0 51 00 

7118: AF 51 B1 51 00 

711d: B2 51 B4 51 00 

7122: B3 51 B5 51 00 

7127: B2 51 B7 51 00 B6 51 B8 51 00 B2 51 B7 51 00 B9 
7137: 51 B8 51 00 BA 51 AC 51 00 5E 51 BB 51 00 BC 51 
7147: BE 51 00 BD 51 B8 51 00 B2 51 C0 51 00 BF 51 C1 
7157: 51 00 


*** Return C687 in A.  If non-zero, subtract 7.  Do not affect other registers.
ADJUST_SPRITE_X_IF_FLIPPED_SCREEN:
7159: C5             PUSH  BC
715a: 47             LD    B,A
715b: 3A 87 C6       LD    A,(FLIP_SCREEN_IF_VALUE_IS_01)
715e: B7             OR    A,A
715f: 78             LD    A,B
7160: C1             POP   BC
7161: C8             RET   Z

7162: D6 07          SUB   A,#$07
7164: C9             RET   


*** Return C687 in A.  If non-zero, subtract 2.  Do not affect other registers.
ADJUST_SPRITE_Y_IF_FLIPPED_SCREEN:
7165: C5             PUSH  BC
7166: 47             LD    B,A
7167: 3A 87 C6       LD    A,(FLIP_SCREEN_IF_VALUE_IS_01)
716a: B7             OR    A,A
716b: 78             LD    A,B
716c: C1             POP   BC
716d: C8             RET   Z

716e: D6 02          SUB   A,#$02
7170: C9             RET   


*** Data used by what for why?
7171: 3F D6 3E AA 1C 68 0F 80 B1 1F AC 24 29 FC D8 97 
7181: D1 E1 EF CD CE C5 FC FD F9 21 71 4B B6 69 73 7B 
7191: 79 D8 E1 1E BC 71 75 8A B3 D1 70 E2 BF 74 53 BA 
71a1: B6 69 69 DF F9 73 FB FE 17 E1 EE F9 B5 D7 C3 F7 
71b1: 0E F3 C2 45 ED 41 A3 82 52 53 C3 4E F2 FB 63 8E 
71c1: 39 94 08 C0 51 3D A6 83 9F BE 8D 3E 47 E2 92 7F 
71d1: A6 CC BE C5 06 D7 B8 91 BD F4 7E 9F 33 3E 0B 3C 
71e1: 01 2C CE A0 31 BF 5C 12 91 86 BE 64 88 CA 8A C0 
71f1: 00 E5 0C 01 A8 7A 8C 80 11 3A B6 09 01 FF 8F 

BACKGROUND_TANK_GAME:
7200: 00 FF 00 40 00 40 00 40 01 44 0A 42 0C 44 10 44 
7210: 20 44 23 44 25 44 5D 44 60 44 64 40 70 44 72 44 
7220: 74 44 80 44 8A 44 94 44 9F 44 98 42 20 46 23 46 
7230: 25 44 2F 46 5D 46 60 46 64 46 AC 44 AB 44 AD 44 
7240: 00 44 00 40 00 40 00 40 02 44 00 40 11 40 11 40 
7250: 11 40 11 40 11 40 11 40 11 40 11 40 11 40 11 40 
7260: 11 40 11 40 11 40 11 40 11 40 11 40 11 40 11 40 
7270: 11 40 11 40 11 40 11 40 11 40 11 40 62 40 AE 40 
7280: 00 40 00 40 00 40 00 40 03 40 00 40 00 40 00 40 
7290: 00 40 0E 40 00 40 00 40 0E 40 00 40 00 40 00 40 
72a0: 00 40 00 40 0E 40 00 40 00 40 0E 40 00 40 00 40 
72b0: 0E 40 00 40 00 40 00 40 00 40 00 40 0E 40 AE 40 
72c0: 00 40 00 40 00 40 00 40 03 40 0B 40 0F 40 1F 40 
72d0: 00 40 0E 40 5C 40 00 40 0E 40 6F 40 71 40 73 40 
72e0: 7F 40 00 40 0E 40 9E 40 00 40 0E 40 9E 40 00 40 
72f0: 0E 40 7F 42 73 42 71 42 6F 42 00 40 0E 40 AF 44 
7300: 00 44 00 40 00 40 00 40 04 40 00 40 11 40 11 40 
7310: 11 40 0D 40 11 40 11 40 0D 40 11 40 11 40 11 40 
7320: 11 40 11 40 0D 40 11 40 11 40 0D 40 11 40 11 40 
7330: 0D 40 11 40 11 40 62 40 7E 42 00 40 0E 40 B0 44 
7340: 00 44 00 40 00 40 00 40 03 40 00 40 0E 40 00 40 
7350: 00 40 0E 40 00 40 00 40 00 40 00 40 00 40 0E 40 
7360: 00 40 00 40 0E 40 00 40 00 40 00 40 00 40 00 40 
7370: 0E 40 00 40 00 40 0E 40 6E 42 00 40 0E 40 B9 40 
7380: 00 40 00 40 00 40 00 40 03 40 00 40 0E 40 1E 40 
7390: 00 40 0E 40 5B 40 5F 40 63 40 6E 40 00 40 0E 40 
73a0: 7E 40 00 40 0E 40 27 42 BA 42 22 42 16 42 00 40 
73b0: 0E 40 9E 40 00 40 0E 40 6C 42 00 40 0E 40 3B 42 
73c0: 00 42 00 40 00 40 00 40 05 40 00 40 0E 40 1D 40 
73d0: 00 40 0D 40 11 40 11 40 62 40 6E 40 00 40 0D 40 
73e0: 11 40 11 40 0D 40 11 40 11 40 62 40 15 42 00 40 
73f0: 0D 40 11 40 11 40 0E 40 6B 42 00 40 0E 40 7D 42 
7400: 00 42 00 40 00 40 00 40 03 40 00 40 0E 40 1C 40 
7410: 00 40 0E 40 00 40 00 40 0E 40 6D 40 00 40 0E 40 
7420: 00 40 00 40 00 40 00 40 00 40 0E 40 14 42 00 40 
7430: 0E 40 00 40 00 40 0E 40 89 42 00 40 0E 40 7B 42 
7440: 00 42 00 40 00 40 00 40 09 40 00 40 0E 40 1B 40 
7450: 00 40 0E 40 40 40 00 40 0E 40 6C 40 00 40 0E 40 
7460: 7D 40 89 40 93 40 9D 40 00 40 0E 40 13 42 00 40 
7470: 0E 40 9E 40 00 40 0E 40 88 42 00 40 0E 40 7B 42 
7480: 00 42 00 40 00 40 00 40 03 40 00 40 0E 40 1A 40 
7490: 00 40 0D 40 11 40 11 40 0D 40 11 40 11 40 0D 40 
74a0: 11 40 11 40 11 40 11 40 11 40 0D 40 11 40 11 40 
74b0: 0D 40 11 40 11 40 0D 40 11 40 11 40 0E 40 78 42 
74c0: 00 42 00 40 00 40 00 40 03 40 00 40 0E 40 19 40 
74d0: 00 40 0E 40 00 40 00 40 0E 40 00 40 00 40 0E 40 
74e0: 00 40 00 40 00 40 00 40 00 40 0E 40 00 40 00 40 
74f0: 0E 40 00 40 00 40 0E 40 00 40 00 40 0E 40 77 42 
7500: 00 42 00 40 00 40 00 40 03 40 00 40 0D 40 11 40 
7510: 11 40 0E 40 3F 40 00 40 0E 40 6A 40 00 40 0E 40 
7520: 7C 40 88 40 92 40 9C 40 00 40 0E 40 2B 42 00 40 
7530: 0E 40 3F 42 00 40 0E 40 6A 42 00 40 0E 40 B8 40 
7540: 00 40 00 40 00 40 00 40 03 40 00 40 0E 40 00 40 
7550: 00 40 0E 40 3E 40 00 40 0E 40 6A 40 00 40 0E 40 
7560: 7B 40 87 40 91 40 9B 40 00 40 0E 40 2A 42 00 40 
7570: 0E 40 3E 42 00 40 0E 40 69 42 00 40 0E 40 9D 42 
7580: 00 42 00 40 00 40 00 40 08 40 00 40 0E 40 18 40 
7590: 00 40 0E 40 3D 40 00 40 0E 40 69 40 00 40 0D 40 
75a0: 7A 40 86 40 90 40 9A 40 11 40 0E 40 29 42 00 40 
75b0: 0E 40 3D 42 00 40 0E 40 68 42 00 40 0E 40 B7 40 
75c0: 00 40 00 40 00 40 00 40 03 40 00 40 0D 40 11 40 
75d0: 11 40 0D 40 11 40 11 40 0D 40 11 40 11 40 0E 40 
75e0: 79 40 85 40 8F 40 99 40 00 40 0D 40 11 40 11 40 
75f0: 0D 40 11 40 11 40 0D 40 11 40 11 40 0E 40 B6 40 
7600: 00 40 00 40 00 40 00 40 03 40 00 40 0E 40 00 40 
7610: 00 40 0E 40 00 40 00 40 0E 40 00 40 00 40 0E 40 
7620: 78 40 84 40 8E 40 98 40 00 40 0E 40 00 40 00 40 
7630: 0E 40 00 40 00 40 0E 40 00 40 00 40 0E 40 9C 42 
7640: 00 42 00 40 00 40 00 40 03 40 00 40 0E 40 17 40 
7650: 00 40 0E 40 3C 40 00 40 0E 40 66 40 00 40 0E 40 
7660: 77 40 83 40 8D 40 97 40 00 40 0E 40 18 40 00 40 
7670: 0E 40 6B 42 00 40 0E 40 1B 42 00 40 0E 40 B5 40 
7680: 00 40 00 40 00 40 00 40 03 40 00 40 0D 40 11 40 
7690: 11 40 0D 40 11 40 11 40 0D 40 11 40 11 40 0D 40 
76a0: 11 40 11 40 11 40 11 40 11 40 0D 40 11 40 11 40 
76b0: 0E 40 6C 42 00 40 0E 40 1A 42 00 40 0E 40 9B 42 
76c0: 00 42 00 40 00 40 00 40 06 40 00 40 0E 40 00 40 
76d0: 00 40 00 40 00 40 00 40 0E 40 00 40 00 40 0E 40 
76e0: 00 40 00 40 00 40 00 40 00 40 0E 40 00 40 00 40 
76f0: 0E 40 6D 42 00 40 0D 40 11 40 11 40 0E 40 B4 40 
7700: 0E 40 0E 40 00 40 00 40 07 40 00 40 0E 40 16 40 
7710: 22 40 BA 40 27 40 00 40 0E 40 67 40 00 40 0E 40 
7720: 76 40 82 40 8C 40 96 40 00 40 0E 40 17 40 00 40 
7730: 0E 40 6E 42 00 40 0E 40 00 40 00 40 0E 40 98 42 
7740: 00 42 00 40 00 40 00 40 03 40 00 40 0E 40 15 40 
7750: 00 40 11 40 11 40 11 40 0D 40 11 40 11 40 0D 40 
7760: 11 40 11 40 11 40 11 40 11 40 0D 40 11 40 11 40 
7770: 0D 40 11 40 11 40 0E 40 1C 42 00 40 0E 40 97 42 
7780: 00 42 00 40 00 40 00 40 06 40 00 40 0E 40 14 40 
7790: 00 40 0E 40 00 40 00 40 0E 40 00 40 00 40 0E 40 
77a0: 00 40 00 40 0E 40 00 40 00 40 0E 40 00 40 00 40 
77b0: 0E 40 00 40 00 40 0E 40 1D 42 00 40 0E 40 96 42 
77c0: 00 42 00 40 00 40 00 40 05 40 00 40 0E 40 13 40 
77d0: 00 40 0E 40 3A 40 00 40 0E 40 66 40 00 40 0E 40 
77e0: 66 40 00 40 0E 40 66 40 00 40 0E 40 A3 40 00 40 
77f0: 0E 40 A7 40 00 40 0E 40 1E 42 00 40 0E 40 B3 40 
7800: 00 40 00 40 00 40 00 40 03 40 00 40 0D 40 11 40 
7810: 11 40 0D 40 11 40 11 40 0D 40 11 40 11 40 0D 40 
7820: 11 40 11 40 0D 40 11 40 11 40 0E 40 A2 40 00 40 
7830: 0D 40 11 40 11 40 0D 40 11 40 11 40 0E 40 B2 40 
7840: 00 40 00 40 00 40 00 40 04 40 00 40 0E 40 00 40 
7850: 00 40 00 40 0E 40 00 40 00 40 00 40 00 40 0E 40 
7860: 00 40 00 40 00 40 00 40 00 40 0E 40 A1 40 00 40 
7870: 00 40 00 40 00 40 0E 40 00 40 00 40 0E 40 96 42 
7880: 00 42 00 40 00 40 00 40 03 40 00 40 0E 40 21 40 
7890: 24 40 00 40 0E 40 5E 40 61 40 65 40 00 40 0E 40 
78a0: 75 40 81 40 8B 40 95 40 00 40 0E 40 A0 40 A4 40 
78b0: A5 40 A6 40 00 40 0E 40 AA 40 00 40 0E 40 B1 40 
78c0: 00 40 00 40 00 40 00 40 03 40 00 40 0D 40 11 40 
78d0: 11 40 11 40 0D 40 11 40 11 40 11 40 11 40 0D 40 
78e0: 11 40 11 40 11 40 11 40 11 40 0D 40 11 40 11 40 
78f0: 11 40 11 40 11 40 0E 40 A9 40 00 40 0E 40 B0 40 
7900: 00 40 00 40 00 40 00 40 02 40 00 40 00 40 00 40 
7910: 00 40 00 40 00 40 00 40 00 40 00 40 00 40 00 40 
7920: 00 40 00 40 00 40 00 40 00 40 00 40 00 40 00 40 
7930: 00 40 00 40 00 40 00 40 A8 40 00 40 00 40 AF 40 
7940: 00 40 00 40 00 40 00 40 01 40 0A 40 0C 40 10 40 
7950: 20 40 23 40 2F 40 5D 40 60 40 64 40 70 40 72 40 
7960: 74 40 80 40 8A 40 94 40 9F 40 10 42 20 42 23 42 
7970: 2F 42 5D 42 60 40 64 42 64 42 AC 40 AB 40 AD 40 

TANK_COLOR_PALETTE:
7980: 00 00 01 C2 01 C0 01 E0 00 38 00 10 00 87 01 F8 
7990: 00 10 00 A8 00 80 01 00 00 3F 00 DB 00 03 01 FF 

COLOR_PALETTE_FOR_2?:
79a0: 00 00 00 2B 01 80 00 18 00 00 01 C0 01 C2 01 C5 
79b0: 00 00 00 7E 01 FF 00 0F 00 00 00 08 00 38 00 38 

IO_COLOR_PALETTE:
79c0: 00 00 00 09 01 D8 00 08 01 F4 01 FC 00 51 01 F0 
79d0: 00 30 01 E0 00 30 00 05 01 00 01 00 01 2B 01 6D 

79e0: 00 00 00 53 01 80 00 30 01 D4 01 EA 01 C2 01 C5 
79f0: 00 00 00 7E 01 FF 00 0F 00 00 00 08 00 38 01 C0 

BACKGROUND_IO_TOWER_GAME:
7a00: 89 41 89 41 89 41 89 41 8D 41 8C 41 8D 41 8C 41 
7a10: 8D 41 8C 41 8D 41 8C 41 8D 41 8C 41 8D 41 8C 41 
7a20: 8D 41 8C 41 8D 41 8C 41 8D 41 8C 41 8D 41 8C 41 
7a30: 8D 41 8C 41 8D 41 8C 41 8D 41 8C 41 8D 41 8C 41 
7a40: 89 41 89 41 89 41 89 41 8C 41 8D 41 8C 41 8D 41 
7a50: 8C 41 8D 41 8C 41 8D 41 8C 41 8D 41 8C 41 8D 41 
7a60: 8C 41 8D 41 8C 41 8D 41 8C 41 8D 41 8C 41 8D 41 
7a70: 8C 41 8D 41 8C 41 8D 41 8C 41 8D 41 8C 41 8D 41 
7a80: 89 41 89 41 89 41 89 41 8D 41 8C 41 8D 41 8C 41 
7a90: 8D 41 8C 41 8D 41 8C 41 8D 41 8C 41 8D 41 8C 41 
7aa0: 8D 41 8C 41 8D 41 8C 41 8D 41 8C 41 8D 41 8C 41 
7ab0: 8D 41 8C 41 8D 41 8C 41 8D 41 8C 41 8D 41 8C 41 
7ac0: 89 41 89 41 89 41 89 41 8C 41 8D 41 8C 41 8D 41 
7ad0: 8C 41 8D 41 8C 41 8D 41 8C 41 8D 41 8C 41 8D 41 
7ae0: 8C 41 8D 41 8C 41 8D 41 8C 41 8D 41 8C 41 8D 41 
7af0: 8C 41 8D 41 8C 41 8D 41 8C 41 8D 41 8C 41 8D 41 
7b00: 89 41 89 41 89 41 89 41 8D 41 8C 41 8D 41 8C 41 
7b10: 8D 41 8C 41 8D 41 8C 41 8D 41 8C 41 8D 41 8C 41 
7b20: 8D 41 8C 41 8D 41 8C 41 8D 41 8C 41 8D 41 8C 41 
7b30: 8D 41 8C 41 8D 41 8C 41 8D 41 8C 41 8D 41 8C 41 
7b40: 89 41 89 41 89 41 89 41 8C 41 8D 41 8C 41 8D 41 
7b50: 8C 41 8D 41 8C 41 8D 41 8C 41 8D 41 8C 41 8D 41 
7b60: 8C 41 8D 41 8C 41 8D 41 8C 41 8D 41 8C 41 8D 41 
7b70: 8C 41 8D 41 8C 41 8D 41 8C 41 8D 41 8C 41 8D 41 
7b80: 89 41 89 41 89 41 89 41 8D 41 8C 41 8D 41 8C 41 
7b90: 8D 41 8C 41 8D 41 8C 41 89 41 89 41 8D 41 8C 41 
7ba0: 8D 41 8C 41 8D 41 8C 41 8D 41 8C 41 8D 41 8C 41 
7bb0: 8D 41 8C 41 8D 41 8C 41 8D 41 8C 41 8D 41 8C 41 
7bc0: 89 41 89 41 89 41 89 41 8C 41 8D 41 8C 41 8D 41 
7bd0: 8C 41 8D 41 8C 41 89 41 89 41 89 41 89 41 8D 41 
7be0: 8C 41 8D 41 8C 41 8D 41 8C 41 8D 41 8C 41 8D 41 
7bf0: 8C 41 8D 41 8C 41 8D 41 8C 41 8D 41 8C 41 8D 41 
7c00: 89 41 89 41 89 41 89 41 8D 41 8C 41 8D 41 8C 41 
7c10: 8D 41 8C 41 89 41 89 41 89 41 89 41 89 41 89 41 
7c20: 8D 41 8C 41 8D 41 8C 41 8D 41 8C 41 8D 41 8C 41 
7c30: 8D 41 8C 41 8D 41 8C 41 8D 41 8C 41 8D 41 8C 41 
7c40: 89 41 89 41 89 41 89 41 8C 41 8D 41 8C 41 8D 41 
7c50: 92 45 92 45 70 47 89 47 95 5D 95 5F 89 45 70 45 
7c60: 92 45 92 45 8C 41 8D 41 8C 41 8D 41 8C 41 8D 41 
7c70: 8C 41 8D 41 8C 41 8D 41 8C 41 8D 41 8C 41 8D 41 
7c80: 89 41 89 41 89 41 89 41 8D 41 8C 41 8D 41 8C 41 
7c90: 93 41 73 47 71 47 6F 47 96 5D 96 5F 6F 45 71 45 
7ca0: 73 45 93 41 8D 41 8C 41 8D 41 8C 41 8D 41 8C 41 
7cb0: 8D 41 8C 41 8D 41 8C 41 8D 41 8C 41 8D 41 8C 41 
7cc0: 89 41 89 41 89 41 89 41 8C 41 8D 41 8C 41 8D 41 
7cd0: 79 47 74 47 72 47 8E 47 89 41 89 41 89 45 80 47 
7ce0: 74 45 79 45 8C 41 8D 41 8C 41 8D 41 8C 41 8D 41 
7cf0: 8C 41 8D 41 8C 41 8D 41 8C 41 8D 41 8C 41 8D 41 
7d00: 89 41 89 41 89 41 89 41 8D 41 8C 41 8D 41 8C 41 
7d10: 7A 47 75 47 82 47 83 47 82 47 82 47 81 47 90 47 
7d20: 84 47 7A 45 8D 41 8C 41 8D 41 8C 41 8D 41 8C 41 
7d30: 8D 41 8C 41 8D 41 8C 41 8D 41 8C 41 8D 41 8C 41 
7d40: 89 41 89 41 89 41 89 41 8C 41 8D 41 8C 41 8D 41 
7d50: 7B 47 76 47 82 47 8F 5F 87 5F 7D 5F 7F 5F 89 41 
7d60: 85 47 7B 45 8C 41 8D 41 8C 41 8D 41 8C 41 8D 41 
7d70: 8C 41 8D 41 8C 41 8D 41 8C 41 8D 41 8C 41 8D 41 
7d80: 89 41 89 41 89 41 89 41 8D 41 8C 41 8D 41 8C 41 
7d90: 7C 47 77 47 78 47 88 5F 89 45 89 47 7E 5F 89 45 
7da0: 86 47 7C 45 8D 41 8C 41 8D 41 8C 41 8D 41 8C 41 
7db0: 8D 41 8C 41 8D 41 8C 41 8D 41 8C 41 8D 41 8C 41 
7dc0: 89 41 89 41 89 41 89 41 8C 41 8D 41 8C 41 8D 41 
7dd0: 7C 43 77 43 78 43 88 5B 89 41 89 43 7E 5B 89 41 
7de0: 86 43 7C 41 8C 41 8D 41 8C 41 8D 41 8C 41 8D 41 
7df0: 8C 41 8D 41 8C 41 8D 41 8C 41 8D 41 8C 41 8D 41 
7e00: 89 41 89 41 89 41 89 41 8D 41 8C 41 8D 41 8C 41 
7e10: 7B 43 76 43 82 43 8F 5B 87 5B 7D 5B 7F 5B 89 41 
7e20: 85 43 7B 41 8D 41 8C 41 8D 41 8C 41 8D 41 8C 41 
7e30: 8D 41 8C 41 8D 41 8C 41 8D 41 8C 41 8D 41 8C 41 
7e40: 89 41 89 41 89 41 89 41 8C 41 8D 41 8C 41 8D 41 
7e50: 7A 43 75 43 82 43 83 43 82 43 82 41 81 43 90 43 
7e60: 84 43 7A 41 8C 41 8D 41 8C 41 8D 41 8C 41 8D 41 
7e70: 8C 41 8D 41 8C 41 8D 41 8C 41 8D 41 8C 41 8D 41 
7e80: 89 41 89 41 89 41 89 41 8D 41 8C 41 8D 41 8C 41 
7e90: 79 43 74 43 72 43 8E 43 89 41 89 41 89 41 80 43 
7ea0: 74 41 79 41 8D 41 8C 41 8D 41 8C 41 8D 41 8C 41 
7eb0: 8D 41 8C 41 8D 41 8C 41 8D 41 8C 41 8D 41 8C 41 
7ec0: 89 41 89 41 89 41 89 41 8C 41 8D 41 8C 41 8D 41 
7ed0: 93 41 73 43 71 43 6F 43 96 59 96 5B 6F 41 71 41 
7ee0: 73 41 93 41 8C 41 8D 41 8C 41 8D 41 8C 41 8D 41 
7ef0: 8C 41 8D 41 8C 41 8D 41 8C 41 8D 41 8C 41 8D 41 
7f00: 89 41 89 41 89 41 89 41 8D 41 8C 41 8D 41 8C 41 
7f10: 92 41 92 41 70 43 89 43 95 59 95 5B 89 41 70 41 
7f20: 92 41 92 41 8D 41 8C 41 8D 41 8C 41 8D 41 8C 41 
7f30: 8D 41 8C 41 8D 41 8C 41 8D 41 8C 41 8D 41 8C 41 
7f40: 89 41 89 41 89 41 89 41 8C 41 8D 41 8C 41 8D 41 
7f50: 8C 41 8D 41 89 41 89 41 89 41 89 41 89 41 89 41 
7f60: 8C 41 8D 41 8C 41 8D 41 8C 41 8D 41 8C 41 8D 41 
7f70: 8C 41 8D 41 8C 41 8D 41 8C 41 8D 41 8C 41 8D 41 
7f80: 89 41 89 41 89 41 89 41 8D 41 8C 41 8D 41 8C 41 
7f90: 8D 41 8C 41 8D 41 89 41 89 41 89 41 89 41 8C 41 
7fa0: 8D 41 8C 41 8D 41 8C 41 8D 41 8C 41 8D 41 8C 41 
7fb0: 8D 41 8C 41 8D 41 8C 41 8D 41 8C 41 8D 41 8C 41 
7fc0: 89 41 89 41 89 41 89 41 8C 41 8D 41 8C 41 8D 41 
7fd0: 8C 41 8D 41 8C 41 8D 41 89 41 89 41 8C 41 8D 41 
7fe0: 8C 41 8D 41 8C 41 8D 41 8C 41 8D 41 8C 41 8D 41 
7ff0: 8C 41 8D 41 8C 41 8D 41 8C 41 8D 41 8C 41 8D 41 
8000: 89 41 89 41 89 41 89 41 8D 41 8C 41 8D 41 8C 41 
8010: 8D 41 8C 41 8D 41 8C 41 8D 41 8C 41 8D 41 8C 41 
8020: 8D 41 8C 41 8D 41 8C 41 8D 41 8C 41 8D 41 8C 41 
8030: 8D 41 8C 41 8D 41 8C 41 8D 41 8C 41 8D 41 8C 41 
8040: 89 41 89 41 89 41 89 41 8C 41 8D 41 8C 41 8D 41 
8050: 8C 41 8D 41 8C 41 8D 41 8C 41 8D 41 8C 41 8D 41 
8060: 8C 41 8D 41 8C 41 8D 41 8C 41 8D 41 8C 41 8D 41 
8070: 8C 41 8D 41 8C 41 8D 41 8C 41 8D 41 8C 41 8D 41 
8080: 89 41 89 41 89 41 89 41 8D 41 8C 41 8D 41 8C 41 
8090: 8D 41 8C 41 8D 41 8C 41 8D 41 8C 41 8D 41 8C 41 
80a0: 8D 41 8C 41 8D 41 8C 41 8D 41 8C 41 8D 41 8C 41 
80b0: 8D 41 8C 41 8D 41 8C 41 8D 41 8C 41 8D 41 8C 41 
80c0: 89 41 89 41 89 41 89 41 8C 41 8D 41 8C 41 8D 41 
80d0: 8C 41 8D 41 8C 41 8D 41 8C 41 8D 41 8C 41 8D 41 
80e0: 8C 41 8D 41 8C 41 8D 41 8C 41 8D 41 8C 41 8D 41 
80f0: 8C 41 8D 41 8C 41 8D 41 8C 41 8D 41 8C 41 8D 41 
8100: 89 41 89 41 89 41 89 41 8D 41 8C 41 8D 41 8C 41 
8110: 8D 41 8C 41 8D 41 8C 41 8D 41 8C 41 8D 41 8C 41 
8120: 8D 41 8C 41 8D 41 8C 41 8D 41 8C 41 8D 41 8C 41 
8130: 8D 41 8C 41 8D 41 8C 41 8D 41 8C 41 8D 41 89 41 
8140: 89 41 89 41 89 41 89 41 8C 41 8D 41 8C 41 8D 41 
8150: 8C 41 8D 41 8C 41 8D 41 8C 41 8D 41 8C 41 8D 41 
8160: 8C 41 8D 41 8C 41 8D 41 8C 41 8D 41 8C 41 8D 41 
8170: 8C 41 8D 41 8C 41 8D 41 8C 41 8D 41 89 41 89 41 

BACKGROUND_IO_TOWER_AFTER_ENTERING_BEAM:
8180: 89 41 89 41 89 41 89 41 8D 41 8C 41 8D 41 8C 41 
8190: 8D 41 8C 41 8D 41 8C 41 8D 41 8C 41 8D 41 8C 41 
81a0: 8D 41 8C 41 8D 41 8C 41 8D 41 8C 41 8D 41 8C 41 
81b0: 8D 41 8C 41 8D 41 8C 41 8D 41 8C 41 8D 41 8C 41 
81c0: 89 41 89 41 89 41 89 41 8C 41 8D 41 8C 41 8D 41 
81d0: 8C 41 8D 41 8C 41 8D 41 8C 41 8D 41 8C 41 8D 41 
81e0: 8C 41 8D 41 8C 41 8D 41 8C 41 8D 41 8C 41 8D 41 
81f0: 8C 41 8D 41 8C 41 8D 41 8C 41 8D 41 8C 41 8D 41 
8200: 89 41 89 41 89 41 89 41 8D 41 8C 41 8D 41 8C 41 
8210: 8D 41 8C 41 8D 41 8C 41 8D 41 8C 41 8D 41 8C 41 
8220: 8D 41 8C 41 8D 41 8C 41 8D 41 8C 41 8D 41 8C 41 
8230: 8D 41 8C 41 8D 41 8C 41 8D 41 8C 41 8D 41 8C 41 
8240: 89 41 89 41 89 41 89 41 8C 41 8D 41 8C 41 8D 41 
8250: 8C 41 8D 41 8C 41 8D 41 8C 41 8D 41 8C 41 8D 41 
8260: 8C 41 8D 41 8C 41 8D 41 8C 41 8D 41 8C 41 8D 41 
8270: 8C 41 8D 41 8C 41 8D 41 8C 41 8D 41 8C 41 8D 41 
8280: 89 41 89 41 89 41 89 41 8D 41 8C 41 8D 41 8C 41 
8290: 8D 41 8C 41 8D 41 8C 41 8D 41 8C 41 8D 41 8C 41 
82a0: 8D 41 8C 41 8D 41 8C 41 8D 41 8C 41 8D 41 8C 41 
82b0: 8D 41 8C 41 8D 41 8C 41 8D 41 8C 41 8D 41 8C 41 
82c0: 89 41 89 41 89 41 89 41 8C 41 8D 41 8C 41 8D 41 
82d0: 8C 41 8D 41 8C 41 8D 41 8C 41 8D 41 8C 41 8D 41 
82e0: 8C 41 8D 41 8C 41 8D 41 8C 41 8D 41 8C 41 8D 41 
82f0: 8C 41 8D 41 8C 41 8D 41 8C 41 8D 41 8C 41 8D 41 
8300: 89 41 89 41 89 41 89 41 8D 41 8C 41 8D 41 8C 41 
8310: 8D 41 8C 41 8D 41 8C 41 89 41 89 41 8D 41 8C 41 
8320: 8D 41 8C 41 8D 41 8C 41 8D 41 8C 41 8D 41 8C 41 
8330: 8D 41 8C 41 8D 41 8C 41 8D 41 8C 41 8D 41 8C 41 
8340: 89 41 89 41 89 41 89 41 8C 41 8D 41 8C 41 8D 41 
8350: 8C 41 8D 41 8C 41 89 41 89 41 89 41 89 41 8D 41 
8360: 8C 41 8D 41 8C 41 8D 41 8C 41 8D 41 8C 41 8D 41 
8370: 8C 41 8D 41 8C 41 8D 41 8C 41 8D 41 8C 41 8D 41 
8380: 89 41 89 41 89 41 89 41 8D 41 8C 41 8D 41 8C 41 
8390: 8D 41 8C 41 89 41 89 41 89 41 89 41 89 41 89 41 
83a0: 8D 41 8C 41 8D 41 8C 41 8D 41 8C 41 8D 41 8C 41 
83b0: 8D 41 8C 41 8D 41 8C 41 8D 41 8C 41 8D 41 8C 41 
83c0: 89 41 89 41 89 41 89 41 8C 41 8D 41 8C 41 8D 41 
83d0: 92 45 92 45 70 47 89 47 95 5D 95 5F 89 45 70 45 
83e0: 92 45 92 45 8C 41 8D 41 8C 41 8D 41 8C 41 8D 41 
83f0: 8C 41 8D 41 8C 41 8D 41 8C 41 8D 41 8C 41 8D 41 
8400: 89 41 89 41 89 41 89 41 8D 41 8C 41 8D 41 8C 41 
8410: 93 41 73 47 71 47 6F 47 96 5D 96 5F 6F 45 71 45 
8420: 73 45 93 41 8D 41 8C 41 8D 41 8C 41 8D 41 8C 41 
8430: 8D 41 8C 41 8D 41 8C 41 8D 41 8C 41 8D 41 8C 41 
8440: 89 41 89 41 89 41 89 41 8C 41 8D 41 8C 41 8D 41 
8450: 79 47 74 47 72 47 8E 47 89 41 89 41 89 45 80 47 
8460: 74 45 79 45 8C 41 8D 41 8C 41 8D 41 8C 41 8D 41 
8470: 8C 41 8D 41 8C 41 8D 41 8C 41 8D 41 8C 41 8D 41 
8480: 89 41 89 41 89 41 89 41 8D 41 8C 41 8D 41 8C 41 
8490: 7A 47 75 47 82 47 83 47 82 47 82 47 81 47 90 47 
84a0: 84 47 7A 45 8D 41 8C 41 8D 41 8C 41 8D 41 8C 41 
84b0: 8D 41 8C 41 8D 41 8C 41 8D 41 8C 41 8D 41 8C 41 
84c0: A3 45 A3 45 A2 45 A1 45 A0 45 9F 45 9E 45 9D 45 
84d0: 9C 45 9B 45 9A 45 99 45 98 45 97 45 7F 5F 89 45 
84e0: 85 47 7B 45 8C 41 8D 41 8C 41 8D 41 8C 41 8D 41 
84f0: 8C 41 8D 41 8C 41 8D 41 8C 41 8D 41 8C 41 8D 41 
8500: A4 45 A4 45 A4 45 A4 45 A4 45 A4 45 A4 45 A4 45 
8510: A4 45 A4 45 A4 45 A4 45 A4 45 A4 45 7E 5F 89 41 
8520: 86 47 7C 45 8D 41 8C 41 8D 41 8C 41 8D 41 8C 41 
8530: 8D 41 8C 41 8D 41 8C 41 8D 41 8C 41 8D 41 8C 41 
8540: A4 41 A4 41 A4 41 A4 41 A4 41 A4 41 A4 41 A4 41 
8550: A4 41 A4 41 A4 41 A4 41 A4 41 A4 41 7E 5B 89 45 
8560: 86 43 7C 41 8C 41 8D 41 8C 41 8D 41 8C 41 8D 41 
8570: 8C 41 8D 41 8C 41 8D 41 8C 41 8D 41 8C 41 8D 41 
8580: A3 41 A3 41 A2 41 A1 41 A0 41 9F 41 9E 41 9D 41 
8590: 9C 41 9B 41 9A 41 99 41 98 41 97 41 7F 5B 89 45 
85a0: 85 43 7B 41 8D 41 8C 41 8D 41 8C 41 8D 41 8C 41 
85b0: 8D 41 8C 41 8D 41 8C 41 8D 41 8C 41 8D 41 8C 41 
85c0: 89 41 89 41 89 41 89 41 8C 41 8D 41 8C 41 8D 41 
85d0: 7A 43 75 43 82 43 83 43 82 43 82 41 81 43 90 43 
85e0: 84 43 7A 41 8C 41 8D 41 8C 41 8D 41 8C 41 8D 41 
85f0: 8C 41 8D 41 8C 41 8D 41 8C 41 8D 41 8C 41 8D 41 
8600: 89 41 89 41 89 41 89 41 8D 41 8C 41 8D 41 8C 41 
8610: 79 43 74 43 72 43 8E 43 89 41 89 41 89 41 80 43 
8620: 74 41 79 41 8D 41 8C 41 8D 41 8C 41 8D 41 8C 41 
8630: 8D 41 8C 41 8D 41 8C 41 8D 41 8C 41 8D 41 8C 41 
8640: 89 41 89 41 89 41 89 41 8C 41 8D 41 8C 41 8D 41 
8650: 93 41 73 43 71 43 6F 43 96 59 96 5B 6F 41 71 41 
8660: 73 41 93 41 8C 41 8D 41 8C 41 8D 41 8C 41 8D 41 
8670: 8C 41 8D 41 8C 41 8D 41 8C 41 8D 41 8C 41 8D 41 
8680: 89 41 89 41 89 41 89 41 8D 41 8C 41 8D 41 8C 41 
8690: 92 41 92 41 70 43 89 43 95 59 95 5B 89 41 70 41 
86a0: 92 41 92 41 8D 41 8C 41 8D 41 8C 41 8D 41 8C 41 
86b0: 8D 41 8C 41 8D 41 8C 41 8D 41 8C 41 8D 41 8C 41 
86c0: 89 41 89 41 89 41 89 41 8C 41 8D 41 8C 41 8D 41 
86d0: 8C 41 8D 41 89 41 89 41 89 41 89 41 89 41 89 41 
86e0: 8C 41 8D 41 8C 41 8D 41 8C 41 8D 41 8C 41 8D 41 
86f0: 8C 41 8D 41 8C 41 8D 41 8C 41 8D 41 8C 41 8D 41 
8700: 89 41 89 41 89 41 89 41 8D 41 8C 41 8D 41 8C 41 
8710: 8D 41 8C 41 8D 41 89 41 89 41 89 41 89 41 8C 41 
8720: 8D 41 8C 41 8D 41 8C 41 8D 41 8C 41 8D 41 8C 41 
8730: 8D 41 8C 41 8D 41 8C 41 8D 41 8C 41 8D 41 8C 41 
8740: 89 41 89 41 89 41 89 41 8C 41 8D 41 8C 41 8D 41 
8750: 8C 41 8D 41 8C 41 8D 41 89 41 89 41 8C 41 8D 41 
8760: 8C 41 8D 41 8C 41 8D 41 8C 41 8D 41 8C 41 8D 41 
8770: 8C 41 8D 41 8C 41 8D 41 8C 41 8D 41 8C 41 8D 41 
8780: 89 41 89 41 89 41 89 41 8D 41 8C 41 8D 41 8C 41 
8790: 8D 41 8C 41 8D 41 8C 41 8D 41 8C 41 8D 41 8C 41 
87a0: 8D 41 8C 41 8D 41 8C 41 8D 41 8C 41 8D 41 8C 41 
87b0: 8D 41 8C 41 8D 41 8C 41 8D 41 8C 41 8D 41 8C 41 
87c0: 89 41 89 41 89 41 89 41 8C 41 8D 41 8C 41 8D 41 
87d0: 8C 41 8D 41 8C 41 8D 41 8C 41 8D 41 8C 41 8D 41 
87e0: 8C 41 8D 41 8C 41 8D 41 8C 41 8D 41 8C 41 8D 41 
87f0: 8C 41 8D 41 8C 41 8D 41 8C 41 8D 41 8C 41 8D 41 
8800: 89 41 89 41 89 41 89 41 8D 41 8C 41 8D 41 8C 41 
8810: 8D 41 8C 41 8D 41 8C 41 8D 41 8C 41 8D 41 8C 41 
8820: 8D 41 8C 41 8D 41 8C 41 8D 41 8C 41 8D 41 8C 41 
8830: 8D 41 8C 41 8D 41 8C 41 8D 41 8C 41 8D 41 8C 41 
8840: 89 41 89 41 89 41 89 41 8C 41 8D 41 8C 41 8D 41 
8850: 8C 41 8D 41 8C 41 8D 41 8C 41 8D 41 8C 41 8D 41 
8860: 8C 41 8D 41 8C 41 8D 41 8C 41 8D 41 8C 41 8D 41 
8870: 8C 41 8D 41 8C 41 8D 41 8C 41 8D 41 8C 41 8D 41 
8880: 89 41 89 41 89 41 89 41 8D 41 8C 41 8D 41 8C 41 
8890: 8D 41 8C 41 8D 41 8C 41 8D 41 8C 41 8D 41 8C 41 
88a0: 8D 41 8C 41 8D 41 8C 41 8D 41 8C 41 8D 41 8C 41 
88b0: 8D 41 8C 41 8D 41 8C 41 8D 41 8C 41 8D 41 89 41 
88c0: 89 41 89 41 89 41 89 41 8C 41 8D 41 8C 41 8D 41 
88d0: 8C 41 8D 41 8C 41 8D 41 8C 41 8D 41 8C 41 8D 41 
88e0: 8C 41 8D 41 8C 41 8D 41 8C 41 8D 41 8C 41 8D 41 
88f0: 8C 41 8D 41 8C 41 8D 41 8C 41 8D 41 89 41 89 41 

BACKGROUND_LC:
8900: BE 50 BE 50 BE 50 BE 50 62 41 62 41 62 41 62 41 
8910: 62 41 62 41 62 41 62 41 62 41 62 41 62 41 62 41 
8920: 62 41 62 41 62 41 62 41 62 41 62 41 62 41 62 41 
8930: 62 41 62 41 62 41 62 41 62 41 62 41 62 41 62 41 
8940: BE 50 BE 50 BE 50 BE 50 62 41 BB 40 BB 40 BD 40 
8950: BB 40 BB 40 BD 40 BB 40 BB 40 BD 40 BB 40 BB 40 
8960: BD 40 BB 40 BB 40 BD 40 BB 40 BB 40 BD 40 BB 40 
8970: BB 40 BD 40 BB 40 BB 40 BD 40 BB 40 BB 40 62 41 
8980: BE 50 BE 50 BE 50 BE 50 62 41 BE 40 BE 40 BC 40 
8990: BE 40 BE 40 BC 40 BE 40 BE 40 BC 40 BE 40 BE 40 
89a0: BC 40 BE 40 BE 40 BC 40 BE 40 BE 40 BC 40 BE 40 
89b0: BE 40 BC 40 BE 40 BE 40 BC 40 BE 40 BE 40 62 41 
89c0: BE 50 BE 50 BE 50 BE 50 62 41 BE 40 BE 40 BC 40 
89d0: BE 40 BE 40 BC 40 BE 40 BE 40 BC 40 BE 40 BE 40 
89e0: BC 40 BE 40 BE 40 BC 40 BE 40 BE 40 BC 40 BE 40 
89f0: BE 40 BC 40 BE 40 BE 40 BC 40 BE 40 BE 40 62 41 
8a00: BE 50 BE 50 BE 50 BE 50 62 41 BB 40 BB 40 BD 40 
8a10: BB 40 BB 40 BD 40 BB 40 BB 40 BD 40 BB 40 BB 40 
8a20: BD 40 BB 40 BB 40 BD 40 BB 40 BB 40 BD 40 BB 40 
8a30: BB 40 BD 40 BB 40 BB 40 BD 40 BB 40 BB 40 62 41 
8a40: BE 50 BE 50 BE 50 BE 50 62 41 BE 40 BE 40 BC 40 
8a50: BE 40 BE 40 BC 40 BE 40 BE 40 BC 40 BE 40 BE 40 
8a60: BC 40 BE 40 BE 40 BC 40 BE 40 BE 40 BC 40 BE 40 
8a70: BE 40 BC 40 BE 40 BE 40 BC 40 BE 40 BE 40 62 41 
8a80: BE 50 BE 50 BE 50 BE 50 62 41 BE 40 BE 40 BC 40 
8a90: BE 40 BE 40 BC 40 BE 40 BE 40 BC 40 BE 40 BE 40 
8aa0: BC 40 BE 40 BE 40 BC 40 BE 40 BE 40 BC 40 BE 40 
8ab0: BE 40 BC 40 BE 40 BE 40 BC 40 BE 40 BE 40 62 41 
8ac0: BE 50 BE 50 BE 50 BE 50 62 41 BB 40 BB 40 BD 40 
8ad0: BB 40 BB 40 BD 40 BB 40 BB 40 BD 40 BB 40 BB 40 
8ae0: BD 40 BB 40 BB 40 BD 40 BB 40 BB 40 BD 40 BB 40 
8af0: BB 40 BD 40 BB 40 BB 40 BD 40 BB 40 BB 40 62 41 
8b00: BE 50 BE 50 BE 50 BE 50 62 41 BE 40 BE 40 BC 40 
8b10: BE 40 BE 40 BC 40 BE 40 BE 40 BC 40 BE 40 BE 40 
8b20: BC 40 BE 40 BE 40 BC 40 BE 40 BE 40 BC 40 BE 40 
8b30: BE 40 BC 40 BE 40 BE 40 BC 40 BE 40 BE 40 62 41 
8b40: BE 50 BE 50 BE 50 BE 50 62 41 BE 40 BE 40 BC 40 
8b50: BE 40 BE 40 BC 40 BE 40 BE 40 BC 40 BE 40 BE 40 
8b60: BC 40 BE 40 BE 40 BC 40 BE 40 BE 40 BC 40 BE 40 
8b70: BE 40 BC 40 BE 40 BE 40 BC 40 BE 40 BE 40 62 41 
8b80: BE 50 BE 50 BE 50 BE 50 62 41 BB 40 BB 40 BD 40 
8b90: BB 40 BB 40 BD 40 BB 40 BB 40 BD 40 BB 40 BB 40 
8ba0: BD 40 BB 40 BB 40 BD 40 BB 40 BB 40 BD 40 BB 40 
8bb0: BB 40 BD 40 BB 40 BB 40 BD 40 BB 40 BB 40 62 41 
8bc0: BE 50 BE 50 BE 50 BE 50 62 41 BE 40 BE 40 BC 40 
8bd0: BE 40 BE 40 BC 40 BE 40 BE 40 BC 40 BE 40 BE 40 
8be0: BC 40 BE 40 BE 40 BC 40 BE 40 BE 40 BC 40 BE 40 
8bf0: BE 40 BC 40 BE 40 BE 40 BC 40 BE 40 BE 40 62 41 
8c00: BE 50 BE 50 BE 50 BE 50 62 41 BE 40 BE 40 BC 40 
8c10: BE 40 BE 40 BC 40 BE 40 BE 40 BC 40 BE 40 BE 40 
8c20: BC 40 BE 40 BE 40 BC 40 BE 40 BE 40 BC 40 BE 40 
8c30: BE 40 BC 40 BE 40 BE 40 BC 40 BE 40 BE 40 62 41 
8c40: BE 50 BE 50 BE 50 BE 50 62 41 BB 40 BB 40 BD 40 
8c50: BB 40 BB 40 BD 40 BB 40 BB 40 BD 40 BB 40 BB 40 
8c60: BD 40 BB 40 BB 40 BD 40 BB 40 BB 40 BD 40 BB 40 
8c70: BB 40 BD 40 BB 40 BB 40 BD 40 BB 40 BB 40 62 41 
8c80: BE 50 BE 50 BE 50 BE 50 62 41 BE 40 BE 40 BC 40 
8c90: BE 40 BE 40 BC 40 BE 40 BE 40 BC 40 BE 40 BE 40 
8ca0: BC 40 BE 40 BE 40 BC 40 BE 40 BE 40 BC 40 BE 40 
8cb0: BE 40 BC 40 BE 40 BE 40 BC 40 BE 40 BE 40 62 41 
8cc0: BE 50 BE 50 BE 50 BE 50 62 41 BE 40 BE 40 BC 40 
8cd0: BE 40 BE 40 BC 40 BE 40 BE 40 BC 40 BE 40 BE 40 
8ce0: BC 40 BE 40 BE 40 BC 40 BE 40 BE 40 BC 40 BE 40 
8cf0: BE 40 BC 40 BE 40 BE 40 BC 40 BE 40 BE 40 62 41 
8d00: BE 50 BE 50 BE 50 BE 50 62 41 BB 40 BB 40 BD 40 
8d10: BB 40 BB 40 BD 40 BB 40 BB 40 BD 40 BB 40 BB 40 
8d20: BD 40 BB 40 BB 40 BD 40 BB 40 BB 40 BD 40 BB 40 
8d30: BB 40 BD 40 BB 40 BB 40 BD 40 BB 40 BB 40 62 41 
8d40: BE 50 BE 50 BE 50 BE 50 62 41 BE 40 BE 40 BC 40 
8d50: BE 40 BE 40 BC 40 BE 40 BE 40 BC 40 BE 40 BE 40 
8d60: BC 40 BE 40 BE 40 BC 40 BE 40 BE 40 BC 40 BE 40 
8d70: BE 40 BC 40 BE 40 BE 40 BC 40 BE 40 BE 40 62 41 
8d80: BE 50 BE 50 BE 50 BE 50 62 41 BE 40 BE 40 BC 40 
8d90: BE 40 BE 40 BC 40 BE 40 BE 40 BC 40 BE 40 BE 40 
8da0: BC 40 BE 40 BE 40 BC 40 BE 40 BE 40 BC 40 BE 40 
8db0: BE 40 BC 40 BE 40 BE 40 BC 40 BE 40 BE 40 62 41 
8dc0: BE 50 BE 50 BE 50 BE 50 62 41 BB 40 BB 40 BD 40 
8dd0: BB 40 BB 40 BD 40 BB 40 BB 40 BD 40 BB 40 BB 40 
8de0: BD 40 BB 40 BB 40 BD 40 BB 40 BB 40 BD 40 BB 40 
8df0: BB 40 BD 40 BB 40 BB 40 BD 40 BB 40 BB 40 62 41 
8e00: BE 50 BE 50 BE 50 BE 50 62 41 BE 40 BE 40 BC 40 
8e10: BE 40 BE 40 BC 40 BE 40 BE 40 BC 40 BE 40 BE 40 
8e20: BC 40 BE 40 BE 40 BC 40 BE 40 BE 40 BC 40 BE 40 
8e30: BE 40 BC 40 BE 40 BE 40 BC 40 BE 40 BE 40 62 41 
8e40: BE 50 BE 50 BE 50 BE 50 62 41 BE 40 BE 40 BC 40 
8e50: BE 40 BE 40 BC 40 BE 40 BE 40 BC 40 BE 40 BE 40 
8e60: BC 40 BE 40 BE 40 BC 40 BE 40 BE 40 BC 40 BE 40 
8e70: BE 40 BC 40 BE 40 BE 40 BC 40 BE 40 BE 40 62 41 
8e80: BE 50 BE 50 BE 50 BE 50 62 41 BB 40 BB 40 BD 40 
8e90: BB 40 BB 40 BD 40 BB 40 BB 40 BD 40 BB 40 BB 40 
8ea0: BD 40 BB 40 BB 40 BD 40 BB 40 BB 40 BD 40 BB 40 
8eb0: BB 40 BD 40 BB 40 BB 40 BD 40 BB 40 BB 40 62 41 
8ec0: BE 50 BE 50 BE 50 BE 50 62 41 BE 40 BE 40 BC 40 
8ed0: BE 40 BE 40 BC 40 BE 40 BE 40 BC 40 BE 40 BE 40 
8ee0: BC 40 BE 40 BE 40 BC 40 BE 40 BE 40 BC 40 BE 40 
8ef0: BE 40 BC 40 BE 40 BE 40 BC 40 BE 40 BE 40 62 41 
8f00: BE 50 BE 50 BE 50 BE 50 62 41 BE 40 BE 40 BC 40 
8f10: BE 40 BE 40 BC 40 BE 40 BE 40 BC 40 BE 40 BE 40 
8f20: BC 40 BE 40 BE 40 BC 40 BE 40 BE 40 BC 40 BE 40 
8f30: BE 40 BC 40 BE 40 BE 40 BC 40 BE 40 BE 40 62 41 
8f40: BE 50 BE 50 BE 50 BE 50 62 41 BB 40 BB 40 BD 40 
8f50: BB 40 BB 40 BD 40 BB 40 BB 40 BD 40 BB 40 BB 40 
8f60: BD 40 BB 40 BB 40 BD 40 BB 40 BB 40 BD 40 BB 40 
8f70: BB 40 BD 40 BB 40 BB 40 BD 40 BB 40 BB 40 62 41 
8f80: BE 50 BE 50 BE 50 BE 50 62 41 BE 40 BE 40 BC 40 
8f90: BE 40 BE 40 BC 40 BE 40 BE 40 BC 40 BE 40 BE 40 
8fa0: BC 40 BE 40 BE 40 BC 40 BE 40 BE 40 BC 40 BE 40 
8fb0: BE 40 BC 40 BE 40 BE 40 BC 40 BE 40 BE 40 62 41 
8fc0: BE 50 BE 50 BE 50 BE 50 62 41 BE 40 BE 40 BC 40 
8fd0: BE 40 BE 40 BC 40 BE 40 BE 40 BC 40 BE 40 BE 40 
8fe0: BC 40 BE 40 BE 40 BC 40 BE 40 BE 40 BC 40 BE 40 
8ff0: BE 40 BC 40 BE 40 BE 40 BC 40 BE 40 BE 40 62 41 
9000: BE 50 BE 50 BE 50 BE 50 62 41 BB 40 BB 40 BD 40 
9010: BB 40 BB 40 BD 40 BB 40 BB 40 BD 40 BB 40 BB 40 
9020: BD 40 BB 40 BB 40 BD 40 BB 40 BB 40 BD 40 BB 40 
9030: BB 40 BD 40 BB 40 BB 40 BD 40 BB 40 BB 40 62 41 
9040: BE 50 BE 50 BE 50 BE 50 62 41 62 41 62 41 62 41 
9050: 62 41 62 41 62 41 62 41 62 41 62 41 62 41 62 41 
9060: 62 41 62 41 62 41 62 41 62 41 62 41 62 41 62 41 
9070: 62 41 62 41 62 41 62 41 62 41 62 41 62 41 62 41 

LC_COLOR_PALETTE:
9080: 00 00 01 C6 01 C3 01 C0 00 9B 00 E4 00 08 00 4D 
9090: 00 00 00 7C 00 52 00 9B 00 22 00 08 00 18 00 00 

90a0: 00 00 00 2B 01 80 00 18 01 D4 01 EA 01 C2 01 C5 
90b0: 00 04 00 7E 01 FF 00 0F 00 00 00 08 00 28 00 38 

COLOR_PALETTE_FOR_5?:
90c0: 00 00 00 00 01 C0 01 E0 00 38 00 10 00 87 01 F8 
90d0: 00 3C 00 A8 00 80 01 00 00 3F 00 DB 00 03 01 FF 

90e0: 00 00 00 2B 01 80 00 18 01 D4 01 EA 01 C2 01 C5 
90f0: 00 04 00 7E 01 FF 00 0F 00 00 00 08 00 28 00 38 

BACKGROUND_TRAINING_FOR_LC:
9100: BE 50 BE 50 BE 50 BE 50 62 41 62 41 62 41 62 41 
9110: 62 41 62 41 62 41 62 41 62 41 62 41 62 41 62 41 
9120: 62 41 62 41 62 41 62 41 62 41 62 41 62 41 62 41 
9130: 62 41 62 41 62 41 62 41 62 41 62 41 62 41 62 41 
9140: BE 50 BE 50 BE 50 BE 50 62 41 BB 40 BB 40 BD 40 
9150: BB 40 BB 40 BD 40 BB 40 BB 40 BD 40 BB 40 BB 40 
9160: BD 40 BB 40 BB 40 BD 40 BB 40 BB 40 BD 40 BB 40 
9170: BB 40 BD 40 BB 40 BB 40 BD 40 BB 40 BB 40 62 41 
9180: BE 50 BE 50 BE 50 BE 50 62 41 BE 40 BE 40 BC 40 
9190: BE 40 BE 40 BC 40 BE 40 BE 40 BC 40 BE 40 BE 40 
91a0: BC 40 BE 40 BE 40 BC 40 BE 40 BE 40 BC 40 BE 40 
91b0: BE 40 BC 40 BE 40 BE 40 BC 40 BE 40 BE 40 62 41 
91c0: BE 50 BE 50 BE 50 BE 50 62 41 BE 40 BE 40 BC 40 
91d0: BE 40 BE 40 BC 40 BE 40 BE 40 BC 40 BE 40 BE 40 
91e0: BC 40 BE 40 BE 40 BC 40 BE 40 BE 40 BC 40 BE 40 
91f0: BE 40 BC 40 BE 40 BE 40 BC 40 BE 40 BE 40 62 41 
9200: BE 50 BE 50 BE 50 BE 50 62 41 BB 40 BB 40 BD 40 
9210: BB 40 BB 40 BD 40 BB 40 BB 40 BD 40 BB 40 BB 40 
9220: BD 40 BB 40 BB 40 BD 40 BB 40 BB 40 BD 40 BB 40 
9230: BB 40 BD 40 BB 40 BB 40 BD 40 BB 40 BB 40 62 41 
9240: BE 50 BE 50 BE 50 BE 50 62 41 BE 40 BE 40 BC 40 
9250: BE 40 BE 40 BC 40 BE 40 BE 40 BC 40 BE 40 BE 40 
9260: BC 40 BE 40 BE 40 BC 40 BE 40 BE 40 BC 40 BE 40 
9270: BE 40 BC 40 BE 40 BE 40 BC 40 BE 40 BE 40 62 41 
9280: BE 50 BE 50 BE 50 BE 50 62 41 BE 40 BE 40 BC 40 
9290: BE 40 BE 40 BC 40 BE 40 BE 40 BC 40 BE 40 BE 40 
92a0: BC 40 BE 40 BE 40 BC 40 BE 40 BE 40 BC 40 BE 40 
92b0: BE 40 BC 40 BE 40 BE 40 BC 40 BE 40 BE 40 62 41 
92c0: BE 50 BE 50 BE 50 BE 50 62 41 BB 40 BB 40 BD 40 
92d0: BB 40 BB 40 BD 40 BB 40 BB 40 BD 40 BB 40 BB 40 
92e0: BD 40 BB 40 BB 40 BD 40 BB 40 BB 40 BD 40 BB 40 
92f0: BB 40 BD 40 BB 40 BB 40 BD 40 BB 40 BB 40 62 41 
9300: BE 50 BE 50 BE 50 BE 50 62 41 BE 40 BE 40 BC 40 
9310: BE 40 BE 40 BC 40 BE 40 BE 40 BC 40 BE 40 BE 40 
9320: BC 40 BE 40 BE 40 BC 40 BE 40 BE 40 BC 40 BE 40 
9330: BE 40 BC 40 BE 40 BE 40 BC 40 BE 40 BE 40 62 41 
9340: BE 50 BE 50 BE 50 BE 50 62 41 BE 40 BE 40 BC 40 
9350: BE 40 BE 40 BC 40 BE 40 BE 40 BC 40 BE 40 BE 40 
9360: BC 40 BE 40 BE 40 BC 40 BE 40 BE 40 BC 40 BE 40 
9370: BE 40 BC 40 BE 40 BE 40 BC 40 BE 40 BE 40 62 41 
9380: BE 50 BE 50 BE 50 BE 50 62 41 BB 40 BB 40 BD 40 
9390: BB 40 BB 40 BD 40 BB 40 BB 40 BD 40 BB 40 BB 40 
93a0: BD 40 BB 40 BB 40 BD 40 BB 40 BB 40 BD 40 BB 40 
93b0: BB 40 BD 40 BB 40 BB 40 BD 40 BB 40 BB 40 62 41 
93c0: BE 50 BE 50 BE 50 BE 50 62 41 BE 40 BE 40 BC 40 
93d0: BE 40 BE 40 BC 40 BE 40 BE 40 BC 40 BE 40 BE 40 
93e0: BC 40 BE 40 BE 40 BC 40 BE 40 BE 40 BC 40 BE 40 
93f0: BE 40 BC 40 BE 40 BE 40 BC 40 BE 40 BE 40 62 41 
9400: BE 50 BE 50 BE 50 BE 50 62 41 BE 40 BE 40 BC 40 
9410: BE 40 BE 40 BC 40 F3 40 F1 40 EE 40 EB 40 E8 40 
9420: BC 40 BE 40 BE 40 BC 40 BE 40 BE 40 BC 40 BE 40 
9430: BE 40 BC 40 BE 40 BE 40 BC 40 BE 40 BE 40 62 41 
9440: BE 50 BE 50 BE 50 BE 50 62 41 BB 40 BB 40 BD 40 
9450: BB 40 BB 40 F6 40 F2 40 F0 40 ED 40 EA 40 E7 40 
9460: BD 40 BB 40 BB 40 BD 40 BB 40 BB 40 BD 40 BB 40 
9470: BB 40 BD 40 BB 40 BB 40 BD 40 BB 40 BB 40 62 41 
9480: BE 50 BE 50 BE 50 BE 50 62 41 BE 40 BE 40 BC 40 
9490: BE 40 F9 40 F5 40 ED 40 EF 40 EC 40 E9 40 E6 40 
94a0: BC 40 BE 40 BE 40 BC 40 BE 40 BE 40 BC 40 BE 40 
94b0: BE 40 BC 40 BE 40 BE 40 BC 40 BE 40 BE 40 62 41 
94c0: BE 50 BE 50 BE 50 BE 50 62 41 BE 40 BE 40 BC 40 
94d0: BE 40 F8 40 ED 40 FD 40 BE 40 BC 40 BE 40 BE 40 
94e0: BC 40 BE 40 BE 40 BC 40 BE 40 BE 40 BC 40 BE 40 
94f0: BE 40 BC 40 BE 40 BE 40 BC 40 BE 40 BE 40 62 41 
9500: BE 50 BE 50 BE 50 BE 50 62 41 BB 40 BB 40 BD 40 
9510: BB 40 F7 40 F4 40 FC 40 BB 40 BD 40 BB 40 BB 40 
9520: BD 40 BB 40 BB 40 BD 40 BB 40 BB 40 BD 40 BB 40 
9530: BB 40 BD 40 BB 40 BB 40 BD 40 BB 40 BB 40 62 41 
9540: BE 50 BE 50 BE 50 BE 50 62 41 BE 40 BE 40 BC 40 
9550: BE 40 BE 40 FA 40 FB 40 BE 40 BC 40 BE 40 BE 40 
9560: BC 40 BE 40 BE 40 BC 40 BE 40 BE 40 BC 40 BE 40 
9570: BE 40 BC 40 BE 40 BE 40 BC 40 BE 40 BE 40 62 41 
9580: BE 50 BE 50 BE 50 BE 50 62 41 BE 40 BE 40 BC 40 
9590: BE 40 BE 40 BC 40 96 41 96 43 BC 40 BE 40 BE 40 
95a0: BC 40 BE 40 BE 40 BC 40 BE 40 BE 40 BC 40 BE 40 
95b0: BE 40 BC 40 BE 40 BE 40 BC 40 BE 40 BE 40 62 41 
95c0: BE 50 BE 50 BE 50 BE 50 62 41 BB 40 BB 40 BD 40 
95d0: BB 40 BB 40 BD 40 95 41 95 43 BD 40 BB 40 BB 40 
95e0: BD 40 BB 40 BB 40 BD 40 BB 40 BB 40 BD 40 BB 40 
95f0: BB 40 BD 40 BB 40 BB 40 BD 40 BB 40 BB 40 62 41 
9600: BE 50 BE 50 BE 50 BE 50 62 41 BE 40 BE 40 BC 40 
9610: BE 40 BE 40 BC 40 BE 40 BE 40 BC 40 BE 40 BE 40 
9620: BC 40 BE 40 BE 40 BC 40 BE 40 BE 40 BC 40 BE 40 
9630: BE 40 BC 40 BE 40 BE 40 BC 40 BE 40 BE 40 62 41 
9640: BE 50 BE 50 BE 50 BE 50 62 41 BE 40 BE 40 BC 40 
9650: BE 40 BE 40 BC 40 BE 40 BE 40 BC 40 BE 40 BE 40 
9660: BC 40 BE 40 BE 40 BC 40 BE 40 BE 40 BC 40 BE 40 
9670: BE 40 BC 40 BE 40 BE 40 BC 40 BE 40 BE 40 62 41 
9680: BE 50 BE 50 BE 50 BE 50 62 41 BB 40 BB 40 BD 40 
9690: BB 40 BB 40 BD 40 BB 40 BB 40 BD 40 BB 40 BB 40 
96a0: BD 40 BB 40 BB 40 BD 40 BB 40 BB 40 BD 40 BB 40 
96b0: BB 40 BD 40 BB 40 BB 40 BD 40 BB 40 BB 40 62 41 
96c0: BE 50 BE 50 BE 50 BE 50 62 41 BE 40 BE 40 BC 40 
96d0: BE 40 BE 40 BC 40 BE 40 BE 40 BC 40 BE 40 BE 40 
96e0: BC 40 BE 40 BE 40 BC 40 BE 40 BE 40 BC 40 BE 40 
96f0: BE 40 BC 40 BE 40 BE 40 BC 40 BE 40 BE 40 62 41 
9700: BE 50 BE 50 BE 50 BE 50 62 41 BE 40 BE 40 BC 40 
9710: BE 40 BE 40 BC 40 BE 40 BE 40 BC 40 BE 40 BE 40 
9720: BC 40 BE 40 BE 40 BC 40 BE 40 BE 40 BC 40 BE 40 
9730: BE 40 BC 40 BE 40 BE 40 BC 40 BE 40 BE 40 62 41 
9740: BE 50 BE 50 BE 50 BE 50 62 41 BB 40 BB 40 BD 40 
9750: BB 40 BB 40 BD 40 BB 40 BB 40 BD 40 BB 40 BB 40 
9760: BD 40 BB 40 BB 40 BD 40 BB 40 BB 40 BD 40 BB 40 
9770: BB 40 BD 40 BB 40 BB 40 BD 40 BB 40 BB 40 62 41 
9780: BE 50 BE 50 BE 50 BE 50 62 41 BE 40 BE 40 BC 40 
9790: BE 40 BE 40 BC 40 BE 40 BE 40 BC 40 BE 40 BE 40 
97a0: BC 40 BE 40 BE 40 BC 40 BE 40 BE 40 BC 40 BE 40 
97b0: BE 40 BC 40 BE 40 BE 40 BC 40 BE 40 BE 40 62 41 
97c0: BE 50 BE 50 BE 50 BE 50 62 41 BE 40 BE 40 BC 40 
97d0: BE 40 BE 40 BC 40 BE 40 BE 40 BC 40 BE 40 BE 40 
97e0: BC 40 BE 40 BE 40 BC 40 BE 40 BE 40 BC 40 BE 40 
97f0: BE 40 BC 40 BE 40 BE 40 BC 40 BE 40 BE 40 62 41 
9800: BE 50 BE 50 BE 50 BE 50 62 41 BB 40 BB 40 BD 40 
9810: BB 40 BB 40 BD 40 BB 40 BB 40 BD 40 BB 40 BB 40 
9820: BD 40 BB 40 BB 40 BD 40 BB 40 BB 40 BD 40 BB 40 
9830: BB 40 BD 40 BB 40 BB 40 BD 40 BB 40 BB 40 62 41 
9840: BE 50 BE 50 BE 50 BE 50 62 41 62 41 62 41 62 41 
9850: 62 41 62 41 62 41 62 41 62 41 62 41 62 41 62 41 
9860: 62 41 62 41 62 41 62 41 62 41 62 41 62 41 62 41 
9870: 62 41 62 41 62 41 62 41 62 41 62 41 62 41 62 41 


*** Appears to be 4 bytes of data.  Not sure where it is used.
9880: 64 DC 40 80 

DATA_TO_?_USED_AT_6954:
9884: 4A C6 EC CC 7C DE EC DE BC 65 EF 8F C4 98 DC 2E 
9894: E8 C0 CF 4C C0 C5 7C 74 26 0C 35 62 EF EE FE EC 
98a4: 5E 5C 5C 4F 7C A4 12 D8 38 EE E4 A9 AA 5C A1 4D 
98b4: 8A FD 44 7E DD FC BC 86 CD 4A EC 0D 4E 74 4A 6C 
98c4: F5 FD EC C4 B4 D4 0C DC CA 0C E8 8C BE C8 ED DC 
98d4: D0 5C 4C 4A 44 F5 5D 46 40 F0 2E C0 EC D8 CC EC 
98e4: 55 CE C4 CE 7C E4 74 6F FC A4 DC D9 E8 CD 5C 3B 
98f4: 64 47 2C 74 65 7C 7A 86 50 45 6C CC 

9900: CD 20 70       CALL  ZERO_RAM_C000-C418
9903: 3E 78          LD    A,#$78
9905: 32 6E C4       LD    ($C46E),A
9908: 21 06 9A       LD    HL,$9A06
990b: 22 00 C0       LD    (CPU_RAM_OR_GS_DISK_X_TANK_X_OR_MCP_TRON_LEGS-LC_TRAILS_TO_C1DF),HL
990e: 3E 18          LD    A,#$18
9910: 32 02 C0       LD    (TANK_Y_OR_GS_DISK_Y),A
9913: AF             XOR   A,A
9914: 32 7B C4       LD    (IN_ATTRACT_MODE?),A
9917: 32 65 C4       LD    ($C465),A
991a: DB 00          IN    A,(IO_0)
991c: 2F             CPL   
991d: E6 10          AND   A,#$10
991f: 32 04 C0       LD    ($C004),A
9922: CD 49 70       CALL  INITIALIZE_SPRITES
9925: 0E 02          LD    C,#$02
9927: CD B8 6F       CALL  PUT_C_ON_STACK_TO_SEND_TO_AUDIO
992a: CD C7 6F       CALL  CLEAR_BACKGROUND
992d: CD A4 99       CALL  $99A4
9930: DD 2A 00 C0    LD    IX,(CPU_RAM_OR_GS_DISK_X_TANK_X_OR_MCP_TRON_LEGS-LC_TRAILS_TO_C1DF)
9934: DD 7E 07       LD    A,(IX+$07)
9937: 32 05 F0       LD    ($F005),A
993a: CD CA 99       CALL  $99CA
993d: DB 00          IN    A,(IO_0)
993f: 2F             CPL   
9940: E6 80          AND   A,#$80
9942: CA 00 00       JP    Z,$0000

9945: CD 17 6F       CALL  RESET_WATCHDOG_UNTIL_C400_IS_ONE
9948: CD 58 99       CALL  $9958
994b: CD CA 99       CALL  $99CA
994e: CD 8C 99       CALL  GET_TRIGGER_INPUT_FOR_SERVICE_MENU
9951: 28 EA          JR    Z,$993D

9953: CD EA 99       CALL  $99EA
9956: 18 A8          JR    $9900

9958: 21 02 C0       LD    HL,TANK_Y_OR_GS_DISK_Y
995b: 35             DEC   (HL)
995c: C0             RET   NZ

995d: 36 18          LD    (HL),#$18
995f: 21 03 C0       LD    HL,$C003
9962: DD 2A 00 C0    LD    IX,(CPU_RAM_OR_GS_DISK_X_TANK_X_OR_MCP_TRON_LEGS-LC_TRAILS_TO_C1DF)
9966: DB 02          IN    A,(IO_2)
9968: 2F             CPL   
9969: E6 04          AND   A,#$04
996b: 28 0C          JR    Z,$9979

996d: 7E             LD    A,(HL)
996e: B7             OR    A,A
996f: 28 03          JR    Z,$9974

9971: 35             DEC   (HL)
9972: 18 05          JR    $9979

9974: DD 7E 06       LD    A,(IX+$06)
9977: 3D             DEC   A
9978: 77             LD    (HL),A
9979: DB 02          IN    A,(IO_2)
997b: 2F             CPL   
997c: E6 08          AND   A,#$08
997e: C8             RET   Z

997f: DD 46 06       LD    B,(IX+$06)
9982: 05             DEC   B
9983: 7E             LD    A,(HL)
9984: B8             CP    A,B
9985: 30 02          JR    NC,$9989

9987: 34             INC   (HL)
9988: C9             RET   

9989: 36 00          LD    (HL),#$00
998b: C9             RET   

GET_TRIGGER_INPUT_FOR_SERVICE_MENU:
998c: 3A 04 C0       LD    A,($C004)
998f: 47             LD    B,A
9990: DB 00          IN    A,(IO_0)
9992: 2F             CPL   
9993: E6 10          AND   A,#$10
9995: 32 04 C0       LD    ($C004),A
9998: B7             OR    A,A
9999: 28 04          JR    Z,$999F

999b: 78             LD    A,B
999c: B7             OR    A,A
999d: 28 02          JR    Z,$99A1

999f: AF             XOR   A,A
99a0: C9             RET   

99a1: F6 01          OR    A,#$01
99a3: C9             RET   

99a4: DD 2A 00 C0    LD    IX,(CPU_RAM_OR_GS_DISK_X_TANK_X_OR_MCP_TRON_LEGS-LC_TRAILS_TO_C1DF)
99a8: DD 6E 00       LD    L,(IX+$00)
99ab: DD 66 01       LD    H,(IX+$01)
99ae: E5             PUSH  HL
99af: DD E1          POP   IX
99b1: DD 4E 00       LD    C,(IX+$00)
99b4: DD 46 01       LD    B,(IX+$01)
99b7: 78             LD    A,B
99b8: B1             OR    A,C
99b9: C8             RET   Z

99ba: DD 5E 02       LD    E,(IX+$02)
99bd: DD 56 03       LD    D,(IX+$03)
99c0: CD FF 6F       CALL  ADD_A_MESSAGE_TO_Q
99c3: 11 04 00       LD    DE,$0004
99c6: DD 19          ADD   IX,DE
99c8: 18 E7          JR    $99B1

99ca: DD 2A 00 C0    LD    IX,(CPU_RAM_OR_GS_DISK_X_TANK_X_OR_MCP_TRON_LEGS-LC_TRAILS_TO_C1DF)
99ce: DD 6E 02       LD    L,(IX+$02)
99d1: DD 66 03       LD    H,(IX+$03)
99d4: 16 00          LD    D,#$00
99d6: 3A 03 C0       LD    A,($C003)
99d9: 5F             LD    E,A
99da: 19             ADD   HL,DE
99db: 19             ADD   HL,DE
99dc: DD 21 04 F0    LD    IX,TANK_BODY_OR_LC_OR_IO_OR_MCP_TRON_AND_DISK_TORSO_LEGS_LEFT_DISK_RIGHT
99e0: 7E             LD    A,(HL)
99e1: DD 77 00       LD    (IX+$00),A
99e4: 23             INC   HL
99e5: 7E             LD    A,(HL)
99e6: DD 77 02       LD    (IX+$02),A
99e9: C9             RET   

99ea: DD 2A 00 C0    LD    IX,(CPU_RAM_OR_GS_DISK_X_TANK_X_OR_MCP_TRON_LEGS-LC_TRAILS_TO_C1DF)
99ee: DD 6E 04       LD    L,(IX+$04)
99f1: DD 66 05       LD    H,(IX+$05)
99f4: 16 00          LD    D,#$00
99f6: 3A 03 C0       LD    A,($C003)
99f9: 5F             LD    E,A
99fa: 19             ADD   HL,DE
99fb: 19             ADD   HL,DE
99fc: E5             PUSH  HL
99fd: DD E1          POP   IX
99ff: DD 6E 00       LD    L,(IX+$00)
9a02: DD 66 01       LD    H,(IX+$01)
9a05: E9             JP    (HL)
9a06: 2E 9A          LD    L,#$9A
9a08: 0E 9A          LD    C,#$9A
9a0a: 1E 9A          LD    E,#$9A
9a0c: 08             EX    AF,AF'
9a0d: 06 44          LD    B,#$44
9a0f: 18 44          JR    $9A55

?_DATA_USED_FOR_?0:
9a11: 28 44 38 44 48 44 58 44 68 44 78 44 88 00 AA 2B 
9a21: 9B 2C A4 98 9E 3B A7 64 A3 84 04 89 AD 

TEST_STRINGS_VECTORSET_DESTINATION_AND_SOURCE_12X:
9a2e: C2 FD 60 9A 46 FD 74 9A 4A FD 87 9A 4E FD 90 9A 
9a3e: 52 FD 9F 9A 56 FD AD 9A 5A FD BD 9A 5E FD CC 9A 
9a4e: 62 FD D5 9A 6C FE E4 9A 6E FE FD 9A 72 FE 12 9B 
9a5e: 00 00 

SELECT_DESIRED_TEST_S:
9a60: SELECT DESIRED TEST

1_SELF_DIAGNOSTICS_S:
9a74: 1 SELF DIAGNOSTICS

2_SOUNDS_S:
9a87: 2 SOUNDS

3_PLAYER_INPUT_S:
9a90: 3 PLAYER INPUT

4_BOOKKEEPING_S:
9a9f: 4 BOOKKEEPING

5_MACHINE_SETUP_S:
9aad: 5 MACHINE SETUP

6_CHANNEL_TEST_S:
9abd: 6 CHANNEL TEST

7_PRESET_S:
9acc: 7 PRESET

8_GRID_DISPLAY_S:
9ad5: 8 GRID DISPLAY

POSITION_CURSOR_BY_USING_S:
9ae4: POSITION CURSOR BY USING

JOYSTICK_UP_AND_DOWN_S:
9afd: JOYSTICK UP AND DOWN

HIT_FIRE_BUTTON_FOR_TEST_S:
9b12: HIT FIRE BUTTON FOR TEST

9b2b: 21 D8 9B       LD    HL,?_DATA_USED_FOR_?1
9b2e: 22 00 C0       LD    (CPU_RAM_OR_GS_DISK_X_TANK_X_OR_MCP_TRON_LEGS-LC_TRAILS_TO_C1DF),HL
9b31: 21 50 9E       LD    HL,$9E50
9b34: 22 06 C0       LD    ($C006),HL
9b37: 3E 18          LD    A,#$18
9b39: AF             XOR   A,A
9b3a: 32 03 C0       LD    ($C003),A
9b3d: 32 05 C0       LD    ($C005),A
9b40: CD C7 6F       CALL  CLEAR_BACKGROUND
9b43: CD 49 70       CALL  INITIALIZE_SPRITES
9b46: 0E 02          LD    C,#$02
9b48: CD B8 6F       CALL  PUT_C_ON_STACK_TO_SEND_TO_AUDIO
9b4b: CD A4 99       CALL  $99A4
9b4e: DD 2A 00 C0    LD    IX,(CPU_RAM_OR_GS_DISK_X_TANK_X_OR_MCP_TRON_LEGS-LC_TRAILS_TO_C1DF)
9b52: DD 7E 07       LD    A,(IX+$07)
9b55: 32 05 F0       LD    ($F005),A
9b58: 3A 05 C0       LD    A,($C005)
9b5b: B7             OR    A,A
9b5c: C0             RET   NZ

9b5d: DB 00          IN    A,(IO_0)
9b5f: 2F             CPL   
9b60: E6 80          AND   A,#$80
9b62: C8             RET   Z

9b63: CD 17 6F       CALL  RESET_WATCHDOG_UNTIL_C400_IS_ONE
9b66: CD 58 99       CALL  $9958
9b69: CD CA 99       CALL  $99CA
9b6c: CD 8C 99       CALL  GET_TRIGGER_INPUT_FOR_SERVICE_MENU
9b6f: 28 E7          JR    Z,$9B58

9b71: CD EA 99       CALL  $99EA
9b74: 18 E2          JR    $9B58

9b76: 2A 06 C0       LD    HL,($C006)
9b79: 16 00          LD    D,#$00
9b7b: 3A 03 C0       LD    A,($C003)
9b7e: D6 02          SUB   A,#$02
9b80: 5F             LD    E,A
9b81: 19             ADD   HL,DE
9b82: 19             ADD   HL,DE
9b83: 19             ADD   HL,DE
9b84: E5             PUSH  HL
9b85: DD E1          POP   IX
9b87: DD 4E 00       LD    C,(IX+$00)
9b8a: CD B8 6F       CALL  PUT_C_ON_STACK_TO_SEND_TO_AUDIO
9b8d: DD 46 01       LD    B,(IX+$01)
9b90: 04             INC   B
9b91: CD 17 6F       CALL  RESET_WATCHDOG_UNTIL_C400_IS_ONE
9b94: 10 FB          DJNZ  $9B91

9b96: DD 7E 02       LD    A,(IX+$02)
9b99: B7             OR    A,A
9b9a: FA A0 9B       JP    M,$9BA0

9b9d: 20 05          JR    NZ,$9BA4

9b9f: C9             RET   

9ba0: 0E 02          LD    C,#$02
9ba2: 18 01          JR    $9BA5

9ba4: 4F             LD    C,A
9ba5: CD B8 6F       CALL  PUT_C_ON_STACK_TO_SEND_TO_AUDIO
9ba8: C9             RET   

9ba9: 3E 02          LD    A,#$02
9bab: 32 03 C0       LD    ($C003),A
9bae: 3A 03 C0       LD    A,($C003)
9bb1: DD 2A 00 C0    LD    IX,(CPU_RAM_OR_GS_DISK_X_TANK_X_OR_MCP_TRON_LEGS-LC_TRAILS_TO_C1DF)
9bb5: DD BE 06       CP    A,(IX+$06)
9bb8: 30 13          JR    NC,$9BCD

9bba: CD CA 99       CALL  $99CA
9bbd: 06 0A          LD    B,#$0A
9bbf: CD 17 6F       CALL  RESET_WATCHDOG_UNTIL_C400_IS_ONE
9bc2: 10 FB          DJNZ  $9BBF

9bc4: CD 76 9B       CALL  $9B76
9bc7: 21 03 C0       LD    HL,$C003
9bca: 34             INC   (HL)
9bcb: 18 E1          JR    $9BAE

9bcd: AF             XOR   A,A
9bce: 32 03 C0       LD    ($C003),A
9bd1: C9             RET   

9bd2: 3E 01          LD    A,#$01
9bd4: 32 05 C0       LD    ($C005),A
9bd7: C9             RET   

?_DATA_USED_FOR_?1:
9bd8: 14 9C E0 9B 1C 9E 1A 06 3F 10 3F 18 3F 20 3F 28 
9be8: 3F 30 3F 38 3F 40 3F 48 3F 50 3F 58 3F 60 3F 68 
9bf8: 3F 70 3F 78 3F 80 3F 88 3F 90 3F 98 3F A0 3F A8 
9c08: 3F B0 3F B8 3F C0 3F C8 3F D0 3F D8 

SOUND_TEST_STRINGS_VECTORSET_DESTINATION_AND_SOURCE_30X:
9c14: 42 FD 8E 9C 44 FD 9D 9C 46 FD AB 9C 48 FD B3 9C 
9c24: 4A FD C1 9C 4C FD D1 9C 4E FD E2 9C 50 FD F2 9C 
9c34: 52 FD 03 9D 54 FD 13 9D 96 FD 21 9D 98 FD 2A 9D 
9c44: 9A FD 41 9D 9C FD 54 9D 9E FD 5D 9D A0 FD 6F 9D 
9c54: A2 FD 7E 9D A4 FD 8F 9D A6 FD 9D 9D A8 FD AB 9D 
9c64: AA FD B9 9D AC FD C7 9D AE FD D1 9D B0 FD DE 9D 
9c74: B2 FD EB 9D B4 FD FB 9D B6 FD 0A 9E 78 FE E4 9A 
9c84: 7A FE FD 9A 7C FE 12 9B 00 00 

SELECT_A_SOUND_S:
9c8e: SELECT A SOUND

1__ALL_SOUNDS_S:
9c9d: 1  ALL SOUNDS

2__EXIT_S:
9cab: 2  EXIT

3__THROW_DISK_S:
9cb3: 3  THROW DISK

4__HI_GEAR_HORZ_S:
9cc1: 4  HI GEAR HORZ

5__LOW_GEAR_HORZ_S:
9cd1: 5  LOW GEAR HORZ

6__HI_GEAR_VERT_S:
9ce2: 6  HI GEAR VERT

7__LOW_GEAR_VERT_S:
9cf2: 7  LOW GEAR VERT

8__MISSILE_FIRE_S:
9d03: 8  MISSILE FIRE

9__BONUS_BASE_S:
9d13: 9  BONUS BASE

10__TILT_S:
9d21: 10  TILT

11__ALL_MCP_BLOCKS_HIT_S:
9d2a: 11  ALL MCP BLOCKS HIT

12__IO_TOWER_MUSIC_S:
9d41: 12  IO TOWER MUSIC

13__COIN_S:
9d54: 13  COIN

14__SUCCESS_MUSIC_S:
9d5d: 14  SUCCESS MUSIC

15__FAIL_MUSIC_S:
9d6f: 15  FAIL MUSIC

16__ATTACK_SOUND_S:
9d7e: 16  ATTACK SOUND

17__TANK_HORZ_S:
9d8f: 17  TANK HORZ

18__TANK_VERT_S:
9d9d: 18  TANK VERT

19__TANK_FIRE_S:
9dab: 19  TANK FIRE

20__TANK_BLIP_S:
9db9: 20  TANK BLIP

21__DEREZ_S:
9dc7: 21  DEREZ

22__MCP_BLIP_S:
9dd1: 22  MCP BLIP

23__RELOCATE_S:
9dde: 23  RELOCATE

24__TTY_CLATTER_S:
9deb: 24  TTY CLATTER

25__TOWER_BEAM_S:
9dfb: 25  TOWER BEAM

26__TIMER_WARNING_S:
9e0a: 26  TIMER WARNING

9e1c: A9 9B D2 9B 76 9B 76 9B 76 9B 76 9B 76 9B 76 9B 
9e2c: 76 9B 76 9B 76 9B 76 9B 76 9B 76 9B 76 9B 76 9B 
9e3c: 76 9B 76 9B 76 9B 76 9B 76 9B 76 9B 76 9B 76 9B 
9e4c: 76 9B 76 9B 08 20 00 09 1E 1B 0A 1E 1C 1D 1E 1E 
9e5c: 1F 30 20 0F 10 00 11 32 00 18 32 FF 41 1E 00 21 
9e6c: 64 22 23 64 FF 25 64 FF 27 64 FF 29 1E 2A 2B 32 
9e7c: 2C 35 32 36 2D 14 00 2E 32 2F 30 32 00 31 10 00 
9e8c: 37 1E 00 16 08 00 3C 14 FF 3F 14 40 

9e98: 21 E0 9E       LD    HL,$9EE0
9e9b: 22 00 C0       LD    (CPU_RAM_OR_GS_DISK_X_TANK_X_OR_MCP_TRON_LEGS-LC_TRAILS_TO_C1DF),HL
9e9e: 3E 18          LD    A,#$18
9ea0: AF             XOR   A,A
9ea1: 32 03 C0       LD    ($C003),A
9ea4: 32 05 C0       LD    ($C005),A
9ea7: CD C7 6F       CALL  CLEAR_BACKGROUND
9eaa: CD 49 70       CALL  INITIALIZE_SPRITES
9ead: 0E 02          LD    C,#$02
9eaf: CD B8 6F       CALL  PUT_C_ON_STACK_TO_SEND_TO_AUDIO
9eb2: CD A4 99       CALL  $99A4
9eb5: DD 2A 00 C0    LD    IX,(CPU_RAM_OR_GS_DISK_X_TANK_X_OR_MCP_TRON_LEGS-LC_TRAILS_TO_C1DF)
9eb9: DD 7E 07       LD    A,(IX+$07)
9ebc: 32 05 F0       LD    ($F005),A
9ebf: CD BF 9F       CALL  $9FBF
9ec2: 3A 05 C0       LD    A,($C005)
9ec5: B7             OR    A,A
9ec6: C0             RET   NZ

9ec7: DB 00          IN    A,(IO_0)
9ec9: 2F             CPL   
9eca: E6 80          AND   A,#$80
9ecc: C8             RET   Z

9ecd: CD 17 6F       CALL  RESET_WATCHDOG_UNTIL_C400_IS_ONE
9ed0: CD 58 99       CALL  $9958
9ed3: CD CA 99       CALL  $99CA
9ed6: CD 8C 99       CALL  GET_TRIGGER_INPUT_FOR_SERVICE_MENU
9ed9: 28 E7          JR    Z,$9EC2

9edb: CD EA 99       CALL  $99EA
9ede: 18 C7          JR    $9EA7

9ee0: EE 9E E8 9E B9 9F 03 06 24 88 24 98 24 A8 82 FE 
9ef0: 28 9F 46 FE 40 9F 4A FE 4F 9F 4E FE 5E 9F 52 FE 
9f00: 6B 9F 56 FE 79 9F 5A FE 87 9F 5E FE 94 9F 62 FE 
9f10: 9B 9F 66 FE A7 9F 6A FE B4 9F F2 FE E4 9A F4 FE 
9f20: FD 9A F6 FE 12 9B 00 00 

SELECT_A_REPORT_OR_EXIT_S:
9f28: SELECT A REPORT OR EXIT

CHUTE__1_COINS_S:
9f40: CHUTE  1 COINS

CHUTE__2_COINS_S:
9f4f: CHUTE  2 COINS

LONGEST_GAME_S:
9f5e: LONGEST GAME

SHORTEST_GAME_S:
9f6b: SHORTEST GAME

HIGHEST_SCORE_S:
9f79: HIGHEST SCORE

LOWEST_SCORE_S:
9f87: LOWEST SCORE

BUY_IN_S:
9f94: BUY IN

TIME_REPORT_S:
9f9b: TIME REPORT

SCORE_REPORT_S:
9fa7: SCORE REPORT

EXIT_S:
9fb4: EXIT

9fb9: CD A0 08       CALL  $08A0
9fbc: A2             AND   A,D
9fbd: D2 9B 2A       JP    NC,$2A9B

9fc0: 80             ADD   A,B
9fc1: C6 DD          ADD   A,#$DD
9fc3: 21 1D C0       LD    HL,$C01D
9fc6: CD 69 A0       CALL  $A069
9fc9: 06 05          LD    B,#$05
9fcb: 0E 00          LD    C,#$00
9fcd: 1E 01          LD    E,#$01
9fcf: DD 21 06 FA    LD    IX,$FA06
9fd3: 21 1D C0       LD    HL,$C01D
9fd6: CD 79 A0       CALL  $A079
9fd9: 2A 82 C6       LD    HL,($C682)
9fdc: DD 21 1D C0    LD    IX,$C01D
9fe0: CD 69 A0       CALL  $A069
9fe3: 06 05          LD    B,#$05
9fe5: 0E 00          LD    C,#$00
9fe7: 1E 01          LD    E,#$01
9fe9: DD 21 0A FA    LD    IX,$FA0A
9fed: 21 1D C0       LD    HL,$C01D
9ff0: CD 79 A0       CALL  $A079
9ff3: 21 28 C5       LD    HL,$C528
9ff6: DD 21 0E FA    LD    IX,$FA0E
9ffa: CD B7 A0       CALL  $A0B7
9ffd: 21 2A C5       LD    HL,$C52A
a000: DD 21 12 FA    LD    IX,$FA12
a004: CD B7 A0       CALL  $A0B7
a007: 06 06          LD    B,#$06
a009: 0E 00          LD    C,#$00
a00b: DD 21 56 FA    LD    IX,$FA56
a00f: 21 22 C5       LD    HL,$C522
a012: CD 77 A0       CALL  $A077
a015: 06 06          LD    B,#$06
a017: 0E 00          LD    C,#$00
a019: DD 21 5A FA    LD    IX,$FA5A
a01d: 21 25 C5       LD    HL,$C525
a020: CD 77 A0       CALL  $A077
a023: 2A 84 C6       LD    HL,($C684)
a026: DD 21 1D C0    LD    IX,$C01D
a02a: CD 69 A0       CALL  $A069
a02d: 06 05          LD    B,#$05
a02f: 0E 00          LD    C,#$00
a031: 1E 01          LD    E,#$01
a033: DD 21 1E FA    LD    IX,$FA1E
a037: 21 1D C0       LD    HL,$C01D
a03a: C3 79 A0       JP    $A079

a03d: 06 03          LD    B,#$03
a03f: AF             XOR   A,A
a040: DD 77 00       LD    (IX+$00),A
a043: DD 77 01       LD    (IX+$01),A
a046: DD 77 02       LD    (IX+$02),A
a049: FD 5E 00       LD    E,(IY+$00)
a04c: FD 23          INC   IY
a04e: FD 56 00       LD    D,(IY+$00)
a051: FD 23          INC   IY
a053: B7             OR    A,A
a054: ED 52          SBC   HL,DE
a056: 38 0B          JR    C,$A063

a058: DD 7E 00       LD    A,(IX+$00)
a05b: C6 01          ADD   A,#$01
a05d: 27             DAA   
a05e: DD 77 00       LD    (IX+$00),A
a061: 18 F0          JR    $A053

a063: 19             ADD   HL,DE
a064: DD 23          INC   IX
a066: 10 E1          DJNZ  $A049

a068: C9             RET   

a069: FD 21 71 A0    LD    IY,$A071
a06d: CD 3D A0       CALL  $A03D
a070: C9             RET   

a071: 10 27 64 00 01 00 1E 00 

a079: 7B             LD    A,E
a07a: B7             OR    A,A
a07b: 7E             LD    A,(HL)
a07c: 28 05          JR    Z,$A083

a07e: 1E 00          LD    E,#$00
a080: 23             INC   HL
a081: 18 06          JR    $A089

a083: 1F             RRA   
a084: 1F             RRA   
a085: 1F             RRA   
a086: 1F             RRA   
a087: 1E 01          LD    E,#$01
a089: E6 0F          AND   A,#$0F
a08b: 05             DEC   B
a08c: 20 02          JR    NZ,$A090

a08e: 0E 01          LD    C,#$01
a090: 04             INC   B
a091: C6 30          ADD   A,#$30
a093: FE 30          CP    A,#$30
a095: 20 0E          JR    NZ,$A0A5

a097: 0C             INC   C
a098: 0D             DEC   C
a099: 20 0B          JR    NZ,$A0A6

a09b: DD 36 00 5E    LD    (IX+$00),#$5E
a09f: DD 36 01 51    LD    (IX+$01),#$51
a0a3: 18 08          JR    $A0AD

a0a5: 4F             LD    C,A
a0a6: DD 77 00       LD    (IX+$00),A
a0a9: DD 36 01 50    LD    (IX+$01),#$50
a0ad: D5             PUSH  DE
a0ae: 11 C0 FF       LD    DE,$FFC0
a0b1: DD 19          ADD   IX,DE
a0b3: D1             POP   DE
a0b4: 10 C3          DJNZ  $A079

a0b6: C9             RET   

a0b7: 01 02 02       LD    BC,$0202
a0ba: CD 77 A0       CALL  $A077
a0bd: DD 36 00 5E    LD    (IX+$00),#$5E
a0c1: 01 C0 FF       LD    BC,$FFC0
a0c4: DD 09          ADD   IX,BC
a0c6: 01 02 02       LD    BC,$0202
a0c9: CD 77 A0       CALL  $A077
a0cc: C9             RET   

a0cd: CD C7 6F       CALL  CLEAR_BACKGROUND
a0d0: CD 49 70       CALL  INITIALIZE_SPRITES
a0d3: DD 21 20 A1    LD    IX,$A120
a0d7: CD B1 99       CALL  $99B1
a0da: 06 0A          LD    B,#$0A
a0dc: 21 6C C6       LD    HL,$C66C
a0df: FD 21 F4 A1    LD    IY,$A1F4
a0e3: 5E             LD    E,(HL)
a0e4: 23             INC   HL
a0e5: 56             LD    D,(HL)
a0e6: 23             INC   HL
a0e7: E5             PUSH  HL
a0e8: C5             PUSH  BC
a0e9: FD E5          PUSH  IY
a0eb: EB             EX    DE,HL
a0ec: DD 21 1D C0    LD    IX,$C01D
a0f0: CD 69 A0       CALL  $A069
a0f3: 06 05          LD    B,#$05
a0f5: 0E 00          LD    C,#$00
a0f7: 1E 01          LD    E,#$01
a0f9: 21 1D C0       LD    HL,$C01D
a0fc: FD E1          POP   IY
a0fe: FD 5E 00       LD    E,(IY+$00)
a101: FD 56 01       LD    D,(IY+$01)
a104: D5             PUSH  DE
a105: DD E1          POP   IX
a107: FD 23          INC   IY
a109: FD 23          INC   IY
a10b: CD 79 A0       CALL  $A079
a10e: C1             POP   BC
a10f: E1             POP   HL
a110: 10 D1          DJNZ  $A0E3

a112: CD 17 6F       CALL  RESET_WATCHDOG_UNTIL_C400_IS_ONE
a115: CD 8C 99       CALL  GET_TRIGGER_INPUT_FOR_SERVICE_MENU
a118: C0             RET   NZ

a119: DB 00          IN    A,(IO_0)
a11b: E6 80          AND   A,#$80
a11d: C0             RET   NZ

a11e: 18 F2          JR    $A112

a120: C2 FC 52 A1 C6 FD 5E A1 CA FD 6A A1 CE FD 77 A1 
a130: D2 FD 84 A1 D6 FD 92 A1 DA FD A1 A1 DE FD B0 A1 
a140: E2 FD BB A1 E6 FD C6 A1 EA FD D1 A1 F2 FE DC A1 
a150: 00 00 

TIME_REPORT2_S:
a152: TIME REPORT

0_TO_30_SEC_S:
a15e: 0 TO 30 SEC

30_TO_60_SEC_S:
a16a: 30 TO 60 SEC

60_TO_90_SEC_S:
a177: 60 TO 90 SEC

90_TO_120_SEC_S:
a184: 90 TO 120 SEC

120_TO_150_SEC_S:
a192: 120 TO 150 SEC

150_TO_180_SEC_S:
a1a1: 150 TO 180 SEC

3_TO_4_MIN_S:
a1b0: 3 TO 4 MIN

4_TO_5_MIN_S:
a1bb: 4 TO 5 MIN

5_TO_6_MIN_S:
a1c6: 5 TO 6 MIN

OVER_6_MIN_S:
a1d1: OVER 6 MIN

HIT_FIRE_BUTTON_TO_EXIT_S:
a1dc: HIT FIRE BUTTON TO EXIT

a1f4: C6 F9 CA F9 CE F9 D2 F9 D6 F9 DA F9 DE F9 E2 F9 
a204: E6 F9 EA F9 

a208: CD C7 6F       CALL  CLEAR_BACKGROUND
a20b: CD 49 70       CALL  INITIALIZE_SPRITES
a20e: DD 21 59 A2    LD    IX,$A259
a212: CD B1 99       CALL  $99B1
a215: 06 0A          LD    B,#$0A
a217: 21 58 C6       LD    HL,$C658
a21a: FD 21 50 A3    LD    IY,$A350
a21e: 5E             LD    E,(HL)
a21f: 23             INC   HL
a220: 56             LD    D,(HL)
a221: 23             INC   HL
a222: E5             PUSH  HL
a223: C5             PUSH  BC
a224: FD E5          PUSH  IY
a226: EB             EX    DE,HL
a227: DD 21 1D C0    LD    IX,$C01D
a22b: CD 69 A0       CALL  $A069
a22e: 06 06          LD    B,#$06
a230: 0E 00          LD    C,#$00
a232: 21 1D C0       LD    HL,$C01D
a235: FD E1          POP   IY
a237: FD 5E 00       LD    E,(IY+$00)
a23a: FD 56 01       LD    D,(IY+$01)
a23d: D5             PUSH  DE
a23e: DD E1          POP   IX
a240: FD 23          INC   IY
a242: FD 23          INC   IY
a244: CD 77 A0       CALL  $A077
a247: C1             POP   BC
a248: E1             POP   HL
a249: 10 D3          DJNZ  $A21E

a24b: CD 17 6F       CALL  RESET_WATCHDOG_UNTIL_C400_IS_ONE
a24e: CD 8C 99       CALL  GET_TRIGGER_INPUT_FOR_SERVICE_MENU
a251: C0             RET   NZ

a252: DB 00          IN    A,(IO_0)
a254: E6 80          AND   A,#$80
a256: C0             RET   NZ

a257: 18 F2          JR    $A24B

a259: C0 FC 8B A2 86 FE 98 A2 8A FE A6 A2 8E FE B8 A2 
a269: 92 FE CB A2 96 FE DE A2 9A FE F1 A2 9E FE 04 A3 
a279: A2 FE 17 A3 A6 FE 2B A3 AA FE 40 A3 B2 FE DC A1 
a289: 00 00 

SCORE_REPORT2_S:
a28b: SCORE REPORT

0_TO_5000_PTS_S:
a298: 0 TO 5000 PTS

5000_TO_10000_PTS_S:
a2a6: 5000 TO 10000 PTS

10000_TO_20000_PTS_S:
a2b8: 10000 TO 20000 PTS

20000_TO_30000_PTS_S:
a2cb: 20000 TO 30000 PTS

30000_TO_40000_PTS_S:
a2de: 30000 TO 40000 PTS

40000_TO_50000_PTS_S:
a2f1: 40000 TO 50000 PTS

50000_TO_75000_PTS_S:
a304: 50000 TO 75000 PTS

75000_TO_100000_PTS_S:
a317: 75000 TO 100000 PTS

100000_TO_150000_PTS_S:
a32b: 100000 TO 150000 PTS

OVER_150000_PTS_S:
a340: OVER 150000 PTS

a350: C6 F9 CA F9 CE F9 D2 F9 D6 F9 DA F9 DE F9 E2 F9 
a360: E6 F9 EA F9 

a364: CD C7 6F       CALL  CLEAR_BACKGROUND
a367: CD 49 70       CALL  INITIALIZE_SPRITES
a36a: 0E 02          LD    C,#$02
a36c: CD B8 6F       CALL  PUT_C_ON_STACK_TO_SEND_TO_AUDIO
a36f: 21 AD A3       LD    HL,$A3AD
a372: 22 00 C0       LD    (CPU_RAM_OR_GS_DISK_X_TANK_X_OR_MCP_TRON_LEGS-LC_TRAILS_TO_C1DF),HL
a375: AF             XOR   A,A
a376: 32 03 C0       LD    ($C003),A
a379: CD A4 99       CALL  $99A4
a37c: DD 2A 00 C0    LD    IX,(CPU_RAM_OR_GS_DISK_X_TANK_X_OR_MCP_TRON_LEGS-LC_TRAILS_TO_C1DF)
a380: DD 7E 07       LD    A,(IX+$07)
a383: 32 05 F0       LD    ($F005),A
a386: 0E 1A          LD    C,#$1A
a388: CD B8 6F       CALL  PUT_C_ON_STACK_TO_SEND_TO_AUDIO
a38b: 3A 03 C0       LD    A,($C003)
a38e: FE 06          CP    A,#$06
a390: 30 D2          JR    NC,$A364

a392: CD CA 99       CALL  $99CA
a395: 06 0E          LD    B,#$0E
a397: CD 17 6F       CALL  RESET_WATCHDOG_UNTIL_C400_IS_ONE
a39a: DB 00          IN    A,(IO_0)
a39c: E6 80          AND   A,#$80
a39e: C0             RET   NZ

a39f: C5             PUSH  BC
a3a0: CD 8C 99       CALL  GET_TRIGGER_INPUT_FOR_SERVICE_MENU
a3a3: C1             POP   BC
a3a4: C0             RET   NZ

a3a5: 10 F0          DJNZ  $A397

a3a7: 21 03 C0       LD    HL,$C003
a3aa: 34             INC   (HL)
a3ab: 18 DE          JR    $A38B

a3ad: C1 A3 B5 A3 00 00 06 06 44 18 44 28 44 38 44 48 
a3bd: 44 58 44 68 42 FD E3 A3 46 FD F0 A3 4A FD FA A3 
a3cd: 4E FD 04 A4 52 FD 0E A4 56 FD 18 A4 5A FD 22 A4 
a3dd: 62 FE DC A1 00 00 

CHANNEL_TEST_S:
a3e3: CHANNEL TEST

CHANNEL_1_S:
a3f0: CHANNEL 1

CHANNEL_2_S:
a3fa: CHANNEL 2

CHANNEL_3_S:
a404: CHANNEL 3

CHANNEL_4_S:
a40e: CHANNEL 4

CHANNEL_5_S:
a418: CHANNEL 5

CHANNEL_6_S:
a422: CHANNEL 6

a42c: CD C7 6F       CALL  CLEAR_BACKGROUND
a42f: CD 49 70       CALL  INITIALIZE_SPRITES
a432: 0E 02          LD    C,#$02
a434: CD B8 6F       CALL  PUT_C_ON_STACK_TO_SEND_TO_AUDIO
a437: DD 21 50 A4    LD    IX,$A450
a43b: CD B1 99       CALL  $99B1
a43e: AF             XOR   A,A
a43f: 32 08 C0       LD    ($C008),A
a442: DB 00          IN    A,(IO_0)
a444: 2F             CPL   
a445: E6 80          AND   A,#$80
a447: C8             RET   Z

a448: CD 17 6F       CALL  RESET_WATCHDOG_UNTIL_C400_IS_ONE
a44b: CD B0 A4       CALL  $A4B0
a44e: 18 F2          JR    $A442

a450: 00 FD 62 A4 F0 FE 70 A4 F2 FE 8A A4 F6 FE 9F A4 
a460: 00 00 

PLAYER_INPUTS_S:
a462: PLAYER INPUTS

ACTIVATE_ALL_PLAYER_INPUT_S:
a470: ACTIVATE ALL PLAYER INPUT

SWITCHES_AND_DEVICES_S:
a48a: SWITCHES AND DEVICES

HIT_TILT_TO_EXIT_S:
a49f: HIT TILT TO EXIT

a4b0: DD 21 56 A5    LD    IX,$A556
a4b4: FD 21 09 C0    LD    IY,MCP_TRON_Y_TANKS_DATA_VECTOR_x_2
a4b8: DD 7E 00       LD    A,(IX+$00)
a4bb: B7             OR    A,A
a4bc: FA 52 A5       JP    M,$A552

a4bf: DD 4E 01       LD    C,(IX+$01)
a4c2: ED 78          IN    A,(C)
a4c4: 2F             CPL   
a4c5: DD A6 02       AND   A,(IX+$02)
a4c8: 47             LD    B,A
a4c9: FD BE 00       CP    A,(IY+$00)
a4cc: 20 06          JR    NZ,$A4D4

a4ce: 3A 08 C0       LD    A,($C008)
a4d1: B7             OR    A,A
a4d2: 20 74          JR    NZ,$A548

a4d4: FD 70 00       LD    (IY+$00),B
a4d7: DD 7E 00       LD    A,(IX+$00)
a4da: B7             OR    A,A
a4db: 20 2B          JR    NZ,$A508

a4dd: 78             LD    A,B
a4de: DD 6E 04       LD    L,(IX+$04)
a4e1: DD 66 05       LD    H,(IX+$05)
a4e4: 4E             LD    C,(HL)
a4e5: 23             INC   HL
a4e6: 46             LD    B,(HL)
a4e7: 23             INC   HL
a4e8: B7             OR    A,A
a4e9: 28 12          JR    Z,$A4FD

a4eb: EB             EX    DE,HL
a4ec: CD FF 6F       CALL  ADD_A_MESSAGE_TO_Q
a4ef: 3A 08 C0       LD    A,($C008)
a4f2: B7             OR    A,A
a4f3: 28 53          JR    Z,$A548

a4f5: DD 4E 03       LD    C,(IX+$03)
a4f8: CD B8 6F       CALL  PUT_C_ON_STACK_TO_SEND_TO_AUDIO
a4fb: 18 4B          JR    $A548

a4fd: DD 5E 06       LD    E,(IX+$06)
a500: DD 56 07       LD    D,(IX+$07)
a503: CD FF 6F       CALL  ADD_A_MESSAGE_TO_Q
a506: 18 40          JR    $A548

a508: 3A 08 C0       LD    A,($C008)
a50b: B7             OR    A,A
a50c: 20 0E          JR    NZ,$A51C

a50e: DD 6E 04       LD    L,(IX+$04)
a511: DD 66 05       LD    H,(IX+$05)
a514: 4E             LD    C,(HL)
a515: 23             INC   HL
a516: 46             LD    B,(HL)
a517: 23             INC   HL
a518: EB             EX    DE,HL
a519: CD FF 6F       CALL  ADD_A_MESSAGE_TO_Q
a51c: FD 6E 00       LD    L,(IY+$00)
a51f: 26 00          LD    H,#$00
a521: FD E5          PUSH  IY
a523: DD E5          PUSH  IX
a525: DD 21 1D C0    LD    IX,$C01D
a529: CD 69 A0       CALL  $A069
a52c: 01 00 03       LD    BC,$0300
a52f: DD E1          POP   IX
a531: FD E1          POP   IY
a533: DD 5E 06       LD    E,(IX+$06)
a536: DD 56 07       LD    D,(IX+$07)
a539: DD E5          PUSH  IX
a53b: D5             PUSH  DE
a53c: DD E1          POP   IX
a53e: 21 1E C0       LD    HL,$C01E
a541: 1E 01          LD    E,#$01
a543: CD 79 A0       CALL  $A079
a546: DD E1          POP   IX
a548: 11 08 00       LD    DE,$0008
a54b: DD 19          ADD   IX,DE
a54d: FD 23          INC   IY
a54f: C3 B8 A4       JP    $A4B8

a552: 32 08 C0       LD    ($C008),A
a555: C9             RET   

a556: 00 00 01 23 F7 A5 BA A6 00 00 02 37 06 A6 BA A6 
a566: 00 00 40 08 15 A6 BA A6 00 00 04 0F 26 A6 BA A6 
a576: 00 00 08 0E 31 A6 BA A6 00 00 10 2D 3C A6 BA A6 
a586: 00 02 01 11 53 A6 BA A6 00 02 02 39 47 A6 BA A6 
a596: 00 02 04 16 5E A6 BA A6 00 02 08 31 67 A6 BA A6 
a5a6: 01 01 7F 01 92 A6 1C F9 01 04 7F 01 A6 A6 1E F9 
a5b6: 00 03 04 01 72 A6 83 A6 00 03 01 01 E7 A6 F7 A6 
a5c6: 00 03 02 01 CB A6 DA A6 00 03 80 2D 05 A7 BA A6 
a5d6: 00 02 10 11 1C A7 BA A6 00 02 20 39 10 A7 BA A6 
a5e6: 00 02 40 16 27 A7 BA A6 00 02 80 31 30 A7 BA A6 

a5f7: C6 FD 

COIN_CHUTE_1_S:
a5f9: COIN CHUTE 1

a606: C8 FD 

COIN_CHUTE_2_S:
a608: COIN CHUTE 2

a615: CA FD 

SERVICE_BUTTON_S:
a617: SERVICE BUTTON

a626: CC FD 

1_PLAYER_S:
a628: 1 PLAYER

a631: CE FD 

2_PLAYER_S:
a633: 2 PLAYER

a63c: D0 FD 

PL1_FIRE_S:
a63e: PL1 FIRE

a647: D2 FD 

PL1_RIGHT_S:
a649: PL1 RIGHT

a653: D4 FD 

PL1_LEFT_S:
a655: PL1 LEFT

a65e: D6 FD 

PL1_UP_S:
a660: PL1 UP

a667: D8 FD 

PL1_DOWN_S:
a669: PL1 DOWN

a672: DA FD 

BUY_IN_ALLOWED_S:
a674: BUY IN ALLOWED

NO_BUY_IN_S:
a683: NO BUY IN     

a692: DC FD 

ROTATE_VALUE_PL_1_S:
a694: ROTATE VALUE PL 1

a6a6: DE FD 

ROTATE_VALUE_PL_2_S:
a6a8: ROTATE VALUE PL 2

EMPTY_S:
a6ba:                 

a6cb: E0 FD 

MINI_UPRIGHT_S:
a6cd: MINI UPRIGHT

COCKTAIL_S:
a6da: COCKTAIL    

a6e7: E2 FD 

2_COIN_METERS_S:
a6e9: 2 COIN METERS

1_COIN_METER_S:
a6f7: 1 COIN METER 

a705: E4 FD 

PL2_FIRE_S:
a707: PL2 FIRE

a710: E6 FD 

PL2_RIGHT_S:
a712: PL2 RIGHT

a71c: E8 FD 

PL2_LEFT_S:
a71e: PL2 LEFT

a727: EA FD 

PL2_UP_S:
a729: PL2 UP

a730: EC FD 

PL2_DOWN_S:
a732: PL2 DOWN

a73b: CD C7 6F       CALL  CLEAR_BACKGROUND
a73e: CD 49 70       CALL  INITIALIZE_SPRITES
a741: DD 21 73 A8    LD    IX,$A873
a745: CD B1 99       CALL  $99B1
a748: DD 21 94 A9    LD    IX,$A994
a74c: DD 7E 00       LD    A,(IX+$00)
a74f: FE A0          CP    A,#$A0
a751: 28 0A          JR    Z,$A75D

a753: CD 3E A8       CALL  $A83E
a756: 11 06 00       LD    DE,$0006
a759: DD 19          ADD   IX,DE
a75b: 18 EF          JR    $A74C

a75d: FD 21 04 F0    LD    IY,TANK_BODY_OR_LC_OR_IO_OR_MCP_TRON_AND_DISK_TORSO_LEGS_LEFT_DISK_RIGHT
a761: FD 36 00 28    LD    (IY+$00),#$28
a765: FD 36 01 06    LD    (IY+$01),#$06
a769: DD 21 94 A9    LD    IX,$A994
a76d: DD 7E 00       LD    A,(IX+$00)
a770: FD 77 02       LD    (IY+$02),A
a773: DB 00          IN    A,(IO_0)
a775: E6 80          AND   A,#$80
a777: C0             RET   NZ

a778: DB 02          IN    A,(IO_2)
a77a: 2F             CPL   
a77b: E6 0C          AND   A,#$0C
a77d: 28 39          JR    Z,$A7B8

a77f: FE 08          CP    A,#$08
a781: 20 14          JR    NZ,$A797

a783: DD 7E 00       LD    A,(IX+$00)
a786: FE A0          CP    A,#$A0
a788: 28 07          JR    Z,$A791

a78a: 01 06 00       LD    BC,$0006
a78d: DD 09          ADD   IX,BC
a78f: 18 1D          JR    $A7AE

a791: DD 21 94 A9    LD    IX,$A994
a795: 18 17          JR    $A7AE

a797: DD 7E 00       LD    A,(IX+$00)
a79a: FE 20          CP    A,#$20
a79c: 28 07          JR    Z,$A7A5

a79e: 01 FA FF       LD    BC,$FFFA
a7a1: DD 09          ADD   IX,BC
a7a3: 18 09          JR    $A7AE

a7a5: DD 21 C4 A9    LD    IX,$A9C4
a7a9: 18 03          JR    $A7AE

a7ab: DD 7E 00       LD    A,(IX+$00)
a7ae: DD 7E 00       LD    A,(IX+$00)
a7b1: FD 77 02       LD    (IY+$02),A
a7b4: AF             XOR   A,A
a7b5: 32 09 C0       LD    (MCP_TRON_Y_TANKS_DATA_VECTOR_x_2),A
a7b8: DB 00          IN    A,(IO_0)
a7ba: E6 04          AND   A,#$04
a7bc: 20 27          JR    NZ,$A7E5

a7be: DD 7E 00       LD    A,(IX+$00)
a7c1: FE A0          CP    A,#$A0
a7c3: C8             RET   Z

a7c4: DD 6E 02       LD    L,(IX+$02)
a7c7: DD 66 03       LD    H,(IX+$03)
a7ca: 7E             LD    A,(HL)
a7cb: FE 09          CP    A,#$09
a7cd: 30 03          JR    NC,$A7D2

a7cf: 34             INC   (HL)
a7d0: 18 4B          JR    $A81D

a7d2: DD 7E 01       LD    A,(IX+$01)
a7d5: FE 01          CP    A,#$01
a7d7: 28 0C          JR    Z,$A7E5

a7d9: 2B             DEC   HL
a7da: 7E             LD    A,(HL)
a7db: FE 09          CP    A,#$09
a7dd: 28 06          JR    Z,$A7E5

a7df: 34             INC   (HL)
a7e0: 23             INC   HL
a7e1: 36 00          LD    (HL),#$00
a7e3: 18 38          JR    $A81D

a7e5: DB 00          IN    A,(IO_0)
a7e7: E6 08          AND   A,#$08
a7e9: 28 06          JR    Z,$A7F1

a7eb: AF             XOR   A,A
a7ec: 32 09 C0       LD    (MCP_TRON_Y_TANKS_DATA_VECTOR_x_2),A
a7ef: 18 3A          JR    $A82B

a7f1: DD 7E 00       LD    A,(IX+$00)
a7f4: FE A0          CP    A,#$A0
a7f6: C8             RET   Z

a7f7: DD 6E 02       LD    L,(IX+$02)
a7fa: DD 66 03       LD    H,(IX+$03)
a7fd: 7E             LD    A,(HL)
a7fe: FE 02          CP    A,#$02
a800: 38 03          JR    C,$A805

a802: 35             DEC   (HL)
a803: 18 18          JR    $A81D

a805: DD 7E 01       LD    A,(IX+$01)
a808: FE 01          CP    A,#$01
a80a: 28 1F          JR    Z,$A82B

a80c: 7E             LD    A,(HL)
a80d: B7             OR    A,A
a80e: 20 06          JR    NZ,$A816

a810: 36 09          LD    (HL),#$09
a812: 2B             DEC   HL
a813: 35             DEC   (HL)
a814: 18 07          JR    $A81D

a816: 2B             DEC   HL
a817: 7E             LD    A,(HL)
a818: B7             OR    A,A
a819: 28 10          JR    Z,$A82B

a81b: 23             INC   HL
a81c: 35             DEC   (HL)
a81d: CD 3E A8       CALL  $A83E
a820: 3A 09 C0       LD    A,(MCP_TRON_Y_TANKS_DATA_VECTOR_x_2)
a823: FE 04          CP    A,#$04
a825: 30 04          JR    NC,$A82B

a827: 3C             INC   A
a828: 32 09 C0       LD    (MCP_TRON_Y_TANKS_DATA_VECTOR_x_2),A
a82b: 3A 09 C0       LD    A,(MCP_TRON_Y_TANKS_DATA_VECTOR_x_2)
a82e: 06 06          LD    B,#$06
a830: FE 03          CP    A,#$03
a832: 38 02          JR    C,$A836

a834: 06 01          LD    B,#$01
a836: CD 17 6F       CALL  RESET_WATCHDOG_UNTIL_C400_IS_ONE
a839: 10 FB          DJNZ  $A836

a83b: C3 73 A7       JP    $A773

a83e: DD 46 01       LD    B,(IX+$01)
a841: 21 1D C0       LD    HL,$C01D
a844: DD 5E 02       LD    E,(IX+$02)
a847: DD 56 03       LD    D,(IX+$03)
a84a: 78             LD    A,B
a84b: 3D             DEC   A
a84c: 28 01          JR    Z,$A84F

a84e: 1B             DEC   DE
a84f: 1A             LD    A,(DE)
a850: B7             OR    A,A
a851: 20 08          JR    NZ,$A85B

a853: 78             LD    A,B
a854: 3D             DEC   A
a855: 28 04          JR    Z,$A85B

a857: 3E 20          LD    A,#$20
a859: 18 02          JR    $A85D

a85b: C6 30          ADD   A,#$30
a85d: 77             LD    (HL),A
a85e: 23             INC   HL
a85f: 13             INC   DE
a860: 10 ED          DJNZ  $A84F

a862: 36 00          LD    (HL),#$00
a864: 11 1D C0       LD    DE,$C01D
a867: DD 4E 04       LD    C,(IX+$04)
a86a: DD 46 05       LD    B,(IX+$05)
a86d: CD FF 6F       CALL  ADD_A_MESSAGE_TO_Q
a870: C3 17 6F       JP    RESET_WATCHDOG_UNTIL_C400_IS_ONE

a873: 42 FC BD A8 46 FE CB A8 88 FC D8 A8 8A FC E2 A8 
a883: 4E FE EA A8 90 FC D8 A8 92 FC E2 A8 96 FD F7 A8 
a893: 98 FC 03 A9 5C FE 09 A9 DE FC 1B A9 E4 FD 83 A9 
a8a3: 68 FE 26 A9 74 FE 2B A9 76 FE 3F A9 78 FE 57 A9 
a8b3: 7A FE 6A A9 7C FE 7B A9 00 00 

SETUP_OPTIONS_S:
a8bd: SETUP OPTIONS

COIN_CHUTE_12_S:
a8cb: COIN CHUTE 1

COINS_FOR_S:
a8d8: COINS FOR

CREDITS2_S:
a8e2: CREDITS

COIN_CHUTE_22_S:
a8ea: COIN CHUTE 2

CREDITS_FOR_S:
a8f7: CREDITS FOR

BASES_S:
a903: BASES

1ST_EXTRA_BASE_AT_S:
a909: 1ST EXTRA BASE AT

000_POINTS_S:
a91b: 000 POINTS

EXIT2_S:
a926: EXIT

USE_JOYSTICK_UP_AND_S:
a92b: USE JOYSTICK UP AND

DOWN_TO_POSITION_CURSOR_S:
a93f: DOWN TO POSITION CURSOR

USE_1_AND_2_PLAYER_S:
a957: USE 1 AND 2 PLAYER

BUTTONS_TO_ALTER_S:
a96a: BUTTONS TO ALTER

OPTIONS_S:
a97b: OPTIONS

DIFFICULTY_LEVEL_S:
a983: DIFFICULTY LEVEL


*** Data for ?
a994: 20 01 F0 C4 48 FD 28 01 F1 C4 4A FD 40 01 F2 C4 
a9a4: 50 FD 48 01 F3 C4 52 FD 58 01 F5 C4 56 FE 60 01 
a9b4: F4 C4 58 FD 78 02 FE C4 5E FD 90 01 F6 C4 64 FE 
a9c4: A0 64 24 62 04 04 21 CB 87 95 05 81 45 44 04 97 
a9d4: 8A 05 35 24 D4 55 A0 95 64 44 84 26 24 24 88 14 
a9e4: 45 8C 76 05 DF 45 8F 42 84 85 20 34 27 CD 0E 04 
a9f4: 8C 16 0A BC C5 25 35 F4 25 04 44 05 

aa00: F3             DI    
aa01: CD E6 AA       CALL  $AAE6
aa04: F5             PUSH  AF
aa05: 21 7A C4       LD    HL,PSEUDO_RANDOM_VALUE_LAST_GENERATED
aa08: CD 29 70       CALL  ZERO_RAM_C000-C479
aa0b: 21 D8 C4       LD    HL,SCREEN_MESSAGE_QUEUE
aa0e: 22 D6 C4       LD    (SCREEN_MESSAGE_QUEUE_TO_CD60?),HL
aa11: 21 82 C4       LD    HL,$C482
aa14: 22 80 C4       LD    ($C480),HL
aa17: 21 90 C4       LD    HL,$C490
aa1a: 22 8E C4       LD    (ONLY_GET_UPDATED_WHEN_INTERRUPTS_ARE_DISABLED3!),HL
aa1d: 21 BE C4       LD    HL,SCREEN_MESSAGE_QUEUE_2_TO_C4D5
aa20: 22 BC C4       LD    ($C4BC),HL
aa23: F1             POP   AF
aa24: FB             EI    
aa25: 28 20          JR    Z,$AA47

aa27: 21 E4 FD       LD    HL,$FDE4
aa2a: 01 B2 AA       LD    BC,HIT_FIRE_BUTTON_S
aa2d: CD 70 AD       CALL  PRINT_A_NULL_TERMINATED_ASCII_STRING_FROM_BC_TO_HL
aa30: 21 E8 FD       LD    HL,$FDE8
aa33: 01 C2 AA       LD    BC,TO_CONTINUE_S
aa36: CD 70 AD       CALL  PRINT_A_NULL_TERMINATED_ASCII_STRING_FROM_BC_TO_HL
aa39: CD 8C 99       CALL  GET_TRIGGER_INPUT_FOR_SERVICE_MENU
aa3c: 20 09          JR    NZ,$AA47

aa3e: DB 00          IN    A,(IO_0)
aa40: E6 80          AND   A,#$80
aa42: C0             RET   NZ

aa43: D3 E0          OUT   (IO_WATCHDOG_RESET),A
aa45: 18 F2          JR    $AA39

aa47: CD 39 AB       CALL  $AB39
aa4a: CD C7 6F       CALL  CLEAR_BACKGROUND
aa4d: CD A3 AD       CALL  $ADA3
aa50: F5             PUSH  AF
aa51: 0E 02          LD    C,#$02
aa53: CD B8 6F       CALL  PUT_C_ON_STACK_TO_SEND_TO_AUDIO
aa56: CD 17 6F       CALL  RESET_WATCHDOG_UNTIL_C400_IS_ONE
aa59: 0E 02          LD    C,#$02
aa5b: CD B8 6F       CALL  PUT_C_ON_STACK_TO_SEND_TO_AUDIO
aa5e: CD 17 6F       CALL  RESET_WATCHDOG_UNTIL_C400_IS_ONE
aa61: F1             POP   AF
aa62: 28 20          JR    Z,$AA84

aa64: 21 E4 FD       LD    HL,$FDE4
aa67: 01 B2 AA       LD    BC,HIT_FIRE_BUTTON_S
aa6a: CD 70 AD       CALL  PRINT_A_NULL_TERMINATED_ASCII_STRING_FROM_BC_TO_HL
aa6d: 21 E8 FD       LD    HL,$FDE8
aa70: 01 C2 AA       LD    BC,TO_CONTINUE_S
aa73: CD 70 AD       CALL  PRINT_A_NULL_TERMINATED_ASCII_STRING_FROM_BC_TO_HL
aa76: CD 8C 99       CALL  GET_TRIGGER_INPUT_FOR_SERVICE_MENU
aa79: 20 09          JR    NZ,$AA84

aa7b: DB 00          IN    A,(IO_0)
aa7d: E6 80          AND   A,#$80
aa7f: C0             RET   NZ

aa80: D3 E0          OUT   (IO_WATCHDOG_RESET),A
aa82: 18 F2          JR    $AA76

aa84: CD C7 6F       CALL  CLEAR_BACKGROUND
aa87: 21 CC FD       LD    HL,$FDCC
aa8a: 01 CE AA       LD    BC,HIT_FIRE_BUTTON2_S
aa8d: CD 70 AD       CALL  PRINT_A_NULL_TERMINATED_ASCII_STRING_FROM_BC_TO_HL
aa90: 21 D0 FD       LD    HL,$FDD0
aa93: 01 DE AA       LD    BC,TO_EXIT_S
aa96: CD 70 AD       CALL  PRINT_A_NULL_TERMINATED_ASCII_STRING_FROM_BC_TO_HL
aa99: 11 FF FF       LD    DE,$FFFF
aa9c: CD 8C 99       CALL  GET_TRIGGER_INPUT_FOR_SERVICE_MENU
aa9f: C0             RET   NZ

aaa0: DB 00          IN    A,(IO_0)
aaa2: E6 80          AND   A,#$80
aaa4: C0             RET   NZ

aaa5: D3 E0          OUT   (IO_WATCHDOG_RESET),A
aaa7: 1B             DEC   DE
aaa8: 7A             LD    A,D
aaa9: B3             OR    A,E
aaaa: 20 F0          JR    NZ,$AA9C

aaac: CD C7 6F       CALL  CLEAR_BACKGROUND
aaaf: C3 00 AA       JP    $AA00

HIT_FIRE_BUTTON_S:
aab2: HIT FIRE BUTTON

TO_CONTINUE_S:
aac2: TO CONTINUE

HIT_FIRE_BUTTON2_S:
aace: HIT FIRE BUTTON

TO_EXIT_S:
aade: TO EXIT

aae6: CD 49 70       CALL  INITIALIZE_SPRITES
aae9: CD 49 70       CALL  INITIALIZE_SPRITES
aaec: DD 21 70 AC    LD    IX,DATA_USED_TO_TEST_RAM
aaf0: CD C3 AB       CALL  $ABC3
aaf3: F5             PUSH  AF
aaf4: 21 C0 90       LD    HL,COLOR_PALETTE_FOR_5?
aaf7: CD 35 6F       CALL  COPY_20_FROM_HL_TO_FF80
aafa: 21 AB 01       LD    HL,COLOR_PALETTE_FOR_6_10_BYTES_TO_01BA?
aafd: CD 2D 6F       CALL  COPY_10_FROM_HL_TO_FFC0
ab00: CD B1 AB       CALL  $ABB1
ab03: F1             POP   AF
ab04: B7             OR    A,A
ab05: 28 0D          JR    Z,$AB14

ab07: DD 21 1D AB    LD    IX,DATA_USED_TO_DISPLAY_RAM_ERROR(S)
ab0b: CD A2 AC       CALL  Print ROM error(s)
ab0e: CD D6 AC       CALL  $ACD6
ab11: F6 01          OR    A,#$01
ab13: C9             RET   

ab14: CD D6 AC       CALL  $ACD6
ab17: C0             RET   NZ

ab18: CD 7C AE       CALL  DRAW_WHITE_AND_BLACK_CROSSHATCH_PATTERN
ab1b: AF             XOR   A,A
ab1c: C9             RET   


*** 10 bytes: 2x source for RAM ERROR, 2x destination, 2x destination?, 2x RAM@B2 2x RAM@F6
DATA_USED_TO_DISPLAY_RAM_ERROR(S):
ab1d: 27 AB CC FD D0 FD 31 AB 35 AB 

RAM_ERROR_S:
ab27: RAM ERROR

B2_S:
ab31: B2 

F6_S:
ab35: F6 

ab39: 1E 01          LD    E,#$01
ab3b: FD 21 80 FF    LD    IY,COLOR_RAM_TO_FFFF
ab3f: 21 00 F8       LD    HL,BACKGROUND_VIDEO_RAM_TO_FF7F
ab42: FD 22 0B C4    LD    (MCP_RAM_DATA_OF_BLOCK_HIT_BY_DISK),IY
ab46: 16 5D          LD    D,#$5D
ab48: 01 E0 01       LD    BC,$01E0
ab4b: 72             LD    (HL),D
ab4c: 23             INC   HL
ab4d: 73             LD    (HL),E
ab4e: 23             INC   HL
ab4f: 72             LD    (HL),D
ab50: 23             INC   HL
ab51: 73             LD    (HL),E
ab52: 23             INC   HL
ab53: 14             INC   D
ab54: 7A             LD    A,D
ab55: FE 6D          CP    A,#$6D
ab57: 20 02          JR    NZ,$AB5B

ab59: 16 5D          LD    D,#$5D
ab5b: 0B             DEC   BC
ab5c: 78             LD    A,B
ab5d: B1             OR    A,C
ab5e: 20 EB          JR    NZ,$AB4B

ab60: DD 21 A9 AB    LD    IX,$ABA9
ab64: 0E 04          LD    C,#$04
ab66: FD 2A 0B C4    LD    IY,(MCP_RAM_DATA_OF_BLOCK_HIT_BY_DISK)
ab6a: 06 10          LD    B,#$10
ab6c: DD 7E 00       LD    A,(IX+$00)
ab6f: B7             OR    A,A
ab70: DD 7E 01       LD    A,(IX+$01)
ab73: 20 05          JR    NZ,$AB7A

ab75: FD 77 00       LD    (IY+$00),A
ab78: 18 03          JR    $AB7D

ab7a: FD 77 01       LD    (IY+$01),A
ab7d: 21 00 10       LD    HL,$1000
ab80: 2B             DEC   HL
ab81: D3 E0          OUT   (IO_WATCHDOG_RESET),A
ab83: 7C             LD    A,H
ab84: B5             OR    A,L
ab85: 20 F9          JR    NZ,$AB80

ab87: FD 23          INC   IY
ab89: FD 23          INC   IY
ab8b: 10 DF          DJNZ  $AB6C

ab8d: DD 23          INC   IX
ab8f: DD 23          INC   IX
ab91: 0D             DEC   C
ab92: 20 D2          JR    NZ,$AB66

ab94: 7B             LD    A,E
ab95: C6 08          ADD   A,#$08
ab97: 5F             LD    E,A
ab98: FE 21          CP    A,#$21
ab9a: C2 3F AB       JP    NZ,$AB3F

ab9d: 21 C0 90       LD    HL,COLOR_PALETTE_FOR_5?
aba0: CD 35 6F       CALL  COPY_20_FROM_HL_TO_FF80
aba3: 21 AB 01       LD    HL,COLOR_PALETTE_FOR_6_10_BYTES_TO_01BA?
aba6: C3 2D 6F       JP    COPY_10_FROM_HL_TO_FFC0

aba9: 00 00 01 C0 00 38 00 07 


*** Clear background (identical to code at 6fdc!)
abb1: 21 00 F8       LD    HL,BACKGROUND_VIDEO_RAM_TO_FF7F
abb4: 01 C0 03       LD    BC,$03C0
abb7: 36 5E          LD    (HL),#$5E
abb9: 23             INC   HL
abba: 36 51          LD    (HL),#$51
abbc: 23             INC   HL
abbd: 0B             DEC   BC
abbe: 78             LD    A,B
abbf: B1             OR    A,C
abc0: 20 F5          JR    NZ,$ABB7

abc2: C9             RET   


*** Test RAM at C000, C200, C400, C600 (0x0200 each),F800,FC00 ((0x0400 each)
abc3: AF             XOR   A,A
abc4: F5             PUSH  AF
abc5: DD 6E 00       LD    L,(IX+$00)
abc8: DD 66 01       LD    H,(IX+$01)
abcb: 7C             LD    A,H
abcc: B5             OR    A,L
abcd: 20 02          JR    NZ,$ABD1

abcf: F1             POP   AF
abd0: C9             RET   


*** Copy RAM from IX+0 sized IX+2 to IX+4
abd1: DD 5E 04       LD    E,(IX+$04)
abd4: DD 56 05       LD    D,(IX+$05)
abd7: DD 4E 02       LD    C,(IX+$02)
abda: DD 46 03       LD    B,(IX+$03)
abdd: ED B0          LDIR  
abdf: DD 7E 07       LD    A,(IX+$07)
abe2: 32 FF C7       LD    ($C7FF),A
abe5: D3 E0          OUT   (IO_WATCHDOG_RESET),A
abe7: DD 6E 00       LD    L,(IX+$00)
abea: DD 66 01       LD    H,(IX+$01)
abed: DD 5E 02       LD    E,(IX+$02)
abf0: DD 56 03       LD    D,(IX+$03)
abf3: 7A             LD    A,D
abf4: B3             OR    A,E
abf5: 28 11          JR    Z,$AC08


*** Test RAM from IX+0 sized IX+2 to IX+4 with 00 and FF
abf7: 06 02          LD    B,#$02
abf9: 3E 00          LD    A,#$00
abfb: 77             LD    (HL),A
abfc: BE             CP    A,(HL)
abfd: C2 6B AC       JP    NZ,$AC6B

ac00: F6 FF          OR    A,#$FF
ac02: 10 F7          DJNZ  $ABFB

ac04: 23             INC   HL
ac05: 1B             DEC   DE
ac06: 18 EB          JR    $ABF3

ac08: DD 66 01       LD    H,(IX+$01)
ac0b: DD 6E 00       LD    L,(IX+$00)
ac0e: DD 5E 02       LD    E,(IX+$02)
ac11: DD 56 03       LD    D,(IX+$03)
ac14: D3 E0          OUT   (IO_WATCHDOG_RESET),A

*** Zero RAM from IX+0 to (IX+2)-1
ac16: 7A             LD    A,D
ac17: B3             OR    A,E
ac18: 28 06          JR    Z,$AC20

ac1a: 36 00          LD    (HL),#$00
ac1c: 23             INC   HL
ac1d: 1B             DEC   DE
ac1e: 18 F6          JR    $AC16

ac20: DD 6E 00       LD    L,(IX+$00)
ac23: DD 66 01       LD    H,(IX+$01)
ac26: DD 5E 02       LD    E,(IX+$02)
ac29: DD 56 03       LD    D,(IX+$03)
ac2c: 7A             LD    A,D
ac2d: B3             OR    A,E
ac2e: 28 15          JR    Z,$AC45

ac30: 7E             LD    A,(HL)
ac31: FE 00          CP    A,#$00
ac33: C2 6B AC       JP    NZ,$AC6B

ac36: 3E 01          LD    A,#$01

*** Walking 1s from IX+0 to (IX+2)-1
ac38: 77             LD    (HL),A
ac39: BE             CP    A,(HL)
ac3a: C2 6B AC       JP    NZ,$AC6B

ac3d: CB 27          SLA   A
ac3f: 30 F7          JR    NC,$AC38

ac41: 23             INC   HL
ac42: 1B             DEC   DE
ac43: 18 E7          JR    $AC2C

ac45: AF             XOR   A,A

*** Copy back RAM from IX+4 sized IX+2 to IX+0
ac46: DD 66 05       LD    H,(IX+$05)
ac49: DD 6E 04       LD    L,(IX+$04)
ac4c: DD 56 01       LD    D,(IX+$01)
ac4f: DD 5E 00       LD    E,(IX+$00)
ac52: DD 4E 02       LD    C,(IX+$02)
ac55: DD 46 03       LD    B,(IX+$03)
ac58: D3 E0          OUT   (IO_WATCHDOG_RESET),A
ac5a: ED B0          LDIR  
ac5c: 47             LD    B,A
ac5d: AF             XOR   A,A
ac5e: 32 FF C7       LD    ($C7FF),A
ac61: F1             POP   AF
ac62: B0             OR    A,B
ac63: 11 08 00       LD    DE,$0008
ac66: DD 19          ADD   IX,DE
ac68: C3 C4 AB       JP    $ABC4

ac6b: DD 7E 06       LD    A,(IX+$06)
ac6e: 18 D6          JR    $AC46


*** 8 bytes: 2x source, 2x count, 2x destination, ? watchdog setting?
DATA_USED_TO_TEST_RAM:
ac70: 00 C0 00 02 00 C2 01 01 00 C2 00 02 00 C0 01 02 
ac80: 00 C4 00 02 00 C2 01 03 00 C6 FF 01 00 C0 01 04 
ac90: 00 F8 00 04 00 C0 20 05 00 FC 00 04 00 C0 20 05 
aca0: 00 00 

Print ROM error(s):
aca2: F5             PUSH  AF
aca3: DD 6E 02       LD    L,(IX+$02)
aca6: DD 66 03       LD    H,(IX+$03)
aca9: DD 4E 00       LD    C,(IX+$00)
acac: DD 46 01       LD    B,(IX+$01)
acaf: CD 70 AD       CALL  PRINT_A_NULL_TERMINATED_ASCII_STRING_FROM_BC_TO_HL
acb2: F1             POP   AF
acb3: DD 6E 04       LD    L,(IX+$04)
acb6: DD 66 05       LD    H,(IX+$05)
acb9: 11 06 00       LD    DE,$0006
acbc: DD 19          ADD   IX,DE
acbe: CB 3F          SRL   A
acc0: 30 0B          JR    NC,$ACCD

acc2: DD 4E 00       LD    C,(IX+$00)
acc5: DD 46 01       LD    B,(IX+$01)
acc8: F5             PUSH  AF
acc9: CD 70 AD       CALL  PRINT_A_NULL_TERMINATED_ASCII_STRING_FROM_BC_TO_HL
accc: F1             POP   AF
accd: 11 02 00       LD    DE,$0002
acd0: DD 19          ADD   IX,DE
acd2: B7             OR    A,A
acd3: 20 E9          JR    NZ,$ACBE

acd5: C9             RET   

acd6: DD 21 15 AD    LD    IX,DATA_USED_TO_TEST_ROM
acda: 16 00          LD    D,#$00
acdc: DD 6E 02       LD    L,(IX+$02)
acdf: DD 66 03       LD    H,(IX+$03)
ace2: DD 4E 00       LD    C,(IX+$00)
ace5: DD 46 01       LD    B,(IX+$01)
ace8: 78             LD    A,B
ace9: B1             OR    A,C
acea: 28 1C          JR    Z,$AD08

acec: AF             XOR   A,A
aced: 86             ADD   A,(HL)
acee: 23             INC   HL
acef: 0D             DEC   C
acf0: 20 FB          JR    NZ,$ACED

acf2: 05             DEC   B
acf3: 20 F8          JR    NZ,$ACED

acf5: DD BE 04       CP    A,(IX+$04)
acf8: 28 05          JR    Z,$ACFF

acfa: 7A             LD    A,D
acfb: DD B6 05       OR    A,(IX+$05)
acfe: 57             LD    D,A
acff: 01 06 00       LD    BC,$0006
ad02: DD 09          ADD   IX,BC
ad04: D3 E0          OUT   (IO_WATCHDOG_RESET),A
ad06: 18 D4          JR    $ACDC

ad08: 7A             LD    A,D
ad09: B7             OR    A,A
ad0a: C8             RET   Z

ad0b: DD 21 3C AD    LD    IX,DATA_USED_TO_DISPLAY_ROM_ERROR(S)
ad0f: CD A2 AC       CALL  Print ROM error(s)
ad12: F6 01          OR    A,#$01
ad14: C9             RET   


*** 6x(6 bytes: 2x size, 2x location, checksum, (bit mapped) location), 2x 00 to signal end
DATA_USED_TO_TEST_ROM:
ad15: 00 20 00 00 78 01 
                                          ;this used or is it just an unused byte between data tables?  Or the checksum byte for this ROM?

ad1b: 00 20 00 20 DC 02 

ad21: 00 20 00 40 DD 04 

ad27: 00 20 00 60 19 08 

ad2d: 00 20 00 80 51 10 

ad33: 00 20 00 A0 07 20 

ad39: 00 00 

ad3b: F9 

DATA_USED_TO_DISPLAY_ROM_ERROR(S):
ad3c: 4E AD D4 FD D8 FC 58 AD 5C AD 60 AD 64 AD 68 AD 
ad4c: 6C AD 

ROM_ERROR_S:
ad4e: ROM ERROR

D2_S:
ad58: D2 

D3_S:
ad5c: D3 

D4_S:
ad60: D4 

D5_S:
ad64: D5 

D6_S:
ad68: D6 

D7_S:
ad6c: D7 

PRINT_A_NULL_TERMINATED_ASCII_STRING_FROM_BC_TO_HL:
ad70: 0A             LD    A,(BC)
ad71: B7             OR    A,A
ad72: C8             RET   Z

ad73: FE 20          CP    A,#$20
ad75: 20 07          JR    NZ,$AD7E

ad77: 36 5E          LD    (HL),#$5E
ad79: 23             INC   HL
ad7a: 36 51          LD    (HL),#$51
ad7c: 18 04          JR    $AD82

ad7e: 77             LD    (HL),A
ad7f: 23             INC   HL
ad80: 36 50          LD    (HL),#$50
ad82: 11 BF FF       LD    DE,$FFBF
ad85: 19             ADD   HL,DE
ad86: 03             INC   BC
ad87: 18 E7          JR    PRINT_A_NULL_TERMINATED_ASCII_STRING_FROM_BC_TO_HL

ad89: CD 49 70       CALL  INITIALIZE_SPRITES
ad8c: CD 7C AE       CALL  DRAW_WHITE_AND_BLACK_CROSSHATCH_PATTERN
ad8f: CD 17 6F       CALL  RESET_WATCHDOG_UNTIL_C400_IS_ONE
ad92: DB 00          IN    A,(IO_0)
ad94: E6 80          AND   A,#$80
ad96: 20 05          JR    NZ,$AD9D

ad98: CD 8C 99       CALL  GET_TRIGGER_INPUT_FOR_SERVICE_MENU
ad9b: 28 F2          JR    Z,$AD8F

ad9d: 21 C0 90       LD    HL,COLOR_PALETTE_FOR_5?
ada0: C3 35 6F       JP    COPY_20_FROM_HL_TO_FF80

ada3: 0E 02          LD    C,#$02
ada5: CD B8 6F       CALL  PUT_C_ON_STACK_TO_SEND_TO_AUDIO
ada8: CD 17 6F       CALL  RESET_WATCHDOG_UNTIL_C400_IS_ONE
adab: CD 17 6F       CALL  RESET_WATCHDOG_UNTIL_C400_IS_ONE
adae: CD C7 6F       CALL  CLEAR_BACKGROUND
adb1: CD 49 70       CALL  INITIALIZE_SPRITES
adb4: 0E 02          LD    C,#$02
adb6: CD B8 6F       CALL  PUT_C_ON_STACK_TO_SEND_TO_AUDIO
adb9: 0E 06          LD    C,#$06
adbb: CD B8 6F       CALL  PUT_C_ON_STACK_TO_SEND_TO_AUDIO
adbe: CD 17 6F       CALL  RESET_WATCHDOG_UNTIL_C400_IS_ONE
adc1: DD 21 2A AE    LD    IX,$AE2A
adc5: 01 00 04       LD    BC,$0400
adc8: CD 17 6F       CALL  RESET_WATCHDOG_UNTIL_C400_IS_ONE
adcb: C5             PUSH  BC
adcc: 0E 1F          LD    C,#$1F
adce: DD 7E 00       LD    A,(IX+$00)
add1: 06 04          LD    B,#$04
add3: ED 79          OUT   (C),A
add5: 0D             DEC   C
add6: 10 FB          DJNZ  $ADD3

add8: CD 17 6F       CALL  RESET_WATCHDOG_UNTIL_C400_IS_ONE
addb: CD 17 6F       CALL  RESET_WATCHDOG_UNTIL_C400_IS_ONE
adde: DB 07          IN    A,(IO_AUDIO_STATUS)
ade0: C1             POP   BC
ade1: DD BE 00       CP    A,(IX+$00)
ade4: 28 01          JR    Z,$ADE7

ade6: 0C             INC   C
ade7: DD 23          INC   IX
ade9: 10 E0          DJNZ  $ADCB

adeb: 79             LD    A,C
adec: B7             OR    A,A
aded: 28 05          JR    Z,$ADF4

adef: 01 2E AE       LD    BC,INTERFACE_ERROR_S
adf2: 18 10          JR    $AE04

adf4: 06 64          LD    B,#$64
adf6: DB 07          IN    A,(IO_AUDIO_STATUS)
adf8: E6 80          AND   A,#$80
adfa: 28 19          JR    Z,$AE15

adfc: CD 17 6F       CALL  RESET_WATCHDOG_UNTIL_C400_IS_ONE
adff: 10 F5          DJNZ  $ADF6

ae01: 01 3E AE       LD    BC,BOARD_TIMEOUT_S
ae04: 21 EC FD       LD    HL,$FDEC
ae07: CD 70 AD       CALL  PRINT_A_NULL_TERMINATED_ASCII_STRING_FROM_BC_TO_HL
ae0a: 21 EA FD       LD    HL,$FDEA
ae0d: 01 4C AE       LD    BC,SOUND_BOARD_S
ae10: CD 70 AD       CALL  PRINT_A_NULL_TERMINATED_ASCII_STRING_FROM_BC_TO_HL
ae13: 18 0B          JR    $AE20

ae15: DB 07          IN    A,(IO_AUDIO_STATUS)
ae17: B7             OR    A,A
ae18: C8             RET   Z

ae19: DD 21 58 AE    LD    IX,$AE58
ae1d: CD A2 AC       CALL  Print ROM error(s)
ae20: 06 60          LD    B,#$60
ae22: CD 17 6F       CALL  RESET_WATCHDOG_UNTIL_C400_IS_ONE
ae25: 10 FB          DJNZ  $AE22

ae27: F6 01          OR    A,#$01
ae29: C9             RET   

ae2a: 00 FF 55 AA 

INTERFACE_ERROR_S:
ae2e: INTERFACE ERROR

BOARD_TIMEOUT_S:
ae3e: BOARD TIMEOUT

SOUND_BOARD_S:
ae4c: SOUND BOARD


*** 2x SOUND BOARD, 2x destination, 2x destination of ROM(s), 5x2 bytes: source of sound board devices
ae58: 4C AE EA FD EC FD 68 AE 6C AE 70 AE 74 AE 79 AE 

A7_S:
ae68: A7 

A8_S:
ae6c: A8 

A9_S:
ae70: A9 

A10_S:
ae74: A10 

A6_S:
ae79: A6

DRAW_WHITE_AND_BLACK_CROSSHATCH_PATTERN:
ae7c: AF             XOR   A,A
ae7d: 32 9A FF       LD    ($FF9A),A
ae80: 3D             DEC   A
ae81: 32 9F FF       LD    ($FF9F),A
ae84: 11 00 F8       LD    DE,BACKGROUND_VIDEO_RAM_TO_FF7F
ae87: 3E 0F          LD    A,#$0F
ae89: 21 95 AE       LD    HL,DATA_TO_DRAW_WHITE_AND_BLACK_CROSSHATCH_PATTERN
ae8c: 01 80 00       LD    BC,$0080
ae8f: ED B0          LDIR  
ae91: 3D             DEC   A
ae92: 20 F5          JR    NZ,$AE89

ae94: C9             RET   

DATA_TO_DRAW_WHITE_AND_BLACK_CROSSHATCH_PATTERN:
ae95: BB 40 BD 40 BB 40 BD 40 BB 40 BD 40 BB 40 BD 40 
aea5: BB 40 BD 40 BB 40 BD 40 BB 40 BD 40 BB 40 BD 40 
aeb5: BB 40 BD 40 BB 40 BD 40 BB 40 BD 40 BB 40 BD 40 
aec5: BB 40 BD 40 BB 40 BD 40 BB 40 BD 40 BB 40 BD 40 
aed5: BE 40 BC 40 BE 40 BC 40 BE 40 BC 40 BE 40 BC 40 
aee5: BE 40 BC 40 BE 40 BC 40 BE 40 BC 40 BE 40 BC 40 
aef5: BE 40 BC 40 BE 40 BC 40 BE 40 BC 40 BE 40 BC 40 
af05: BE 40 BC 40 BE 40 BC 40 BE 40 BC 40 BE 40 BC 40 

af15: 3A FF C7       LD    A,($C7FF)
af18: B7             OR    A,A
af19: C8             RET   Z

af1a: DD 21 70 AC    LD    IX,DATA_USED_TO_TEST_RAM
af1e: 11 08 00       LD    DE,$0008
af21: 47             LD    B,A
af22: DD 7E 07       LD    A,(IX+$07)
af25: B8             CP    A,B
af26: 28 0C          JR    Z,$AF34

af28: DD 19          ADD   IX,DE
af2a: DD 7E 00       LD    A,(IX+$00)
af2d: DD B6 01       OR    A,(IX+$01)
af30: 20 F0          JR    NZ,$AF22

af32: 18 17          JR    $AF4B

af34: DD 66 05       LD    H,(IX+$05)
af37: DD 6E 04       LD    L,(IX+$04)
af3a: DD 56 01       LD    D,(IX+$01)
af3d: DD 5E 00       LD    E,(IX+$00)
af40: DD 4E 02       LD    C,(IX+$02)
af43: DD 46 03       LD    B,(IX+$03)
af46: D3 E0          OUT   (IO_WATCHDOG_RESET),A
af48: ED B0          LDIR  
af4a: AF             XOR   A,A
af4b: 32 FF C7       LD    ($C7FF),A
af4e: C9             RET   


*** It looks like data.  I want to figure out what it's for.
af4f: DF 3F EF A7 5C 7D 5D 4D 0F 3A EE 59 FD 7E 4F 5B 
af5f: 7B 0E 7F 5E 7F 4D 6D 5B FB BF 7F FA FE 75 9F 56 
af6f: 7F 5F 23 CF 6C 7F 21 CF 6F CF 6D ED 4D C8 DD C4 
af7f: 2E B6 9A 90 BE 05 20 A8 FC 80 10 81 C1 15 A0 90 
af8f: 99 90 25 3B F0 10 69 00 F0 C0 08 42 E4 58 B4 A9 
af9f: A0 17 19 91 B0 31 FC 8B E3 40 C1 E5 D1 92 E2 D2 
afaf: 80 93 80 F2 C1 3F B5 D0 17 C2 50 B0 C1 82 92 90 
afbf: A0 C2 80 A7 90 F2 A1 B4 82 C0 90 F3 C4 A6 30 05 
afcf: 81 A0 F2 A8 0B 90 91 21 E0 42 81 08 C3 06 66 E0 
afdf: C7 34 B0 D4 51 00 A2 20 95 E1 A1 C3 CA 04 32 89 
afef: 1A 80 A3 47 00 B2 D0 50 D9 23 E0 00 91 D0 20 26 

1ST_S:
b000: 1ST

2ND_S:
b004: 2ND

PLAYER_1_UP_S:
b008: PLAYER 1 UP

PLAYER_2_UP_S:
b014: PLAYER 2 UP

PLAYER_1_S:
b020: PLAYER 1

EMPTY2_S:
b029:    

HISCORE_S:
b02d: HISCORE

TO_START_GAME_S:
b035: TO START GAME

TO_CONTINUE_GAME_S:
b043: TO CONTINUE GAME

PUSH_1_PLAYER_S:
b054: PUSH 1 PLAYER

OR_DEPOSIT_S:
b062: OR DEPOSIT

INSERT_1_COIN_S:
b06d: INSERT 1 COIN

MORE_COINS_FOR_S:
b07b: MORE COINS FOR

MORE_COINS_S:
b08a: MORE COINS

CREDITS_PER_PLAYER_S:
b095:  CREDITS PER PLAYER

OR_PUSH_S:
b0a9: OR PUSH

2_PLAYERS_S:
b0b1: 2 PLAYERS

GAME_OVER_S:
b0bb: GAME OVER

EMPTY3_S:
b0c5:          

BONUS_BASES_AWARDED_S:
b0cf: BONUS BASES AWARDED

AT_10000_POINTS_S:
b0e3: AT 10000 POINTS

PRESS_FIRE_BUTTON_S:
b0f3: PRESS FIRE BUTTON

FOR_DIRECTIONS_S:
b105: FOR DIRECTIONS

PLAYER_12_S:
b114: PLAYER 1

PLAYER_2_S:
b11d: PLAYER 2

VECTOR_OF_USER_LEVEL_STRINGS:
b126: 3E B1 42 B1 48 B1 4E B1 56 B1 5D B1 61 B1 68 B1 
b136: 6E B1 77 B1 7A B1 7E B1 

RPG_S:
b13e: RPG

COBOL_S:
b142: COBOL

BASIC_S:
b148: BASIC

FORTRAN_S:
b14e: FORTRAN

SNOBOL_S:
b156: SNOBOL

PL1_S:
b15d: PL1

PASCAL_S:
b161: PASCAL

ALGOL_S:
b168: ALGOL

ASSEMBLY_S:
b16e: ASSEMBLY

OS_S:
b177: OS

JCL_S:
b17a: JCL

USER_S:
b17e: USER


*** It looks like data until the end of ROM space.  I want to figure out what it's for.
b183: 95 F6 3E FB 74 2E EC 1F 7D 95 14 7F 59 3F 0E EE 
b193: 4F E6 AF 8D FD 57 4F 19 7F A5 97 8F FD BE 15 F3 
b1a3: BB D7 56 A7 19 B5 4F 35 B8 A6 E3 9E 87 92 1E DF 
b1b3: 8F 27 2E F9 DA EE 66 91 73 B1 FD D9 BE 1C C4 A8 
b1c3: D8 42 40 69 C3 34 27 90 15 40 00 50 79 D9 0E DA 
b1d3: 94 96 A4 D7 E1 43 40 B9 30 FC D0 3A 1C 66 11 A9 
b1e3: 02 02 C6 01 B7 42 89 B3 81 14 E4 E2 20 50 22 15 
b1f3: A3 76 0E FA 98 80 52 04 59 06 C0 48 60 EE 6F CF 
b203: 4E DA 77 6E EA C7 03 FF 94 4F 0B FA DF BB 8E EF 
b213: 33 6E 6B 25 EB 7A 4B 3E BE E3 3D 7F FE EE AF 3E 
b223: 7F 8F BB 7F F3 BE D9 AF CD AE 46 5E AE 3F B1 B9 
b233: 6B 8E BF BE F6 8F 83 BD 49 FA FF CC BA 05 26 9A 
b243: 3C 25 54 E4 33 32 D0 01 50 64 11 3E 34 C0 14 1E 
b253: 42 14 40 6B EC 55 3B F3 6E 00 14 3D A5 29 80 74 
b263: 3E 09 B2 80 39 A4 0B 1B A3 75 C7 85 05 50 83 72 
b273: 05 54 40 A0 1C CC 24 B8 AC 2A 80 F6 B1 24 F5 FC 
b283: 3D A7 7F DD 2F 7E EF 6E 4F 96 B3 DB DD F6 E0 9C 
b293: 3D 6C D6 B6 F9 69 FD FB 88 D7 D1 8D 17 F7 A9 1B 
b2a3: E6 67 E3 5A 6E A8 BB 7C AD E6 FF EB 7E F8 ED FE 
b2b3: 2E 0F 6C 0E 67 CF 67 0A BB CE 9A DE CC 04 58 32 
b2c3: 52 95 82 64 A0 00 10 46 A0 71 40 00 00 44 00 C5 
b2d3: 32 13 31 48 54 04 36 94 34 45 90 80 E1 00 D1 33 
b2e3: FD 30 14 58 86 10 12 77 84 60 08 47 A4 21 D1 11 
b2f3: A1 71 13 56 12 C0 21 20 40 21 50 41 3A B8 BD CE 
b303: 5F 6F F8 2E DE FD F7 EE 4F BF 2E AA 98 EE A7 FA 
b313: AE 5F B6 AF BF 73 F7 C6 1F EF E8 3B BE 3E CC 7C 
b323: F9 CB 9E 69 0F D3 0F BD 7F FB 6B BF 2C 7D E2 FE 
b333: DE 3A DE EF 9D EF BF BF 2F E3 D3 8F FF 24 56 2C 
b343: 39 65 70 F6 10 00 05 1E 07 1E 24 18 30 11 94 90 
b353: 2D 6D 91 59 B0 1D 48 13 13 CB 05 D2 13 C1 81 99 
b363: 03 1B D0 23 84 04 A5 A7 9D 45 D3 2B 15 53 D0 34 
b373: 9D D4 24 23 E1 D7 50 15 30 0A 1A B5 8D 75 D9 DF 
b383: FE BC 0C 96 AB F5 19 F8 5F 59 D2 EB 2C 3A F7 4F 
b393: CE F3 47 7D 99 6E 7B AD AD E3 C0 FE 4A 5F DB F8 
b3a3: AD DF 76 A8 DB CA 8F 6E 9E F1 FB 4D AF 7C DA BB 
b3b3: 8F 6D EF ED BD FA B4 1B 9B FE E9 6E F5 81 44 B3 
b3c3: 14 12 51 2A 01 91 C0 C3 9E 90 48 84 24 04 44 28 
b3d3: 75 01 59 93 91 40 02 3F B5 08 51 00 35 60 44 52 
b3e3: 60 46 1A 04 39 54 91 89 4A 44 21 DA 00 C7 42 29 
b3f3: 20 56 E3 A0 02 11 22 92 26 14 00 A1 34 67 CD FF 
b403: F8 9D BD 6F FC FE A6 1F 57 25 FB E7 41 F5 7F C0 
b413: A9 67 17 19 DF AD 16 3B 9A F7 3F 2B DE 5F D7 7B 
b423: B2 7E 6C 59 ED 16 C7 4F 91 BC 7E FB BA 2F 02 E9 
b433: 13 7F 77 FB CB 52 19 F8 DA 4F 97 39 CA 0E D2 34 
b443: B0 92 EF 49 49 36 01 B1 80 02 68 70 E1 CC 24 48 
b453: 83 04 37 B1 81 03 06 A8 0A C2 2A 32 FA 86 77 7D 
b463: AA A0 1E 10 24 22 81 48 4A 73 CA C0 B2 66 84 A1 
b473: 08 76 E2 A6 D3 4C D0 E1 0A 03 DE 85 8A D7 FE 19 
b483: DF DD 77 14 BB F7 6E 79 B5 E6 FA 19 F9 6A 8F B9 
b493: C8 E7 BF 72 95 E7 8B 5D 99 F6 3F CF 7C 8F F7 01 
b4a3: D6 DC C5 9E 8B D7 37 FD F3 14 17 ED DA 6F 3C 43 
b4b3: DB 5E A5 8F BF FF FF FF EE 77 43 BB EF 00 B2 B1 
b4c3: C0 42 07 A8 D8 27 46 08 08 54 67 D4 82 76 82 B0 
b4d3: 04 E2 10 B4 22 23 A2 D0 71 E0 74 0D 20 32 82 51 
b4e3: A5 AC 80 88 A8 23 46 A8 23 22 4C 91 52 68 04 D8 
b4f3: C0 2A 60 01 80 E4 E4 69 09 1E A4 13 6A DC 7E EF 
b503: FF 5A E6 3D 96 D2 7E D7 89 1B E7 D5 FC 17 3A 93 
b513: DE 9D D5 FC D1 4F A6 AD E1 5D BF EB B8 46 CE 8B 
b523: E4 17 36 91 90 3B B9 1B 1D FF 2A FD 89 F6 ED 46 
b533: D9 2F BE BC FD 5F E7 B1 BF AF B6 D8 CE 29 54 2D 
b543: 51 80 34 9D A0 60 78 4C 96 F8 08 01 03 26 A4 12 
b553: C8 EE 76 01 68 61 E8 E2 2A 27 46 90 71 0E 42 43 
b563: 61 A0 62 10 21 B5 43 23 91 A5 2F 92 3B 56 66 A1 
b573: 66 2B E0 CA 08 77 9A 02 80 A7 62 92 DB 3E FE 7F 
b583: BF 07 60 25 9A CC ED BF 28 77 E8 3B CB 6C 0C DF 
b593: DF E7 DE DB B9 FC 45 E3 CB B6 45 53 DF 74 F3 C1 
b5a3: 6F BF BF 9E 8D 95 2B FC 71 10 1B 3F 1F FE 5D CB 
b5b3: AF 77 63 D8 8F FF F5 F8 2F 43 7F 83 5D 71 20 22 
b5c3: 11 62 50 29 80 D8 12 EC 72 84 9A 60 20 A4 BA 11 
b5d3: 20 64 02 6E 28 82 C5 AB C0 69 42 14 87 40 64 91 
b5e3: A1 61 85 93 A4 42 24 2A 30 12 01 89 11 04 D4 81 
b5f3: 60 DC 21 00 30 51 50 A5 F2 15 3C A2 A8 F3 95 2F 
b603: EF ED 67 1E E2 6F FD AE 3D 45 DE DD FF CF 5F FE 
b613: BC FE F6 AD 9B 7F 6A F9 AD EE 7F AD B2 B6 FA FE 
b623: EF DF 6B 9D 5E DF 7F CB A6 FF 33 EC 9E EE FF E7 
b633: FE FE 55 FE B6 D2 61 AA FA CA E7 FA 7F 8D 08 C0 
b643: 50 42 03 88 4A 43 0B 0C B0 26 BB 90 14 11 41 62 
b653: AD 61 40 83 76 05 00 00 FD 04 02 D7 64 30 10 0E 
b663: 6A A8 C4 03 99 38 7B 33 81 62 98 91 D0 61 0D 98 
b673: D1 07 52 B3 BB 05 E1 2D 41 52 2E 2C DD C9 EB 2F 
b683: 9F 6E D7 3E 1E 4E FB AA AA E3 66 CD CC BA 1A 9D 
b693: BE A5 6F 9D 76 22 F9 FB 7F 84 EB 3F FB 76 DE 2C 
b6a3: ED EF DD DA 63 D7 5D 66 BF EA EF EF AD 6B E5 B7 
b6b3: D7 6F A4 E7 9F 8F EF 38 8F F7 E6 CE 9B A0 72 1F 
b6c3: B0 20 01 14 10 01 00 81 09 05 D1 E4 13 90 00 82 
b6d3: 92 50 D0 84 28 50 40 10 04 03 66 5A 13 00 41 02 
b6e3: B0 40 70 74 37 94 50 40 22 51 10 34 8D 01 E8 30 
b6f3: B2 29 00 08 61 60 00 21 10 A5 50 BB C2 2D D5 6B 
b703: BA EE AF BB 1F 9B C4 FB DF FB DB FF FF 54 5F BE 
b713: 9A E4 7A A9 FB DF 4F EE 7F 42 BE FD 9E EE EC 54 
b723: BF 2B BA D8 3F ED 0B BF 95 AF BB 8A AB 4F F7 6D 
b733: FE FB 0B 2F FE EA FB C3 BF CF AF FB FD C5 50 78 
b743: E8 70 40 B1 42 60 01 2E 8F 0C 38 30 B7 08 DB 5D 
b753: 2E 60 11 13 90 32 25 76 01 10 63 4C A5 E6 3C F3 
b763: 29 61 C6 B4 9A 90 D2 B8 33 90 11 A8 43 EA C3 10 
b773: 1A 87 72 E0 9D 20 51 4E 74 81 8A 2E 02 FF 5E FF 
b783: DF CA F2 7D F8 FB FD 2F 6F CA 8F EA 59 F3 D5 BC 
b793: FA A7 A9 EF A7 3C 9E 46 97 4F CA FA DF F0 3F 1E 
b7a3: EF 57 E8 AA AC FC BD AA 86 DB E3 EF 23 F5 EA 9F 
b7b3: 8C D8 85 BE 8D 5D DA 9D FE FE B6 D5 FD 10 28 B0 
b7c3: 30 90 40 00 95 14 36 00 07 04 08 02 21 70 44 30 
b7d3: 14 58 44 68 00 86 D0 D2 84 11 D0 11 10 51 10 F1 
b7e3: 34 08 34 25 43 41 00 18 44 D0 58 62 76 01 54 A2 
b7f3: C4 01 40 15 32 A3 42 31 DB 90 02 07 93 77 EF 43 
b803: 9B 7C D5 C1 FB 06 D7 D8 1D DD E1 97 81 1C 27 BF 
b813: 19 D7 FA F9 DF 2F 15 59 DF 2B 3D 9F 9F 6B 0B 7F 
b823: 7F 0D CC BE 3F FF 5E 43 FA FA B5 FC 7B BE EE DF 
b833: 13 6F 54 AD DD D4 A7 7F 1B 94 FD EF EF 2C 7A E0 
b843: 40 E0 9F 20 9B 4B C6 19 15 10 66 C8 2B 2B B2 10 
b853: 91 C0 43 0C 09 06 26 D8 B0 A4 60 25 A1 70 1B 12 
b863: 4F 49 8E 08 05 EE 30 E2 C2 E0 AF DC 92 CA 87 8E 
b873: 70 C5 E0 38 90 82 1A 28 22 7A 42 70 CB CC 1D 73 
b883: 6F 49 74 FB 1C 5E BA 9D D3 FC 60 F3 6D 67 C4 40 
b893: 5B 7F D4 FF 7B 5D 2E D9 B2 DE CE 9D C8 AD B7 EB 
b8a3: AB 9E BE 5F D9 ED 06 5B 39 3B DF FF 65 B4 4E 39 
b8b3: 9F 3E CF 2D FE 17 67 C9 95 15 B3 1B 61 AC 94 34 
b8c3: A1 EA 30 DB E9 02 D2 21 AB 03 90 B2 81 40 70 CC 
b8d3: A4 04 3E 22 20 10 72 62 B9 87 16 B0 E0 C2 41 DC 
b8e3: C1 44 22 81 7A 56 74 4E B1 27 50 58 04 67 42 DC 
b8f3: E4 98 D2 06 5A 04 31 16 42 60 56 B6 36 97 BE 9B 
b903: ED FF 24 93 3F B7 FD FF B7 CF 7D 5B 8D 1A 7E DF 
b913: 9A 33 3D 5F CF 48 76 CA C9 BE 36 DF B9 9E CC D1 
b923: BF 1C 96 EB 57 F6 97 FB DB 9E 24 1F FA 2E DE 99 
b933: F8 3C 9F CD C8 56 F4 9D 5B DE 56 09 9F 40 16 20 
b943: 71 D6 78 60 B9 06 24 41 03 00 24 67 C2 A4 D5 72 
b953: E0 75 73 A8 B9 5D F6 0D 63 C4 DA 9A 04 8B 86 E8 
b963: 41 84 52 00 4B E7 02 AA 30 A8 0A 75 60 66 7A 81 
b973: 01 96 00 71 45 76 03 AA 12 5D 82 05 50 C6 FE 7F 
b983: C5 7E DF D1 A6 6B 78 DF 7E 0F CE 8D 3E 35 56 7B 
b993: F3 BF E5 5C 98 2B 57 F9 A7 2F B0 AA DD EE 96 D7 
b9a3: D0 14 B4 7D 4D DF DE B9 8A BF 66 B5 CB 83 1E A5 
b9b3: 7F F7 8D ED 4B 0D EA BD 89 4D CB CE FD 5A 94 71 
b9c3: 8E 90 44 C8 A1 24 14 02 E8 54 40 BA 30 A6 20 05 
b9d3: 91 25 B8 54 10 40 A8 70 28 90 00 E6 04 00 50 80 
b9e3: 62 F0 64 A3 18 16 FE 51 20 00 50 02 30 E4 B6 63 
b9f3: 84 42 84 52 D9 00 40 9A 21 E4 98 0B 89 AA E8 AA 
ba03: AF DE 5E EE AE FD C3 3D DF F7 E0 CC 2F F9 B2 DC 
ba13: AF FE 6F 6F AD EF FF CE 6F CD 5D EF FF EE DE 37 
ba23: FF E2 AF 9F AD 70 C7 C3 CE 0E 4F 57 2E EE A5 9E 
ba33: FF BE E2 6F F8 5E 76 B7 2E BE FF DF 9F 12 85 3D 
ba43: A1 90 12 E0 2F 40 00 24 16 C6 A4 21 74 20 99 3A 
ba53: B0 40 00 BD D8 06 A1 21 15 90 E6 B0 26 04 4D 14 
ba63: 8C 70 47 3A BC 45 11 B1 7D 00 4A FD 00 C1 19 84 
ba73: F3 18 EA 24 34 41 C0 12 35 53 3D 11 68 FB 66 6F 
ba83: 9C 64 EE BE 19 1E EF 1C 8E FF CF F7 F5 62 FA D8 
ba93: 2F 73 0F 4E F1 BE AD DC BF 9F B5 A7 FF CF FF 7F 
baa3: BA A4 A7 FC E7 2B B7 DE 96 F1 6B 6D AE FF C9 3B 
bab3: 8E F3 2F 8E A6 69 DE CD BA 5F DB AE 6B 04 10 F1 
bac3: 0A 00 40 04 0F C1 22 A0 75 10 24 31 11 D0 E0 34 
bad3: 11 51 54 44 6F 0D 43 1F 10 40 81 C8 87 4A 42 41 
bae3: 88 34 15 5B 25 54 46 63 82 04 12 B0 51 41 50 10 
baf3: 99 48 62 01 5B 79 52 1C 0E 89 40 14 C2 E4 FD 1F 
bb03: BF BF FF 6D ED FF EF ED EF 6A C7 BD 57 C5 5D AC 
bb13: BA C4 73 FA EF 5D AF FF EE 8A 58 C5 EA 1F 31 2D 
bb23: FF A5 5A DF AD 6F E9 9F FF FA C6 FB 9D CF 9F FE 
bb33: A6 EF C9 DE 3F 67 B9 FE E9 DD CD FC BF C0 54 92 
bb43: ED 20 81 19 4C C1 84 77 01 56 82 4C 34 38 81 21 
bb53: 14 AC 97 41 01 2A 47 21 B2 40 10 53 31 5A 23 28 
bb63: 12 98 42 71 1B A3 49 1C B5 06 3A 9C 51 44 82 72 
bb73: E8 4A D2 09 B9 04 10 95 52 26 C1 53 5E A4 E8 DB 
bb83: AF E8 77 7E 9C 97 D6 D8 FF 45 47 5A B5 2F EA 1F 
bb93: 9C DD 7B BF 89 EE 13 4D EF 06 6B FD 8D F3 69 FF 
bba3: 3A D1 8F A4 EF DC 9F EF 6E E2 BE 7E AC 9F EA DF 
bbb3: DB 47 E7 19 67 ED 41 C8 BF E0 CF FF EE 13 40 00 
bbc3: 52 D0 58 15 11 11 30 56 B8 40 22 93 14 30 59 B1 
bbd3: 46 00 61 03 83 04 12 92 34 11 08 50 22 20 04 57 
bbe3: 1D 00 40 52 00 55 40 89 08 50 05 01 31 44 80 4A 
bbf3: 00 50 49 59 79 40 30 12 22 40 10 16 5C 67 D5 B9 
bc03: FD AE 52 BA 6C B6 B4 99 61 26 F2 4B 57 FD 7F DF 
bc13: BB CE 7B 87 D5 93 D7 C9 DA 5F BC A9 BF DA D6 CB 
bc23: DB A4 E6 4F 59 67 F7 6A 73 7E 7C D7 48 E6 8A 32 
bc33: FB 7B 03 CF 7F 95 CF CB AF EC D7 7F CE 03 20 73 
bc43: A1 AA 0C 05 66 6E A5 38 50 42 68 38 44 F0 12 A9 
bc53: 20 72 10 89 4D C2 CC 8B D9 E8 64 00 33 22 C7 D8 
bc63: 37 60 2F A2 53 EA 10 82 C2 B2 58 10 5A 8C 25 A0 
bc73: C1 02 B0 C0 93 22 A2 BF 8E 06 26 20 13 7E D6 3F 
bc83: 9F C6 6E 7D BF 4F 1D DD 49 A4 66 9F 79 FE AE ED 
bc93: B1 5E 13 BD F5 D4 F7 A0 BA 27 B6 99 59 1F CD C0 
bca3: 5D 6D F0 C3 31 8F F1 9D 39 E4 D6 51 D5 FC 4F BB 
bcb3: AF 6F 57 EF CD EF 67 79 68 CF E6 EA 5D 28 CE 40 
bcc3: 6C 43 82 00 5D 19 15 61 10 62 EA 23 25 A0 06 A0 
bcd3: C1 D0 51 80 C1 E2 46 30 B1 03 44 E0 40 46 15 03 
bce3: F9 C0 16 21 C7 D1 C5 88 12 51 73 68 84 99 80 11 
bcf3: 14 C6 89 95 40 C2 7E 50 4C E4 CE D3 8F 3F 14 2A 
bd03: 43 7E B7 F9 F5 1E AF FB 59 16 55 DF 49 FD FA 91 
bd13: EB 57 D6 9E DB 75 49 CE 4F CF 5E 9F 7F F7 9F BF 
bd23: 1D 3F DC 39 FB DF FF 5D 19 8E 7F F3 FE D6 1D 89 
bd33: C9 3F F7 8D DB E6 4F DD EB ED 9D E7 AD 22 80 31 
bd43: 61 40 00 91 08 F2 12 89 64 1A 40 F9 82 42 22 88 
bd53: 38 83 45 85 2D 46 32 4F 0B 60 5C BA E7 72 16 41 
bd63: 9D 23 8A 6B 01 73 BC C9 70 21 04 28 8B 42 88 52 
bd73: C4 CC 10 42 79 96 80 E3 D6 E6 0B AA FD 6D C7 9A 
bd83: 03 66 DF D3 43 0E 4F 39 95 30 DD FE 5A AD 97 D4 
bd93: 9F DF 3D F9 BB C4 FF DA EE FD B6 DB F3 07 76 9E 
bda3: BF C5 4F 3F A7 C0 27 3A EB 85 B7 79 89 EE 2B FA 
bdb3: D9 E3 5F CD D9 FC E6 7B A5 FC 8C EE 6B 74 90 8F 
bdc3: E4 06 E7 A9 C3 04 84 97 42 06 5A E4 A4 00 F2 28 
bdd3: 55 86 34 A5 A8 96 00 F1 82 06 0C 9B 00 25 24 0D 
bde3: E0 92 62 C3 30 88 06 F0 7E 7E A4 61 0A 82 D8 46 
bdf3: 68 A6 C5 B0 98 06 00 4A C9 F2 22 B6 8F 9F EE FE 
be03: BE FC BA 6F AA D7 B1 6F 3D BD 89 FE AC E3 BF 8A 
be13: 8E CC AB BF D2 FB 3E DF D9 CA 66 35 DD DB DE CD 
be23: BE 9A EF AB 9F CB FD FC B9 CC FB CE AD DF FF EF 
be33: B3 EF 7F EF 5E C7 7E EC FF 4F CB EF 4B D0 A1 E0 
be43: C4 00 C2 11 05 B5 C4 2A 0B 50 D4 29 9C 00 43 34 
be53: 0C 72 8C 30 0C 74 22 68 15 4A 9B 39 F0 46 F1 39 
be63: 00 12 EC 36 21 42 07 D5 76 D6 D0 1F D4 64 40 84 
be73: AB 70 AC BC F3 41 71 B2 22 01 61 84 EC 33 85 6D 
be83: 87 A9 CE 8A B5 ED 77 FF 5E 7E E6 BC 9D 3E D6 3F 
be93: CE 7D 7D DF 9D AE F4 57 AD FA 68 C3 EF DE 6B DE 
bea3: DD 5E AD BB E7 CB CB 7E 5B D7 EB 89 F9 FE F9 78 
beb3: DD 25 C2 A5 F7 AC D3 7F DA 71 76 39 5E 40 39 56 
bec3: 66 C0 10 34 14 10 1F 72 D4 41 52 33 08 D8 58 33 
bed3: 21 00 04 C4 64 4B 5A E1 4A 40 E0 0A 04 04 00 12 
bee3: 55 42 50 3A 1C 01 33 F5 D4 41 09 41 10 A1 71 40 
bef3: 0E A1 A0 57 18 58 30 C0 B0 00 E6 03 D6 6F D7 1F 
bf03: DC CD 82 BD EF CD DF EE CC 7F D3 3B 93 E7 75 EB 
bf13: 2A F8 EE DD DE 7B 9B DF AF 9F DD DE EF 2F 86 38 
bf23: 3F 1B 27 BE FF FE CB 4F FF EC E1 2B AA FD D9 C9 
bf33: EA FE F9 FE 1B F7 9B 2F CF 4F EF FD BE 5B 85 26 
bf43: 08 F2 96 33 88 81 E0 24 F0 D5 50 77 31 10 21 0C 
bf53: DE 69 A8 1E 57 40 11 BD 96 56 53 14 9B 4E 10 30 
bf63: B2 09 20 AA AF 10 27 92 53 51 60 00 86 59 84 81 
bf73: 0D 08 01 1A 02 14 12 7D 72 75 47 00 34 5E 2F EB 
bf83: 1F 0E FA CF BB A1 B4 BB 05 D3 C5 2F FD 15 D7 7F 
bf93: FE 62 B2 DF 3E D7 BF FB BD 4E F7 7E ED 5B 4B 2B 
bfa3: EB B8 E1 3F FE BF F4 F0 BF EB 6E FE AA FB 7B B4 
bfb3: FE 81 39 FF 8F 6C F6 C8 16 D4 53 97 5F 40 D0 B5 
bfc3: 27 00 20 56 20 48 70 26 E1 40 73 90 13 30 47 0A 
bfd3: 90 59 60 21 20 04 F1 72 B0 08 6A 30 72 89 41 10 
bfe3: 51 51 10 B7 75 50 4F A1 59 A4 42 13 71 15 30 94 
bff3: 00 61 40 33 1F C2 52 E1 85 74 40 DA 90 

